Component: ARM Compiler 5.06 update 5 (build 528) Tool: armlink [4d35e2]

==============================================================================

Section Cross References

    relay.o(i._ZN5relay6TRelayC1EP12GPIO_TypeDefjjPc) refers to relay.o(i._ZN30_INTERNAL_9_Relay_cpp_6c3d9d8e22LL_GPIO_ResetOutputPinEP12GPIO_TypeDefj) for [local to Relay_cpp]::LL_GPIO_ResetOutputPin(GPIO_TypeDef*, unsigned)
    relay.o(i._ZN5relay6TRelayC1EP12GPIO_TypeDefjjPc) refers to stm32l4xx_ll_gpio.o(i.LL_GPIO_Init) for LL_GPIO_Init
    relay.o(i._ZNK5relay6TRelay3offEv) refers to relay.o(i._ZN30_INTERNAL_9_Relay_cpp_6c3d9d8e22LL_GPIO_ResetOutputPinEP12GPIO_TypeDefj) for [local to Relay_cpp]::LL_GPIO_ResetOutputPin(GPIO_TypeDef*, unsigned)
    relay.o(.ARM.exidx) refers to relay.o(i._ZN5relay6TRelayC1EP12GPIO_TypeDefjjPc) for i._ZN5relay6TRelayC1EP12GPIO_TypeDefjjPc
    relay.o(.ARM.exidx) refers to relay.o(i._ZN5relay6TRelayD1Ev) for i._ZN5relay6TRelayD1Ev
    relay.o(.ARM.exidx) refers to relay.o(i._ZNK5relay6TRelay6toggleEv) for i._ZNK5relay6TRelay6toggleEv
    relay.o(.ARM.exidx) refers to relay.o(i._ZNK5relay6TRelay2onEv) for i._ZNK5relay6TRelay2onEv
    relay.o(.ARM.exidx) refers to relay.o(i._ZNK5relay6TRelay3offEv) for i._ZNK5relay6TRelay3offEv
    relay.o(.ARM.exidx) refers to relay.o(i._ZN30_INTERNAL_9_Relay_cpp_6c3d9d8e22LL_GPIO_ResetOutputPinEP12GPIO_TypeDefj) for i._ZN30_INTERNAL_9_Relay_cpp_6c3d9d8e22LL_GPIO_ResetOutputPinEP12GPIO_TypeDefj
    rs-485_phy.o(.ARM.exidx) refers to rs-485_phy.o(i._ZN12T_RS_485_phyC1Ev) for i._ZN12T_RS_485_phyC1Ev
    rs-485_phy.o(.ARM.exidx) refers to rs-485_phy.o(i._ZN12T_RS_485_phyD1Ev) for i._ZN12T_RS_485_phyD1Ev
    rs-485_phy.o(.ARM.exidx) refers to rs-485_phy.o(i._ZN12T_RS_485_phy10get_configEv) for i._ZN12T_RS_485_phy10get_configEv
    rs-485_phy.o(.ARM.exidx) refers to rs-485_phy.o(i._ZN12T_RS_485_phy15get_de_polarityEv) for i._ZN12T_RS_485_phy15get_de_polarityEv
    button.o(i._ZN7TButton4initEv) refers to stm32l4xx_ll_gpio.o(i.LL_GPIO_Init) for LL_GPIO_Init
    button.o(i.__sti___10_Button_cpp_Btn) refers to button.o(i._ZN7TButtonC1ERK4TPin) for TButton::TButton(const TPin&)
    button.o(i.__sti___10_Button_cpp_Btn) refers to aeabi_atexit.o(.text) for __aeabi_atexit
    button.o(i.__sti___10_Button_cpp_Btn) refers to hard_config.o(.data) for Button_HW
    button.o(i.__sti___10_Button_cpp_Btn) refers to button.o(.bss) for Btn
    button.o(i.__sti___10_Button_cpp_Btn) refers to button.o(i._ZN7TButtonD1Ev) for TButton::~TButton()
    button.o(.ARM.exidx) refers to button.o(i._ZN7TButtonC1ERK4TPin) for i._ZN7TButtonC1ERK4TPin
    button.o(.ARM.exidx) refers to button.o(i._ZN7TButtonD1Ev) for i._ZN7TButtonD1Ev
    button.o(.ARM.exidx) refers to button.o(i._ZN7TButton4initEv) for i._ZN7TButton4initEv
    button.o(.ARM.exidx) refers to button.o(i._ZNK7TButton4readEv) for i._ZNK7TButton4readEv
    button.o(.ARM.exidx) refers to button.o(i.__sti___10_Button_cpp_Btn) for i.__sti___10_Button_cpp_Btn
    button.o(.init_array) refers to button.o(i.__sti___10_Button_cpp_Btn) for __sti___10_Button_cpp_Btn
    button.o(.init_array) refers to cpp_init.o(.text) for __cpp_initialize__aeabi_
    led.o(i._ZN4TLed11free_toggleEv) refers to led.o(i._ZN23_INTERNAL_7_Led_cpp_Led17LL_GPIO_TogglePinEP12GPIO_TypeDefj) for [local to Led_cpp]::LL_GPIO_TogglePin(GPIO_TypeDef*, unsigned)
    led.o(i._ZN4TLed3offEv) refers to led.o(i._ZN23_INTERNAL_7_Led_cpp_Led22LL_GPIO_ResetOutputPinEP12GPIO_TypeDefj) for [local to Led_cpp]::LL_GPIO_ResetOutputPin(GPIO_TypeDef*, unsigned)
    led.o(i._ZN4TLed4initEv) refers to led.o(i._ZN23_INTERNAL_7_Led_cpp_Led22LL_GPIO_ResetOutputPinEP12GPIO_TypeDefj) for [local to Led_cpp]::LL_GPIO_ResetOutputPin(GPIO_TypeDef*, unsigned)
    led.o(i._ZN4TLed4initEv) refers to stm32l4xx_ll_gpio.o(i.LL_GPIO_Init) for LL_GPIO_Init
    led.o(i._ZN4TLed6toggleEv) refers to led.o(i._ZN23_INTERNAL_7_Led_cpp_Led17LL_GPIO_TogglePinEP12GPIO_TypeDefj) for [local to Led_cpp]::LL_GPIO_TogglePin(GPIO_TypeDef*, unsigned)
    led.o(i.__sti___7_Led_cpp_Led) refers to led.o(i._ZN4TLedC1ERK4TPinPPv) for TLed::TLed(const TPin&, void**)
    led.o(i.__sti___7_Led_cpp_Led) refers to aeabi_atexit.o(.text) for __aeabi_atexit
    led.o(i.__sti___7_Led_cpp_Led) refers to main.o(.data) for LedTimer_TrigSem
    led.o(i.__sti___7_Led_cpp_Led) refers to hard_config.o(.data) for Led_HW
    led.o(i.__sti___7_Led_cpp_Led) refers to led.o(.bss) for Led
    led.o(i.__sti___7_Led_cpp_Led) refers to led.o(i._ZN4TLedD1Ev) for TLed::~TLed()
    led.o(.ARM.exidx) refers to led.o(i._ZN4TLedC1ERK4TPinPPv) for i._ZN4TLedC1ERK4TPinPPv
    led.o(.ARM.exidx) refers to led.o(i._ZN4TLedD1Ev) for i._ZN4TLedD1Ev
    led.o(.ARM.exidx) refers to led.o(i._ZN4TLed4initEv) for i._ZN4TLed4initEv
    led.o(.ARM.exidx) refers to led.o(i._ZN4TLed2onEv) for i._ZN4TLed2onEv
    led.o(.ARM.exidx) refers to led.o(i._ZN4TLed3offEv) for i._ZN4TLed3offEv
    led.o(.ARM.exidx) refers to led.o(i._ZN4TLed6toggleEv) for i._ZN4TLed6toggleEv
    led.o(.ARM.exidx) refers to led.o(i._ZN4TLed11free_toggleEv) for i._ZN4TLed11free_toggleEv
    led.o(.ARM.exidx) refers to led.o(i.__sti___7_Led_cpp_Led) for i.__sti___7_Led_cpp_Led
    led.o(.ARM.exidx) refers to led.o(i._ZN23_INTERNAL_7_Led_cpp_Led22LL_GPIO_ResetOutputPinEP12GPIO_TypeDefj) for i._ZN23_INTERNAL_7_Led_cpp_Led22LL_GPIO_ResetOutputPinEP12GPIO_TypeDefj
    led.o(.ARM.exidx) refers to led.o(i._ZN23_INTERNAL_7_Led_cpp_Led17LL_GPIO_TogglePinEP12GPIO_TypeDefj) for i._ZN23_INTERNAL_7_Led_cpp_Led17LL_GPIO_TogglePinEP12GPIO_TypeDefj
    led.o(.init_array) refers to led.o(i.__sti___7_Led_cpp_Led) for __sti___7_Led_cpp_Led
    led.o(.init_array) refers to cpp_init.o(.text) for __cpp_initialize__aeabi_
    ad8402.o(i._ZN8T_AD840210get_resistENS_8TChannelE) refers to ad8402.o(.constdata) for .constdata
    ad8402.o(i._ZN8T_AD840210get_resistENS_8TChannelE) refers to ad8402.o(.data) for T_AD8402::Resist
    ad8402.o(i._ZN8T_AD840213data_bit_ctrlEPh) refers to memcpya.o(.text) for __aeabi_memcpy4
    ad8402.o(i._ZN8T_AD840213data_bit_ctrlEPh) refers to ad8402.o(.constdata) for .constdata
    ad8402.o(i._ZN8T_AD84024initEv) refers to stm32l4xx_ll_gpio.o(i.LL_GPIO_Init) for LL_GPIO_Init
    ad8402.o(i._ZN8T_AD84024initEv) refers to ad8402.o(i._ZN8T_AD84029latch_setEv) for T_AD8402::latch_set()
    ad8402.o(i._ZN8T_AD84024initEv) refers to ad8402.o(i._ZN8T_AD84028shdn_clrEv) for T_AD8402::shdn_clr()
    ad8402.o(i._ZN8T_AD84024initEv) refers to ad8402.o(i._ZN8T_AD84026rs_setEv) for T_AD8402::rs_set()
    ad8402.o(i._ZN8T_AD84024initEv) refers to ad8402.o(i._ZN8T_AD84027clk_clrEv) for T_AD8402::clk_clr()
    ad8402.o(i._ZN8T_AD84024initEv) refers to ad8402.o(i._ZN8T_AD84027sdi_clrEv) for T_AD8402::sdi_clr()
    ad8402.o(i._ZN8T_AD84026rs_clrEv) refers to ad8402.o(i._ZN30_INTERNAL_10_AD8402_cpp_AD840222LL_GPIO_ResetOutputPinEP12GPIO_TypeDefj) for [local to AD8402_cpp]::LL_GPIO_ResetOutputPin(GPIO_TypeDef*, unsigned)
    ad8402.o(i._ZN8T_AD84026rs_setEv) refers to ad8402.o(i._ZN30_INTERNAL_10_AD8402_cpp_AD840220LL_GPIO_SetOutputPinEP12GPIO_TypeDefj) for [local to AD8402_cpp]::LL_GPIO_SetOutputPin(GPIO_TypeDef*, unsigned)
    ad8402.o(i._ZN8T_AD84027clk_clrEv) refers to ad8402.o(i._ZN30_INTERNAL_10_AD8402_cpp_AD840222LL_GPIO_ResetOutputPinEP12GPIO_TypeDefj) for [local to AD8402_cpp]::LL_GPIO_ResetOutputPin(GPIO_TypeDef*, unsigned)
    ad8402.o(i._ZN8T_AD84027clk_setEv) refers to ad8402.o(i._ZN30_INTERNAL_10_AD8402_cpp_AD840220LL_GPIO_SetOutputPinEP12GPIO_TypeDefj) for [local to AD8402_cpp]::LL_GPIO_SetOutputPin(GPIO_TypeDef*, unsigned)
    ad8402.o(i._ZN8T_AD84027sdi_clrEv) refers to ad8402.o(i._ZN30_INTERNAL_10_AD8402_cpp_AD840222LL_GPIO_ResetOutputPinEP12GPIO_TypeDefj) for [local to AD8402_cpp]::LL_GPIO_ResetOutputPin(GPIO_TypeDef*, unsigned)
    ad8402.o(i._ZN8T_AD84027sdi_setEv) refers to ad8402.o(i._ZN30_INTERNAL_10_AD8402_cpp_AD840220LL_GPIO_SetOutputPinEP12GPIO_TypeDefj) for [local to AD8402_cpp]::LL_GPIO_SetOutputPin(GPIO_TypeDef*, unsigned)
    ad8402.o(i._ZN8T_AD84028set_codeEhNS_8TChannelE) refers to ad8402.o(i._ZN8T_AD84028shdn_setEv) for T_AD8402::shdn_set()
    ad8402.o(i._ZN8T_AD84028set_codeEhNS_8TChannelE) refers to ad8402.o(i._ZN8T_AD84029latch_clrEv) for T_AD8402::latch_clr()
    ad8402.o(i._ZN8T_AD84028set_codeEhNS_8TChannelE) refers to ad8402.o(i._ZN8T_AD840213data_bit_ctrlEPh) for T_AD8402::data_bit_ctrl(unsigned char*)
    ad8402.o(i._ZN8T_AD84028set_codeEhNS_8TChannelE) refers to ad8402.o(i._ZN8T_AD84027clk_clrEv) for T_AD8402::clk_clr()
    ad8402.o(i._ZN8T_AD84028set_codeEhNS_8TChannelE) refers to ad8402.o(i._ZN8T_AD84027clk_setEv) for T_AD8402::clk_set()
    ad8402.o(i._ZN8T_AD84028set_codeEhNS_8TChannelE) refers to ad8402.o(i._ZN8T_AD840212reverse_bitsEh) for T_AD8402::reverse_bits(unsigned char)
    ad8402.o(i._ZN8T_AD84028set_codeEhNS_8TChannelE) refers to ad8402.o(i._ZN8T_AD84027sdi_clrEv) for T_AD8402::sdi_clr()
    ad8402.o(i._ZN8T_AD84028set_codeEhNS_8TChannelE) refers to ad8402.o(i._ZN8T_AD84029latch_setEv) for T_AD8402::latch_set()
    ad8402.o(i._ZN8T_AD84028set_codeEhNS_8TChannelE) refers to ad8402.o(.data) for T_AD8402::Resist
    ad8402.o(i._ZN8T_AD84028shdn_clrEv) refers to ad8402.o(i._ZN30_INTERNAL_10_AD8402_cpp_AD840222LL_GPIO_ResetOutputPinEP12GPIO_TypeDefj) for [local to AD8402_cpp]::LL_GPIO_ResetOutputPin(GPIO_TypeDef*, unsigned)
    ad8402.o(i._ZN8T_AD84028shdn_setEv) refers to ad8402.o(i._ZN30_INTERNAL_10_AD8402_cpp_AD840220LL_GPIO_SetOutputPinEP12GPIO_TypeDefj) for [local to AD8402_cpp]::LL_GPIO_SetOutputPin(GPIO_TypeDef*, unsigned)
    ad8402.o(i._ZN8T_AD84029latch_clrEv) refers to ad8402.o(i._ZN30_INTERNAL_10_AD8402_cpp_AD840222LL_GPIO_ResetOutputPinEP12GPIO_TypeDefj) for [local to AD8402_cpp]::LL_GPIO_ResetOutputPin(GPIO_TypeDef*, unsigned)
    ad8402.o(i._ZN8T_AD84029latch_setEv) refers to ad8402.o(i._ZN30_INTERNAL_10_AD8402_cpp_AD840220LL_GPIO_SetOutputPinEP12GPIO_TypeDefj) for [local to AD8402_cpp]::LL_GPIO_SetOutputPin(GPIO_TypeDef*, unsigned)
    ad8402.o(i._ZN8T_AD8402C1ERK7TPot_HW) refers to memcpya.o(.text) for __aeabi_memcpy4
    ad8402.o(i.__sti___10_AD8402_cpp_AD8402) refers to ad8402.o(i._ZN8T_AD8402C1ERK7TPot_HW) for T_AD8402::T_AD8402(const TPot_HW&)
    ad8402.o(i.__sti___10_AD8402_cpp_AD8402) refers to aeabi_atexit.o(.text) for __aeabi_atexit
    ad8402.o(i.__sti___10_AD8402_cpp_AD8402) refers to hard_config.o(.data) for Pot_HW
    ad8402.o(i.__sti___10_AD8402_cpp_AD8402) refers to ad8402.o(.bss) for AD8402
    ad8402.o(i.__sti___10_AD8402_cpp_AD8402) refers to ad8402.o(i._ZN8T_AD8402D1Ev) for T_AD8402::~T_AD8402()
    ad8402.o(.ARM.exidx) refers to ad8402.o(i._ZN8T_AD8402C1ERK7TPot_HW) for i._ZN8T_AD8402C1ERK7TPot_HW
    ad8402.o(.ARM.exidx) refers to ad8402.o(i._ZN8T_AD8402D1Ev) for i._ZN8T_AD8402D1Ev
    ad8402.o(.ARM.exidx) refers to ad8402.o(i._ZN8T_AD84027sdi_clrEv) for i._ZN8T_AD84027sdi_clrEv
    ad8402.o(.ARM.exidx) refers to ad8402.o(i._ZN8T_AD84027clk_clrEv) for i._ZN8T_AD84027clk_clrEv
    ad8402.o(.ARM.exidx) refers to ad8402.o(i._ZN8T_AD84026rs_setEv) for i._ZN8T_AD84026rs_setEv
    ad8402.o(.ARM.exidx) refers to ad8402.o(i._ZN8T_AD84028shdn_clrEv) for i._ZN8T_AD84028shdn_clrEv
    ad8402.o(.ARM.exidx) refers to ad8402.o(i._ZN8T_AD84029latch_setEv) for i._ZN8T_AD84029latch_setEv
    ad8402.o(.ARM.exidx) refers to ad8402.o(i._ZN8T_AD84024initEv) for i._ZN8T_AD84024initEv
    ad8402.o(.ARM.exidx) refers to ad8402.o(i._ZN8T_AD84027clk_setEv) for i._ZN8T_AD84027clk_setEv
    ad8402.o(.ARM.exidx) refers to ad8402.o(i._ZN8T_AD840213data_bit_ctrlEPh) for i._ZN8T_AD840213data_bit_ctrlEPh
    ad8402.o(.ARM.exidx) refers to ad8402.o(i._ZN8T_AD840212reverse_bitsEh) for i._ZN8T_AD840212reverse_bitsEh
    ad8402.o(.ARM.exidx) refers to ad8402.o(i._ZN8T_AD84029latch_clrEv) for i._ZN8T_AD84029latch_clrEv
    ad8402.o(.ARM.exidx) refers to ad8402.o(i._ZN8T_AD84028shdn_setEv) for i._ZN8T_AD84028shdn_setEv
    ad8402.o(.ARM.exidx) refers to ad8402.o(i._ZN8T_AD84028set_codeEhNS_8TChannelE) for i._ZN8T_AD84028set_codeEhNS_8TChannelE
    ad8402.o(.ARM.exidx) refers to ad8402.o(i._ZN8T_AD840210get_resistENS_8TChannelE) for i._ZN8T_AD840210get_resistENS_8TChannelE
    ad8402.o(.ARM.exidx) refers to ad8402.o(i._ZN8T_AD84027sdi_setEv) for i._ZN8T_AD84027sdi_setEv
    ad8402.o(.ARM.exidx) refers to ad8402.o(i._ZN8T_AD84026rs_clrEv) for i._ZN8T_AD84026rs_clrEv
    ad8402.o(.ARM.exidx) refers to ad8402.o(i.__sti___10_AD8402_cpp_AD8402) for i.__sti___10_AD8402_cpp_AD8402
    ad8402.o(.ARM.exidx) refers to ad8402.o(i._ZN30_INTERNAL_10_AD8402_cpp_AD840220LL_GPIO_SetOutputPinEP12GPIO_TypeDefj) for i._ZN30_INTERNAL_10_AD8402_cpp_AD840220LL_GPIO_SetOutputPinEP12GPIO_TypeDefj
    ad8402.o(.ARM.exidx) refers to ad8402.o(i._ZN30_INTERNAL_10_AD8402_cpp_AD840222LL_GPIO_ResetOutputPinEP12GPIO_TypeDefj) for i._ZN30_INTERNAL_10_AD8402_cpp_AD840222LL_GPIO_ResetOutputPinEP12GPIO_TypeDefj
    ad8402.o(.constdata) refers to ad8402.o(i._ZN8T_AD84027sdi_setEv) for T_AD8402::sdi_set()
    ad8402.o(.constdata) refers to ad8402.o(i._ZN8T_AD84027sdi_clrEv) for T_AD8402::sdi_clr()
    ad8402.o(.init_array) refers to ad8402.o(i.__sti___10_AD8402_cpp_AD8402) for __sti___10_AD8402_cpp_AD8402
    ad8402.o(.init_array) refers to cpp_init.o(.text) for __cpp_initialize__aeabi_
    main.o(i._Z11cfg_sys_clkv) refers to memcpya.o(.text) for __aeabi_memcpy4
    main.o(i._Z11cfg_sys_clkv) refers to main.o(i._ZN29_INTERNAL_8_main_cpp_6396510218LL_RCC_MSI_IsReadyEv) for [local to main_cpp]::LL_RCC_MSI_IsReady()
    main.o(i._Z11cfg_sys_clkv) refers to stm32l4xx_ll_utils.o(i.LL_Init1msTick) for LL_Init1msTick
    main.o(i._Z11cfg_sys_clkv) refers to stm32l4xx_ll_utils.o(i.LL_SetSystemCoreClock) for LL_SetSystemCoreClock
    main.o(i._Z11cfg_sys_clkv) refers to main.o(i._ZN29_INTERNAL_8_main_cpp_6396510224NVIC_GetPriorityGroupingEv) for [local to main_cpp]::NVIC_GetPriorityGrouping()
    main.o(i._Z11cfg_sys_clkv) refers to main.o(i._ZN29_INTERNAL_8_main_cpp_6396510219NVIC_EncodePriorityEjjj) for [local to main_cpp]::NVIC_EncodePriority(unsigned, unsigned, unsigned)
    main.o(i._Z11cfg_sys_clkv) refers to main.o(i._ZN29_INTERNAL_8_main_cpp_6396510216NVIC_SetPriorityE9IRQn_Typej) for [local to main_cpp]::NVIC_SetPriority(IRQn_Type, unsigned)
    main.o(i._Z11cfg_sys_clkv) refers to main.o(.constdata) for .constdata
    main.o(i._Z29vApplicationStackOverflowHookPPvPa) refers to main.o(.data) for vApplicationStackOverflowHook(void**, signed char*)::Ctr
    main.o(i._ZN29_INTERNAL_8_main_cpp_6396510212create_tasksEv) refers to tasks.o(i.xTaskCreate) for xTaskCreate
    main.o(i._ZN29_INTERNAL_8_main_cpp_6396510212create_tasksEv) refers to main.o(i._ZN29_INTERNAL_8_main_cpp_6396510217check_create_taskEl) for [local to main_cpp]::check_create_task(long)
    main.o(i._ZN29_INTERNAL_8_main_cpp_6396510212create_tasksEv) refers to heap_2.o(i.xPortGetFreeHeapSize) for xPortGetFreeHeapSize
    main.o(i._ZN29_INTERNAL_8_main_cpp_6396510212create_tasksEv) refers to lev_gauge_to_pc.o(i._Z15lev_gauge_to_pcPv) for lev_gauge_to_pc(void*)
    main.o(i._ZN29_INTERNAL_8_main_cpp_6396510212create_tasksEv) refers to main.o(.data) for RtosHeapSize
    main.o(i._ZN29_INTERNAL_8_main_cpp_6396510212init_mx_gpioEv) refers to stm32l4xx_ll_gpio.o(i.LL_GPIO_Init) for LL_GPIO_Init
    main.o(i._ZN29_INTERNAL_8_main_cpp_6396510214create_mutexesEv) refers to queue.o(i.xQueueCreateMutex) for xQueueCreateMutex
    main.o(i._ZN29_INTERNAL_8_main_cpp_6396510214create_mutexesEv) refers to main.o(i._ZN29_INTERNAL_8_main_cpp_6396510218check_create_mutexEPv) for [local to main_cpp]::check_create_mutex(void*)
    main.o(i._ZN29_INTERNAL_8_main_cpp_6396510214create_mutexesEv) refers to main.o(.data) for MainMut
    main.o(i._ZN29_INTERNAL_8_main_cpp_6396510214create_semphrsEv) refers to queue.o(i.xQueueGenericCreate) for xQueueGenericCreate
    main.o(i._ZN29_INTERNAL_8_main_cpp_6396510214create_semphrsEv) refers to main.o(i._ZN29_INTERNAL_8_main_cpp_6396510219check_create_semphrEPv) for [local to main_cpp]::check_create_semphr(void*)
    main.o(i._ZN29_INTERNAL_8_main_cpp_6396510214create_semphrsEv) refers to main.o(.data) for I2C_RxSem
    main.o(i._ZN29_INTERNAL_8_main_cpp_639651027init_llEv) refers to main.o(i._ZN29_INTERNAL_8_main_cpp_6396510224NVIC_GetPriorityGroupingEv) for [local to main_cpp]::NVIC_GetPriorityGrouping()
    main.o(i._ZN29_INTERNAL_8_main_cpp_639651027init_llEv) refers to main.o(i._ZN29_INTERNAL_8_main_cpp_6396510219NVIC_EncodePriorityEjjj) for [local to main_cpp]::NVIC_EncodePriority(unsigned, unsigned, unsigned)
    main.o(i._ZN29_INTERNAL_8_main_cpp_639651027init_llEv) refers to main.o(i._ZN29_INTERNAL_8_main_cpp_6396510216NVIC_SetPriorityE9IRQn_Typej) for [local to main_cpp]::NVIC_SetPriority(IRQn_Type, unsigned)
    main.o(i.__sti___8_main_cpp_63965102) refers to heap_2.o(i.xPortGetFreeHeapSize) for xPortGetFreeHeapSize
    main.o(i.__sti___8_main_cpp_63965102) refers to main.o(.data) for RtosHeapSize
    main.o(i.main) refers to main.o(i._ZN29_INTERNAL_8_main_cpp_639651027init_llEv) for [local to main_cpp]::init_ll()
    main.o(i.main) refers to main.o(i._Z11cfg_sys_clkv) for cfg_sys_clk()
    main.o(i.main) refers to main.o(i._ZN29_INTERNAL_8_main_cpp_6396510212init_mx_gpioEv) for [local to main_cpp]::init_mx_gpio()
    main.o(i.main) refers to heap_2.o(i.xPortGetFreeHeapSize) for xPortGetFreeHeapSize
    main.o(i.main) refers to main.o(i._ZN29_INTERNAL_8_main_cpp_6396510214create_semphrsEv) for [local to main_cpp]::create_semphrs()
    main.o(i.main) refers to main.o(i._ZN29_INTERNAL_8_main_cpp_6396510214create_mutexesEv) for [local to main_cpp]::create_mutexes()
    main.o(i.main) refers to main.o(i._ZN29_INTERNAL_8_main_cpp_6396510213create_timersEv) for [local to main_cpp]::create_timers()
    main.o(i.main) refers to main.o(i._ZN29_INTERNAL_8_main_cpp_6396510212create_tasksEv) for [local to main_cpp]::create_tasks()
    main.o(i.main) refers to tasks.o(i.vTaskStartScheduler) for vTaskStartScheduler
    main.o(i.main) refers to main.o(.data) for RtosHeapSize
    main.o(i.vApplicationStackOverflowHook) refers to main.o(.data) for vApplicationStackOverflowHook::k
    main.o(.ARM.exidx) refers to main.o(i._ZN29_INTERNAL_8_main_cpp_6396510216NVIC_SetPriorityE9IRQn_Typej) for i._ZN29_INTERNAL_8_main_cpp_6396510216NVIC_SetPriorityE9IRQn_Typej
    main.o(.ARM.exidx) refers to main.o(i._ZN29_INTERNAL_8_main_cpp_6396510219NVIC_EncodePriorityEjjj) for i._ZN29_INTERNAL_8_main_cpp_6396510219NVIC_EncodePriorityEjjj
    main.o(.ARM.exidx) refers to main.o(i._ZN29_INTERNAL_8_main_cpp_6396510217check_create_taskEl) for i._ZN29_INTERNAL_8_main_cpp_6396510217check_create_taskEl
    main.o(.ARM.exidx) refers to main.o(i._ZN29_INTERNAL_8_main_cpp_6396510212create_tasksEv) for i._ZN29_INTERNAL_8_main_cpp_6396510212create_tasksEv
    main.o(.ARM.exidx) refers to main.o(i._ZN29_INTERNAL_8_main_cpp_6396510213create_timersEv) for i._ZN29_INTERNAL_8_main_cpp_6396510213create_timersEv
    main.o(.ARM.exidx) refers to main.o(i._ZN29_INTERNAL_8_main_cpp_6396510218check_create_mutexEPv) for i._ZN29_INTERNAL_8_main_cpp_6396510218check_create_mutexEPv
    main.o(.ARM.exidx) refers to main.o(i._ZN29_INTERNAL_8_main_cpp_6396510214create_mutexesEv) for i._ZN29_INTERNAL_8_main_cpp_6396510214create_mutexesEv
    main.o(.ARM.exidx) refers to main.o(i._ZN29_INTERNAL_8_main_cpp_6396510219check_create_semphrEPv) for i._ZN29_INTERNAL_8_main_cpp_6396510219check_create_semphrEPv
    main.o(.ARM.exidx) refers to main.o(i._ZN29_INTERNAL_8_main_cpp_6396510214create_semphrsEv) for i._ZN29_INTERNAL_8_main_cpp_6396510214create_semphrsEv
    main.o(.ARM.exidx) refers to main.o(i._ZN29_INTERNAL_8_main_cpp_6396510212init_mx_gpioEv) for i._ZN29_INTERNAL_8_main_cpp_6396510212init_mx_gpioEv
    main.o(.ARM.exidx) refers to main.o(i._Z11cfg_sys_clkv) for i._Z11cfg_sys_clkv
    main.o(.ARM.exidx) refers to main.o(i._ZN29_INTERNAL_8_main_cpp_639651027init_llEv) for i._ZN29_INTERNAL_8_main_cpp_639651027init_llEv
    main.o(.ARM.exidx) refers to main.o(i.main) for i.main
    main.o(.ARM.exidx) refers to main.o(i.vApplicationStackOverflowHook) for i.vApplicationStackOverflowHook
    main.o(.ARM.exidx) refers to main.o(i.vApplicationIdleHook) for i.vApplicationIdleHook
    main.o(.ARM.exidx) refers to main.o(i._ZN29_INTERNAL_8_main_cpp_6396510218check_create_timerEPv) for i._ZN29_INTERNAL_8_main_cpp_6396510218check_create_timerEPv
    main.o(.ARM.exidx) refers to main.o(i._Z29vApplicationStackOverflowHookPPvPa) for i._Z29vApplicationStackOverflowHookPPvPa
    main.o(.ARM.exidx) refers to main.o(i._Z11err_handlerv) for i._Z11err_handlerv
    main.o(.ARM.exidx) refers to main.o(i.__sti___8_main_cpp_63965102) for i.__sti___8_main_cpp_63965102
    main.o(.ARM.exidx) refers to main.o(i._ZN29_INTERNAL_8_main_cpp_6396510224NVIC_GetPriorityGroupingEv) for i._ZN29_INTERNAL_8_main_cpp_6396510224NVIC_GetPriorityGroupingEv
    main.o(.ARM.exidx) refers to main.o(i._ZN29_INTERNAL_8_main_cpp_6396510218LL_RCC_MSI_IsReadyEv) for i._ZN29_INTERNAL_8_main_cpp_6396510218LL_RCC_MSI_IsReadyEv
    main.o(.init_array) refers to main.o(i.__sti___8_main_cpp_63965102) for __sti___8_main_cpp_63965102
    main.o(.init_array) refers to cpp_init.o(.text) for __cpp_initialize__aeabi_
    hard_config.o(.ARM.exidx) refers to hard_config.o(i._ZN35_INTERNAL_15_hard_config_cpp_Pot_HW24LL_RCC_SetADCClockSourceEj) for i._ZN35_INTERNAL_15_hard_config_cpp_Pot_HW24LL_RCC_SetADCClockSourceEj
    hard_config.o(.ARM.exidx) refers to hard_config.o(i._ZN35_INTERNAL_15_hard_config_cpp_Pot_HW24LL_AHB2_GRP1_EnableClockEj) for i._ZN35_INTERNAL_15_hard_config_cpp_Pot_HW24LL_AHB2_GRP1_EnableClockEj
    hard_config.o(.ARM.exidx) refers to hard_config.o(i._ZN35_INTERNAL_15_hard_config_cpp_Pot_HW24LL_APB1_GRP1_EnableClockEj) for i._ZN35_INTERNAL_15_hard_config_cpp_Pot_HW24LL_APB1_GRP1_EnableClockEj
    hard_config.o(.ARM.exidx) refers to hard_config.o(i._ZN35_INTERNAL_15_hard_config_cpp_Pot_HW24LL_APB2_GRP1_EnableClockEj) for i._ZN35_INTERNAL_15_hard_config_cpp_Pot_HW24LL_APB2_GRP1_EnableClockEj
    hard_config.o(.data) refers to hard_config.o(i._ZN35_INTERNAL_15_hard_config_cpp_Pot_HW24LL_AHB2_GRP1_EnableClockEj) for [local to hard_config_cpp]::LL_AHB2_GRP1_EnableClock(unsigned)
    hard_config.o(.data) refers to hard_config.o(i._ZN35_INTERNAL_15_hard_config_cpp_Pot_HW24LL_APB2_GRP1_EnableClockEj) for [local to hard_config_cpp]::LL_APB2_GRP1_EnableClock(unsigned)
    hard_config.o(.data) refers to hard_config.o(i._ZN35_INTERNAL_15_hard_config_cpp_Pot_HW24LL_APB1_GRP1_EnableClockEj) for [local to hard_config_cpp]::LL_APB1_GRP1_EnableClock(unsigned)
    hard_config.o(.data) refers to hard_config.o(i._ZN35_INTERNAL_15_hard_config_cpp_Pot_HW24LL_RCC_SetADCClockSourceEj) for [local to hard_config_cpp]::LL_RCC_SetADCClockSource(unsigned)
    model.o(i._ZN6TModel10get_accessEv) refers to queue.o(i.xQueueGenericReceive) for xQueueGenericReceive
    model.o(i._ZN6TModel10get_accessEv) refers to queue.o(i.xQueueGenericSend) for xQueueGenericSend
    model.o(i._ZN6TModel10set_accessEN9TSettings7TAccessE) refers to queue.o(i.xQueueGenericReceive) for xQueueGenericReceive
    model.o(i._ZN6TModel10set_accessEN9TSettings7TAccessE) refers to queue.o(i.xQueueGenericSend) for xQueueGenericSend
    model.o(i._ZN6TModel11get_accel_zEv) refers to model.o(t._ZN6TModel11access_protIfU8__packedfEEvRT_RKT0_) for _ZN6TModel11access_protIfU8__packedfEEvRT_RKT0_
    model.o(i._ZN6TModel11get_code_swEv) refers to model.o(t._ZN6TModel11access_protIhU8__packedhEEvRT_RKT0_) for _ZN6TModel11access_protIhU8__packedhEEvRT_RKT0_
    model.o(i._ZN6TModel11get_connectEv) refers to model.o(t._ZN6TModel11access_protIN9TSettings6TStateES2_EEvRT_RKT0_) for void TModel::access_prot<TSettings::TState, TSettings::TState>(T1&, const T2&)
    model.o(i._ZN6TModel11get_hc_memsEv) refers to model.o(t._ZN6TModel11access_protIN9TSettings6TStateES2_EEvRT_RKT0_) for void TModel::access_prot<TSettings::TState, TSettings::TState>(T1&, const T2&)
    model.o(i._ZN6TModel11get_if_setsER3TIf) refers to model.o(t._ZN6TModel11access_protI3TIfS1_EEvRT_RKT0_) for void TModel::access_prot<TIf, TIf>(T1&, const T2&)
    model.o(i._ZN6TModel11get_mb_addrEv) refers to model.o(t._ZN6TModel11access_protIhU8__packedhEEvRT_RKT0_) for _ZN6TModel11access_protIhU8__packedhEEvRT_RKT0_
    model.o(i._ZN6TModel11set_accel_zEf) refers to model.o(t._ZN6TModel11access_protIU8__packedffEEvRT_RKT0_) for _ZN6TModel11access_protIU8__packedffEEvRT_RKT0_
    model.o(i._ZN6TModel11set_code_swEh) refers to model.o(t._ZN6TModel11access_protIU8__packedhhEEvRT_RKT0_) for _ZN6TModel11access_protIU8__packedhhEEvRT_RKT0_
    model.o(i._ZN6TModel11set_connectEN9TSettings8TConnectE) refers to model.o(t._ZN6TModel11access_protIN9TSettings6TStateES2_EEvRT_RKT0_) for void TModel::access_prot<TSettings::TState, TSettings::TState>(T1&, const T2&)
    model.o(i._ZN6TModel11set_hc_memsEN9TSettings10TMainStateE) refers to model.o(t._ZN6TModel11access_protIN9TSettings6TStateES2_EEvRT_RKT0_) for void TModel::access_prot<TSettings::TState, TSettings::TState>(T1&, const T2&)
    model.o(i._ZN6TModel11set_if_setsERK3TIf) refers to model.o(t._ZN6TModel11access_protI3TIfS1_EEvRT_RKT0_) for void TModel::access_prot<TIf, TIf>(T1&, const T2&)
    model.o(i._ZN6TModel11set_if_setsERK3TIf) refers to model.o(i._ZN6TModel14set_flash_dataEv) for TModel::set_flash_data()
    model.o(i._ZN6TModel11set_mb_addrEs) refers to settings.o(i._ZNK9TSettings11chk_mb_addrEs) for TSettings::chk_mb_addr(short) const
    model.o(i._ZN6TModel11set_mb_addrEs) refers to model.o(i._ZN6TModel11get_mb_addrEv) for TModel::get_mb_addr()
    model.o(i._ZN6TModel11set_mb_addrEs) refers to queue.o(i.xQueueGenericReceive) for xQueueGenericReceive
    model.o(i._ZN6TModel11set_mb_addrEs) refers to queue.o(i.xQueueGenericSend) for xQueueGenericSend
    model.o(i._ZN6TModel11set_mb_addrEs) refers to model.o(i._ZN6TModel14set_flash_dataEv) for TModel::set_flash_data()
    model.o(i._ZN6TModel12get_btn_modeEv) refers to queue.o(i.xQueueGenericReceive) for xQueueGenericReceive
    model.o(i._ZN6TModel12get_btn_modeEv) refers to queue.o(i.xQueueGenericSend) for xQueueGenericSend
    model.o(i._ZN6TModel12get_d_o_setsEv) refers to model.o(t._ZN6TModel11access_protI5TBitsS1_EEvRT_RKT0_) for void TModel::access_prot<TBits, TBits>(T1&, const T2&)
    model.o(i._ZN6TModel12get_dev_typeEv) refers to queue.o(i.xQueueGenericReceive) for xQueueGenericReceive
    model.o(i._ZN6TModel12get_dev_typeEv) refers to queue.o(i.xQueueGenericSend) for xQueueGenericSend
    model.o(i._ZN6TModel12get_hc_stateEv) refers to model.o(t._ZN6TModel11access_protIN9TSettings6TStateES2_EEvRT_RKT0_) for void TModel::access_prot<TSettings::TState, TSettings::TState>(T1&, const T2&)
    model.o(i._ZN6TModel12get_led_modeEv) refers to queue.o(i.xQueueGenericReceive) for xQueueGenericReceive
    model.o(i._ZN6TModel12get_led_modeEv) refers to queue.o(i.xQueueGenericSend) for xQueueGenericSend
    model.o(i._ZN6TModel12get_my_angleEv) refers to model.o(t._ZN6TModel11access_protIsU8__packedsEEvRT_RKT0_) for _ZN6TModel11access_protIsU8__packedsEEvRT_RKT0_
    model.o(i._ZN6TModel12get_raw_rollEv) refers to model.o(t._ZN6TModel11access_protIaU8__packedaEEvRT_RKT0_) for _ZN6TModel11access_protIaU8__packedaEEvRT_RKT0_
    model.o(i._ZN6TModel12set_btn_modeEN9TSettings6TPressE) refers to queue.o(i.xQueueGenericReceive) for xQueueGenericReceive
    model.o(i._ZN6TModel12set_btn_modeEN9TSettings6TPressE) refers to queue.o(i.xQueueGenericSend) for xQueueGenericSend
    model.o(i._ZN6TModel12set_d_o_setsE8TContact) refers to model.o(t._ZN6TModel11access_protI5TBitsS1_EEvRT_RKT0_) for void TModel::access_prot<TBits, TBits>(T1&, const T2&)
    model.o(i._ZN6TModel12set_d_o_setsE8TContact) refers to model.o(i._ZN6TModel14set_flash_dataEv) for TModel::set_flash_data()
    model.o(i._ZN6TModel12set_hc_stateEN9TSettings3THCE) refers to model.o(t._ZN6TModel11access_protIN9TSettings6TStateES2_EEvRT_RKT0_) for void TModel::access_prot<TSettings::TState, TSettings::TState>(T1&, const T2&)
    model.o(i._ZN6TModel12set_led_modeEN9TSettings8TLedModeE) refers to queue.o(i.xQueueGenericReceive) for xQueueGenericReceive
    model.o(i._ZN6TModel12set_led_modeEN9TSettings8TLedModeE) refers to queue.o(i.xQueueGenericSend) for xQueueGenericSend
    model.o(i._ZN6TModel12set_my_angleEs) refers to model.o(t._ZN6TModel11access_protIU8__packedssEEvRT_RKT0_) for _ZN6TModel11access_protIU8__packedssEEvRT_RKT0_
    model.o(i._ZN6TModel12set_raw_rollEa) refers to model.o(t._ZN6TModel11access_protIU8__packedaaEEvRT_RKT0_) for _ZN6TModel11access_protIU8__packedaaEEvRT_RKT0_
    model.o(i._ZN6TModel13get_acc_calibEv) refers to model.o(i._ZN6TModel20get_accel_calib_signEv) for TModel::get_accel_calib_sign()
    model.o(i._ZN6TModel13get_acc_calibEv) refers to model.o(i._ZN6TModel13set_acc_calibEN9TSettings6TCalibE) for TModel::set_acc_calib(TSettings::TCalib)
    model.o(i._ZN6TModel13get_base_memsEv) refers to model.o(t._ZN6TModel11access_protIN9TSettings6TStateES2_EEvRT_RKT0_) for void TModel::access_prot<TSettings::TState, TSettings::TState>(T1&, const T2&)
    model.o(i._ZN6TModel13get_dev_stateEv) refers to model.o(t._ZN6TModel11access_protIN9TSettings6TStateES2_EEvRT_RKT0_) for void TModel::access_prot<TSettings::TState, TSettings::TState>(T1&, const T2&)
    model.o(i._ZN6TModel13get_interconnEv) refers to model.o(t._ZN6TModel11access_protI5TBitsS1_EEvRT_RKT0_) for void TModel::access_prot<TBits, TBits>(T1&, const T2&)
    model.o(i._ZN6TModel13get_psw_adminEv) refers to model.o(t._ZN6TModel11access_protIfU8__packedfEEvRT_RKT0_) for _ZN6TModel11access_protIfU8__packedfEEvRT_RKT0_
    model.o(i._ZN6TModel13get_psw_superEv) refers to model.o(t._ZN6TModel11access_protIfU8__packedfEEvRT_RKT0_) for _ZN6TModel11access_protIfU8__packedfEEvRT_RKT0_
    model.o(i._ZN6TModel13get_raw_pitchEv) refers to model.o(t._ZN6TModel11access_protIaU8__packedaEEvRT_RKT0_) for _ZN6TModel11access_protIaU8__packedaEEvRT_RKT0_
    model.o(i._ZN6TModel13get_sens_addrEv) refers to model.o(t._ZN6TModel11access_protIhU8__packedhEEvRT_RKT0_) for _ZN6TModel11access_protIhU8__packedhEEvRT_RKT0_
    model.o(i._ZN6TModel13handler_calibEsPb) refers to model.o(i._ZN6TModel17get_calib_processEv) for TModel::get_calib_process()
    model.o(i._ZN6TModel13set_acc_calibEN9TSettings6TCalibE) refers to model.o(t._ZN6TModel11access_protIN9TSettings6TStateES2_EEvRT_RKT0_) for void TModel::access_prot<TSettings::TState, TSettings::TState>(T1&, const T2&)
    model.o(i._ZN6TModel13set_base_memsEN9TSettings10TMainStateE) refers to model.o(t._ZN6TModel11access_protIN9TSettings6TStateES2_EEvRT_RKT0_) for void TModel::access_prot<TSettings::TState, TSettings::TState>(T1&, const T2&)
    model.o(i._ZN6TModel13set_calib_cmdEt) refers to memcpya.o(.text) for __aeabi_memcpy4
    model.o(i._ZN6TModel13set_calib_cmdEt) refers to model.o(i._ZN6TModel17set_calib_processEN9TSettings13TCalibProcessE) for TModel::set_calib_process(TSettings::TCalibProcess)
    model.o(i._ZN6TModel13set_calib_cmdEt) refers to model.o(.constdata) for .constdata
    model.o(i._ZN6TModel13set_interconnE10TInterconn) refers to model.o(t._ZN6TModel11access_protI5TBitsS1_EEvRT_RKT0_) for void TModel::access_prot<TBits, TBits>(T1&, const T2&)
    model.o(i._ZN6TModel13set_interconnE10TInterconn) refers to model.o(i._ZN6TModel14set_flash_dataEv) for TModel::set_flash_data()
    model.o(i._ZN6TModel13set_psw_adminEf) refers to model.o(i._ZN6TModel13get_psw_adminEv) for TModel::get_psw_admin()
    model.o(i._ZN6TModel13set_psw_adminEf) refers to model.o(t._ZN6TModel11access_protIU8__packedffEEvRT_RKT0_) for _ZN6TModel11access_protIU8__packedffEEvRT_RKT0_
    model.o(i._ZN6TModel13set_psw_adminEf) refers to model.o(i._ZN6TModel14set_flash_dataEv) for TModel::set_flash_data()
    model.o(i._ZN6TModel13set_psw_superEf) refers to model.o(i._ZN6TModel13get_psw_superEv) for TModel::get_psw_super()
    model.o(i._ZN6TModel13set_psw_superEf) refers to model.o(t._ZN6TModel11access_protIU8__packedffEEvRT_RKT0_) for _ZN6TModel11access_protIU8__packedffEEvRT_RKT0_
    model.o(i._ZN6TModel13set_psw_superEf) refers to model.o(i._ZN6TModel14set_flash_dataEv) for TModel::set_flash_data()
    model.o(i._ZN6TModel13set_raw_pitchEa) refers to model.o(t._ZN6TModel11access_protIU8__packedaaEEvRT_RKT0_) for _ZN6TModel11access_protIU8__packedaaEEvRT_RKT0_
    model.o(i._ZN6TModel13set_sens_addrERKh) refers to model.o(t._ZN6TModel11access_protIU8__packedhhEEvRT_RKT0_) for _ZN6TModel11access_protIU8__packedhhEEvRT_RKT0_
    model.o(i._ZN6TModel13set_sens_addrERKh) refers to model.o(i._ZN6TModel14set_flash_dataEv) for TModel::set_flash_data()
    model.o(i._ZN6TModel14get_flash_dataERN9TSettings10TFlashDataE) refers to model.o(t._ZN6TModel11access_protIN9TSettings10TFlashDataES2_EEvRT_RKT0_) for void TModel::access_prot<TSettings::TFlashData, TSettings::TFlashData>(T1&, const T2&)
    model.o(i._ZN6TModel14get_hc_code_swEv) refers to model.o(t._ZN6TModel11access_protIhU8__packedhEEvRT_RKT0_) for _ZN6TModel11access_protIhU8__packedhEEvRT_RKT0_
    model.o(i._ZN6TModel14get_hc_pos_errEv) refers to model.o(t._ZN6TModel11access_protIN9TSettings6TStateES2_EEvRT_RKT0_) for void TModel::access_prot<TSettings::TState, TSettings::TState>(T1&, const T2&)
    model.o(i._ZN6TModel14get_open_angleEv) refers to model.o(t._ZN6TModel11access_protIfU8__packedfEEvRT_RKT0_) for _ZN6TModel11access_protIfU8__packedfEEvRT_RKT0_
    model.o(i._ZN6TModel14get_sens_angleEv) refers to model.o(t._ZN6TModel11access_protIsU8__packedsEEvRT_RKT0_) for _ZN6TModel11access_protIsU8__packedsEEvRT_RKT0_
    model.o(i._ZN6TModel14handler_accessEsPb) refers to model.o(i._ZN6TModel22set_authorize_item_ptrEPKNS_10TAuthorizeE) for TModel::set_authorize_item_ptr(const TModel::TAuthorize*)
    model.o(i._ZN6TModel14handler_accessEsPb) refers to model.o(i._ZN6TModel17set_calib_processEN9TSettings13TCalibProcessE) for TModel::set_calib_process(TSettings::TCalibProcess)
    model.o(i._ZN6TModel14handler_accessEsPb) refers to model.o(i._ZN6TModel10set_accessEN9TSettings7TAccessE) for TModel::set_access(TSettings::TAccess)
    model.o(i._ZN6TModel14set_flash_dataEv) refers to model.o(t._ZN6TModel11access_protIN9TSettings10TFlashDataES2_EEvRT_RKT0_) for void TModel::access_prot<TSettings::TFlashData, TSettings::TFlashData>(T1&, const T2&)
    model.o(i._ZN6TModel14set_flash_dataEv) refers to flash_driver.o(i._ZN6TFlash10write_setsEPKht) for TFlash::write_sets(const unsigned char*, unsigned short)
    model.o(i._ZN6TModel14set_flash_dataEv) refers to flash_driver.o(.data) for Flash
    model.o(i._ZN6TModel14set_hc_code_swEh) refers to model.o(t._ZN6TModel11access_protIU8__packedhhEEvRT_RKT0_) for _ZN6TModel11access_protIU8__packedhhEEvRT_RKT0_
    model.o(i._ZN6TModel14set_hc_pos_errEN9TSettings7TPosErrE) refers to model.o(t._ZN6TModel11access_protIN9TSettings6TStateES2_EEvRT_RKT0_) for void TModel::access_prot<TSettings::TState, TSettings::TState>(T1&, const T2&)
    model.o(i._ZN6TModel14set_open_angleEf) refers to model.o(t._ZN6TModel11access_protIU8__packedffEEvRT_RKT0_) for _ZN6TModel11access_protIU8__packedffEEvRT_RKT0_
    model.o(i._ZN6TModel14set_sens_angleEs) refers to model.o(t._ZN6TModel11access_protIU8__packedssEEvRT_RKT0_) for _ZN6TModel11access_protIU8__packedssEEvRT_RKT0_
    model.o(i._ZN6TModel15get_axis_rotateEv) refers to model.o(t._ZN6TModel11access_protIhU8__packedhEEvRT_RKT0_) for _ZN6TModel11access_protIhU8__packedhEEvRT_RKT0_
    model.o(i._ZN6TModel15get_hc_prog_nbrEv) refers to queue.o(i.xQueueGenericReceive) for xQueueGenericReceive
    model.o(i._ZN6TModel15get_hc_prog_nbrEv) refers to queue.o(i.xQueueGenericSend) for xQueueGenericSend
    model.o(i._ZN6TModel15get_pd_pressureEv) refers to model.o(t._ZN6TModel11access_protIfU8__packedfEEvRT_RKT0_) for _ZN6TModel11access_protIfU8__packedfEEvRT_RKT0_
    model.o(i._ZN6TModel15get_u_baud_rateEv) refers to model.o(t._ZN6TModel11access_protIhU8__packedhEEvRT_RKT0_) for _ZN6TModel11access_protIhU8__packedhEEvRT_RKT0_
    model.o(i._ZN6TModel15set_axis_rotateEh) refers to settings.o(i._ZNK9TSettings15chk_axis_rotateEs) for TSettings::chk_axis_rotate(short) const
    model.o(i._ZN6TModel15set_axis_rotateEh) refers to model.o(i._ZN6TModel15get_axis_rotateEv) for TModel::get_axis_rotate()
    model.o(i._ZN6TModel15set_axis_rotateEh) refers to model.o(t._ZN6TModel11access_protIU8__packedhhEEvRT_RKT0_) for _ZN6TModel11access_protIU8__packedhhEEvRT_RKT0_
    model.o(i._ZN6TModel15set_axis_rotateEh) refers to model.o(i._ZN6TModel14set_flash_dataEv) for TModel::set_flash_data()
    model.o(i._ZN6TModel15set_hc_prog_nbrEt) refers to queue.o(i.xQueueGenericReceive) for xQueueGenericReceive
    model.o(i._ZN6TModel15set_hc_prog_nbrEt) refers to queue.o(i.xQueueGenericSend) for xQueueGenericSend
    model.o(i._ZN6TModel15set_pd_pressureEf) refers to model.o(i._ZN6TModel13get_psw_adminEv) for TModel::get_psw_admin()
    model.o(i._ZN6TModel15set_pd_pressureEf) refers to model.o(t._ZN6TModel11access_protIU8__packedffEEvRT_RKT0_) for _ZN6TModel11access_protIU8__packedffEEvRT_RKT0_
    model.o(i._ZN6TModel15set_pd_pressureEf) refers to model.o(i._ZN6TModel14set_flash_dataEv) for TModel::set_flash_data()
    model.o(i._ZN6TModel15set_u_baud_rateEh) refers to settings.o(i._ZNK9TSettings15chk_u_baud_rateEs) for TSettings::chk_u_baud_rate(short) const
    model.o(i._ZN6TModel15set_u_baud_rateEh) refers to model.o(i._ZN6TModel15get_u_baud_rateEv) for TModel::get_u_baud_rate()
    model.o(i._ZN6TModel15set_u_baud_rateEh) refers to model.o(t._ZN6TModel11access_protIU8__packedhhEEvRT_RKT0_) for _ZN6TModel11access_protIU8__packedhhEEvRT_RKT0_
    model.o(i._ZN6TModel15set_u_baud_rateEh) refers to model.o(i._ZN6TModel14set_flash_dataEv) for TModel::set_flash_data()
    model.o(i._ZN6TModel16get_base_pos_errEv) refers to model.o(t._ZN6TModel11access_protIN9TSettings6TStateES2_EEvRT_RKT0_) for void TModel::access_prot<TSettings::TState, TSettings::TState>(T1&, const T2&)
    model.o(i._ZN6TModel16get_hc_acc_calibEv) refers to model.o(t._ZN6TModel11access_protIN9TSettings6TStateES2_EEvRT_RKT0_) for void TModel::access_prot<TSettings::TState, TSettings::TState>(T1&, const T2&)
    model.o(i._ZN6TModel16set_base_pos_errEN9TSettings7TPosErrE) refers to model.o(t._ZN6TModel11access_protIN9TSettings6TStateES2_EEvRT_RKT0_) for void TModel::access_prot<TSettings::TState, TSettings::TState>(T1&, const T2&)
    model.o(i._ZN6TModel16set_hc_acc_calibEN9TSettings6TCalibE) refers to model.o(t._ZN6TModel11access_protIN9TSettings6TStateES2_EEvRT_RKT0_) for void TModel::access_prot<TSettings::TState, TSettings::TState>(T1&, const T2&)
    model.o(i._ZN6TModel17get_calib_processEv) refers to queue.o(i.xQueueGenericReceive) for xQueueGenericReceive
    model.o(i._ZN6TModel17get_calib_processEv) refers to queue.o(i.xQueueGenericSend) for xQueueGenericSend
    model.o(i._ZN6TModel17get_transact_signERh) refers to model.o(t._ZN6TModel11access_protIhU8__packedhEEvRT_RKT0_) for _ZN6TModel11access_protIhU8__packedhEEvRT_RKT0_
    model.o(i._ZN6TModel17set_calib_processEN9TSettings13TCalibProcessE) refers to queue.o(i.xQueueGenericReceive) for xQueueGenericReceive
    model.o(i._ZN6TModel17set_calib_processEN9TSettings13TCalibProcessE) refers to queue.o(i.xQueueGenericSend) for xQueueGenericSend
    model.o(i._ZN6TModel17set_transact_signERKh) refers to model.o(t._ZN6TModel11access_protIU8__packedhhEEvRT_RKT0_) for _ZN6TModel11access_protIU8__packedhhEEvRT_RKT0_
    model.o(i._ZN6TModel18get_boot_mode_flagEv) refers to queue.o(i.xQueueGenericReceive) for xQueueGenericReceive
    model.o(i._ZN6TModel18get_boot_mode_flagEv) refers to queue.o(i.xQueueGenericSend) for xQueueGenericSend
    model.o(i._ZN6TModel18get_start_meas_cmdEv) refers to model.o(i._ZN6TModel20get_communicate_byteEv) for TModel::get_communicate_byte()
    model.o(i._ZN6TModel18set_boot_mode_flagEN9TSettings13TBootModeFlagE) refers to queue.o(i.xQueueGenericReceive) for xQueueGenericReceive
    model.o(i._ZN6TModel18set_boot_mode_flagEN9TSettings13TBootModeFlagE) refers to queue.o(i.xQueueGenericSend) for xQueueGenericSend
    model.o(i._ZN6TModel18set_boot_mode_flagEN9TSettings13TBootModeFlagE) refers to model.o(i._ZN6TModel14set_flash_dataEv) for TModel::set_flash_data()
    model.o(i._ZN6TModel18set_start_meas_cmdEN9TSettings5TMeasE) refers to model.o(i._ZN6TModel20get_communicate_byteEv) for TModel::get_communicate_byte()
    model.o(i._ZN6TModel18set_start_meas_cmdEN9TSettings5TMeasE) refers to model.o(t._ZN6TModel11access_protIN9TSettings12TCommunicateES2_EEvRT_RKT0_) for void TModel::access_prot<TSettings::TCommunicate, TSettings::TCommunicate>(T1&, const T2&)
    model.o(i._ZN6TModel19get_calib_parameterEv) refers to model.o(t._ZN6TModel11access_protIfU8__packedfEEvRT_RKT0_) for _ZN6TModel11access_protIfU8__packedfEEvRT_RKT0_
    model.o(i._ZN6TModel19get_flash_prog_signEv) refers to queue.o(i.xQueueGenericReceive) for xQueueGenericReceive
    model.o(i._ZN6TModel19get_flash_prog_signEv) refers to queue.o(i.xQueueGenericSend) for xQueueGenericSend
    model.o(i._ZN6TModel19get_roll_bias_angleEv) refers to model.o(t._ZN6TModel11access_protIaU8__packedaEEvRT_RKT0_) for _ZN6TModel11access_protIaU8__packedaEEvRT_RKT0_
    model.o(i._ZN6TModel19set_calib_parameterEf) refers to model.o(t._ZN6TModel11access_protIU8__packedffEEvRT_RKT0_) for _ZN6TModel11access_protIU8__packedffEEvRT_RKT0_
    model.o(i._ZN6TModel19set_flash_prog_signERKN9TSettings12TIsFlashProgE) refers to queue.o(i.xQueueGenericReceive) for xQueueGenericReceive
    model.o(i._ZN6TModel19set_flash_prog_signERKN9TSettings12TIsFlashProgE) refers to queue.o(i.xQueueGenericSend) for xQueueGenericSend
    model.o(i._ZN6TModel19set_flash_prog_signERKN9TSettings12TIsFlashProgE) refers to model.o(i._ZN6TModel14set_flash_dataEv) for TModel::set_flash_data()
    model.o(i._ZN6TModel19set_roll_bias_angleEa) refers to settings.o(i._ZNK9TSettings19chk_roll_bias_angleEs) for TSettings::chk_roll_bias_angle(short) const
    model.o(i._ZN6TModel19set_roll_bias_angleEa) refers to model.o(i._ZN6TModel19get_roll_bias_angleEv) for TModel::get_roll_bias_angle()
    model.o(i._ZN6TModel19set_roll_bias_angleEa) refers to model.o(t._ZN6TModel11access_protIU8__packedaaEEvRT_RKT0_) for _ZN6TModel11access_protIU8__packedaaEEvRT_RKT0_
    model.o(i._ZN6TModel19set_roll_bias_angleEa) refers to model.o(i._ZN6TModel14set_flash_dataEv) for TModel::set_flash_data()
    model.o(i._ZN6TModel20get_accel_calib_dataERN9TSettings11TAccCalDataE) refers to model.o(t._ZN6TModel11access_protIN9TSettings11TAccCalDataES2_EEvRT_RKT0_) for void TModel::access_prot<TSettings::TAccCalData, TSettings::TAccCalData>(T1&, const T2&)
    model.o(i._ZN6TModel20get_accel_calib_signEv) refers to queue.o(i.xQueueGenericReceive) for xQueueGenericReceive
    model.o(i._ZN6TModel20get_accel_calib_signEv) refers to queue.o(i.xQueueGenericSend) for xQueueGenericSend
    model.o(i._ZN6TModel20get_communicate_byteEv) refers to model.o(t._ZN6TModel11access_protIN9TSettings12TCommunicateES2_EEvRT_RKT0_) for void TModel::access_prot<TSettings::TCommunicate, TSettings::TCommunicate>(T1&, const T2&)
    model.o(i._ZN6TModel20get_pitch_bias_angleEv) refers to model.o(t._ZN6TModel11access_protIaU8__packedaEEvRT_RKT0_) for _ZN6TModel11access_protIaU8__packedaEEvRT_RKT0_
    model.o(i._ZN6TModel20get_sens_axis_rotateEv) refers to model.o(t._ZN6TModel11access_protIhU8__packedhEEvRT_RKT0_) for _ZN6TModel11access_protIhU8__packedhEEvRT_RKT0_
    model.o(i._ZN6TModel20set_accel_calib_dataERKN9TSettings11TAccCalDataE) refers to model.o(t._ZN6TModel11access_protIN9TSettings11TAccCalDataES2_EEvRT_RKT0_) for void TModel::access_prot<TSettings::TAccCalData, TSettings::TAccCalData>(T1&, const T2&)
    model.o(i._ZN6TModel20set_accel_calib_dataERKN9TSettings11TAccCalDataE) refers to model.o(i._ZN6TModel14set_flash_dataEv) for TModel::set_flash_data()
    model.o(i._ZN6TModel20set_accel_calib_signERKN9TSettings11TIsAccCalibE) refers to queue.o(i.xQueueGenericReceive) for xQueueGenericReceive
    model.o(i._ZN6TModel20set_accel_calib_signERKN9TSettings11TIsAccCalibE) refers to queue.o(i.xQueueGenericSend) for xQueueGenericSend
    model.o(i._ZN6TModel20set_accel_calib_signERKN9TSettings11TIsAccCalibE) refers to model.o(i._ZN6TModel14set_flash_dataEv) for TModel::set_flash_data()
    model.o(i._ZN6TModel20set_communicate_byteEN9TSettings12TCommunicateE) refers to model.o(t._ZN6TModel11access_protIN9TSettings12TCommunicateES2_EEvRT_RKT0_) for void TModel::access_prot<TSettings::TCommunicate, TSettings::TCommunicate>(T1&, const T2&)
    model.o(i._ZN6TModel20set_pitch_bias_angleEa) refers to settings.o(i._ZNK9TSettings20chk_pitch_bias_angleEs) for TSettings::chk_pitch_bias_angle(short) const
    model.o(i._ZN6TModel20set_pitch_bias_angleEa) refers to model.o(i._ZN6TModel20get_pitch_bias_angleEv) for TModel::get_pitch_bias_angle()
    model.o(i._ZN6TModel20set_pitch_bias_angleEa) refers to model.o(t._ZN6TModel11access_protIU8__packedaaEEvRT_RKT0_) for _ZN6TModel11access_protIU8__packedaaEEvRT_RKT0_
    model.o(i._ZN6TModel20set_pitch_bias_angleEa) refers to model.o(i._ZN6TModel14set_flash_dataEv) for TModel::set_flash_data()
    model.o(i._ZN6TModel20set_sens_axis_rotateEh) refers to settings.o(i._ZNK9TSettings15chk_axis_rotateEs) for TSettings::chk_axis_rotate(short) const
    model.o(i._ZN6TModel20set_sens_axis_rotateEh) refers to model.o(i._ZN6TModel20get_sens_axis_rotateEv) for TModel::get_sens_axis_rotate()
    model.o(i._ZN6TModel20set_sens_axis_rotateEh) refers to model.o(t._ZN6TModel11access_protIU8__packedhhEEvRT_RKT0_) for _ZN6TModel11access_protIU8__packedhhEEvRT_RKT0_
    model.o(i._ZN6TModel20set_sens_axis_rotateEh) refers to model.o(i._ZN6TModel14set_flash_dataEv) for TModel::set_flash_data()
    model.o(i._ZN6TModel21get_sample_valid_signEv) refers to model.o(i._ZN6TModel20get_communicate_byteEv) for TModel::get_communicate_byte()
    model.o(i._ZN6TModel21set_sample_valid_signEN9TSettings10TValidSignE) refers to model.o(i._ZN6TModel20get_communicate_byteEv) for TModel::get_communicate_byte()
    model.o(i._ZN6TModel21set_sample_valid_signEN9TSettings10TValidSignE) refers to model.o(t._ZN6TModel11access_protIN9TSettings12TCommunicateES2_EEvRT_RKT0_) for void TModel::access_prot<TSettings::TCommunicate, TSettings::TCommunicate>(T1&, const T2&)
    model.o(i._ZN6TModel22clr_calib_position_ctrENS_11TMemsOrientE) refers to model.o(i._ZN6TModel22get_calib_position_ctrEv) for TModel::get_calib_position_ctr()
    model.o(i._ZN6TModel22clr_calib_position_ctrENS_11TMemsOrientE) refers to model.o(t._ZN6TModel11access_protIU8__packedjjEEvRT_RKT0_) for _ZN6TModel11access_protIU8__packedjjEEvRT_RKT0_
    model.o(i._ZN6TModel22get_calib_position_ctrEv) refers to queue.o(i.xQueueGenericReceive) for xQueueGenericReceive
    model.o(i._ZN6TModel22get_calib_position_ctrEv) refers to queue.o(i.xQueueGenericSend) for xQueueGenericSend
    model.o(i._ZN6TModel22set_calib_position_ctrENS_11TMemsOrientE) refers to model.o(t._ZN6TModel11access_protIU8__packedjjEEvRT_RKT0_) for _ZN6TModel11access_protIU8__packedjjEEvRT_RKT0_
    model.o(i._ZN6TModel22set_calib_position_ctrENS_11TMemsOrientE) refers to model.o(i._ZN6TModel22get_calib_position_ctrEv) for TModel::get_calib_position_ctr()
    model.o(i._ZN6TModel24get_sens_buf_axis_rotateEv) refers to model.o(t._ZN6TModel11access_protIhU8__packedhEEvRT_RKT0_) for _ZN6TModel11access_protIhU8__packedhEEvRT_RKT0_
    model.o(i._ZN6TModel24get_sens_roll_bias_angleEv) refers to model.o(t._ZN6TModel11access_protIaU8__packedaEEvRT_RKT0_) for _ZN6TModel11access_protIaU8__packedaEEvRT_RKT0_
    model.o(i._ZN6TModel24set_sens_buf_axis_rotateEh) refers to settings.o(i._ZNK9TSettings15chk_axis_rotateEs) for TSettings::chk_axis_rotate(short) const
    model.o(i._ZN6TModel24set_sens_buf_axis_rotateEh) refers to model.o(t._ZN6TModel11access_protIU8__packedhhEEvRT_RKT0_) for _ZN6TModel11access_protIU8__packedhhEEvRT_RKT0_
    model.o(i._ZN6TModel24set_sens_roll_bias_angleEa) refers to model.o(t._ZN6TModel11access_protIU8__packedaaEEvRT_RKT0_) for _ZN6TModel11access_protIU8__packedaaEEvRT_RKT0_
    model.o(i._ZN6TModel25get_sens_pitch_bias_angleEv) refers to model.o(t._ZN6TModel11access_protIaU8__packedaEEvRT_RKT0_) for _ZN6TModel11access_protIaU8__packedaEEvRT_RKT0_
    model.o(i._ZN6TModel25set_sens_pitch_bias_angleEa) refers to model.o(t._ZN6TModel11access_protIU8__packedaaEEvRT_RKT0_) for _ZN6TModel11access_protIU8__packedaaEEvRT_RKT0_
    model.o(i._ZN6TModel26get_sens_sample_valid_signEv) refers to queue.o(i.xQueueGenericReceive) for xQueueGenericReceive
    model.o(i._ZN6TModel26get_sens_sample_valid_signEv) refers to queue.o(i.xQueueGenericSend) for xQueueGenericSend
    model.o(i._ZN6TModel26get_u_baud_rate_bit_to_secEv) refers to model.o(t._ZN6TModel11access_protIhU8__packedhEEvRT_RKT0_) for _ZN6TModel11access_protIhU8__packedhEEvRT_RKT0_
    model.o(i._ZN6TModel26get_u_baud_rate_bit_to_secEv) refers to memcpya.o(.text) for __aeabi_memcpy4
    model.o(i._ZN6TModel26get_u_baud_rate_bit_to_secEv) refers to model.o(.constdata) for .constdata
    model.o(i._ZN6TModel26set_sens_sample_valid_signEN9TSettings10TValidSignE) refers to queue.o(i.xQueueGenericReceive) for xQueueGenericReceive
    model.o(i._ZN6TModel26set_sens_sample_valid_signEN9TSettings10TValidSignE) refers to queue.o(i.xQueueGenericSend) for xQueueGenericSend
    model.o(i._ZN6TModel7get_thrEv) refers to model.o(t._ZN6TModel11access_protIhU8__packedhEEvRT_RKT0_) for _ZN6TModel11access_protIhU8__packedhEEvRT_RKT0_
    model.o(i._ZN6TModel7set_thrEh) refers to settings.o(i._ZNK9TSettings7chk_thrEs) for TSettings::chk_thr(short) const
    model.o(i._ZN6TModel7set_thrEh) refers to model.o(i._ZN6TModel7get_thrEv) for TModel::get_thr()
    model.o(i._ZN6TModel7set_thrEh) refers to model.o(t._ZN6TModel11access_protIU8__packedhhEEvRT_RKT0_) for _ZN6TModel11access_protIU8__packedhhEEvRT_RKT0_
    model.o(i._ZN6TModel7set_thrEh) refers to model.o(i._ZN6TModel14set_flash_dataEv) for TModel::set_flash_data()
    model.o(i._ZN6TModel8get_biasEv) refers to model.o(t._ZN6TModel11access_protIaU8__packedaEEvRT_RKT0_) for _ZN6TModel11access_protIaU8__packedaEEvRT_RKT0_
    model.o(i._ZN6TModel8get_hystEv) refers to model.o(t._ZN6TModel11access_protIhU8__packedhEEvRT_RKT0_) for _ZN6TModel11access_protIhU8__packedhEEvRT_RKT0_
    model.o(i._ZN6TModel8get_setsER10MySettings) refers to model.o(t._ZN6TModel11access_protI10MySettingsS1_EEvRT_RKT0_) for void TModel::access_prot<MySettings, MySettings>(T1&, const T2&)
    model.o(i._ZN6TModel8set_biasEa) refers to settings.o(i._ZNK9TSettings8chk_biasEs) for TSettings::chk_bias(short) const
    model.o(i._ZN6TModel8set_biasEa) refers to model.o(i._ZN6TModel8get_biasEv) for TModel::get_bias()
    model.o(i._ZN6TModel8set_biasEa) refers to model.o(t._ZN6TModel11access_protIU8__packedaaEEvRT_RKT0_) for _ZN6TModel11access_protIU8__packedaaEEvRT_RKT0_
    model.o(i._ZN6TModel8set_biasEa) refers to model.o(i._ZN6TModel14set_flash_dataEv) for TModel::set_flash_data()
    model.o(i._ZN6TModel8set_hystEh) refers to settings.o(i._ZNK9TSettings8chk_hystEs) for TSettings::chk_hyst(short) const
    model.o(i._ZN6TModel8set_hystEh) refers to model.o(i._ZN6TModel8get_hystEv) for TModel::get_hyst()
    model.o(i._ZN6TModel8set_hystEh) refers to model.o(t._ZN6TModel11access_protIU8__packedhhEEvRT_RKT0_) for _ZN6TModel11access_protIU8__packedhhEEvRT_RKT0_
    model.o(i._ZN6TModel8set_hystEh) refers to model.o(i._ZN6TModel14set_flash_dataEv) for TModel::set_flash_data()
    model.o(i._ZN6TModel8set_setsERK10MySettings) refers to model.o(t._ZN6TModel11access_protI10MySettingsS1_EEvRT_RKT0_) for void TModel::access_prot<MySettings, MySettings>(T1&, const T2&)
    model.o(i._ZN6TModel8set_setsERK10MySettings) refers to model.o(i._ZN6TModel14set_flash_dataEv) for TModel::set_flash_data()
    model.o(i._ZN6TModel9get_u_parEv) refers to model.o(t._ZN6TModel11access_protIhU8__packedhEEvRT_RKT0_) for _ZN6TModel11access_protIhU8__packedhEEvRT_RKT0_
    model.o(i._ZN6TModel9set_u_parEh) refers to settings.o(i._ZNK9TSettings9chk_u_parEs) for TSettings::chk_u_par(short) const
    model.o(i._ZN6TModel9set_u_parEh) refers to model.o(i._ZN6TModel9get_u_parEv) for TModel::get_u_par()
    model.o(i._ZN6TModel9set_u_parEh) refers to model.o(t._ZN6TModel11access_protIU8__packedhhEEvRT_RKT0_) for _ZN6TModel11access_protIU8__packedhhEEvRT_RKT0_
    model.o(i._ZN6TModel9set_u_parEh) refers to model.o(i._ZN6TModel14set_flash_dataEv) for TModel::set_flash_data()
    model.o(i._ZN6TModelC1ERPv) refers to settings.o(i._ZN9TSettingsC1Ev) for TSettings::TSettings()
    model.o(i._ZN6TModelC1ERPv) refers to memcpya.o(.text) for __aeabi_memcpy4
    model.o(i._ZN6TModelC1ERPv) refers to flash_driver.o(i._ZN6TFlash8get_setsEPht) for TFlash::get_sets(unsigned char*, unsigned short)
    model.o(i._ZN6TModelC1ERPv) refers to flash_driver.o(i._ZN6TFlash10write_setsEPKht) for TFlash::write_sets(const unsigned char*, unsigned short)
    model.o(i._ZN6TModelC1ERPv) refers to model.o(.constdata) for <Data1>
    model.o(i._ZN6TModelC1ERPv) refers to flash_driver.o(.data) for Flash
    model.o(i._ZN6TModelD1Ev) refers to settings.o(i._ZN9TSettingsD1Ev) for TSettings::~TSettings()
    model.o(i.__sti___9_model_cpp_Model) refers to model.o(i._ZN6TModelC1ERPv) for TModel::TModel(void*&)
    model.o(i.__sti___9_model_cpp_Model) refers to aeabi_atexit.o(.text) for __aeabi_atexit
    model.o(i.__sti___9_model_cpp_Model) refers to main.o(.data) for MainMut
    model.o(i.__sti___9_model_cpp_Model) refers to model.o(.bss) for Model
    model.o(i.__sti___9_model_cpp_Model) refers to model.o(i._ZN6TModelD1Ev) for TModel::~TModel()
    model.o(.ARM.exidx) refers to model.o(i._ZN6TModelC1ERPv) for i._ZN6TModelC1ERPv
    model.o(.ARM.exidx) refers to model.o(i._ZN6TModelD1Ev) for i._ZN6TModelD1Ev
    model.o(.ARM.exidx) refers to model.o(i._ZN6TModel12get_dev_typeEv) for i._ZN6TModel12get_dev_typeEv
    model.o(.ARM.exidx) refers to model.o(i._ZN6TModel12get_btn_modeEv) for i._ZN6TModel12get_btn_modeEv
    model.o(.ARM.exidx) refers to model.o(i._ZN6TModel12set_btn_modeEN9TSettings6TPressE) for i._ZN6TModel12set_btn_modeEN9TSettings6TPressE
    model.o(.ARM.exidx) refers to model.o(i._ZN6TModel12get_led_modeEv) for i._ZN6TModel12get_led_modeEv
    model.o(.ARM.exidx) refers to model.o(i._ZN6TModel12set_led_modeEN9TSettings8TLedModeE) for i._ZN6TModel12set_led_modeEN9TSettings8TLedModeE
    model.o(.ARM.exidx) refers to model.o(i._ZN6TModel11get_code_swEv) for i._ZN6TModel11get_code_swEv
    model.o(.ARM.exidx) refers to model.o(i._ZN6TModel11set_code_swEh) for i._ZN6TModel11set_code_swEh
    model.o(.ARM.exidx) refers to model.o(i._ZN6TModel14get_hc_code_swEv) for i._ZN6TModel14get_hc_code_swEv
    model.o(.ARM.exidx) refers to model.o(i._ZN6TModel14set_hc_code_swEh) for i._ZN6TModel14set_hc_code_swEh
    model.o(.ARM.exidx) refers to model.o(i._ZN6TModel15get_hc_prog_nbrEv) for i._ZN6TModel15get_hc_prog_nbrEv
    model.o(.ARM.exidx) refers to model.o(i._ZN6TModel15set_hc_prog_nbrEt) for i._ZN6TModel15set_hc_prog_nbrEt
    model.o(.ARM.exidx) refers to model.o(i._ZN6TModel14get_open_angleEv) for i._ZN6TModel14get_open_angleEv
    model.o(.ARM.exidx) refers to model.o(i._ZN6TModel14set_open_angleEf) for i._ZN6TModel14set_open_angleEf
    model.o(.ARM.exidx) refers to model.o(i._ZN6TModel12get_hc_stateEv) for i._ZN6TModel12get_hc_stateEv
    model.o(.ARM.exidx) refers to model.o(i._ZN6TModel12set_hc_stateEN9TSettings3THCE) for i._ZN6TModel12set_hc_stateEN9TSettings3THCE
    model.o(.ARM.exidx) refers to model.o(i._ZN6TModel14get_hc_pos_errEv) for i._ZN6TModel14get_hc_pos_errEv
    model.o(.ARM.exidx) refers to model.o(i._ZN6TModel14set_hc_pos_errEN9TSettings7TPosErrE) for i._ZN6TModel14set_hc_pos_errEN9TSettings7TPosErrE
    model.o(.ARM.exidx) refers to model.o(i._ZN6TModel16get_base_pos_errEv) for i._ZN6TModel16get_base_pos_errEv
    model.o(.ARM.exidx) refers to model.o(i._ZN6TModel16set_base_pos_errEN9TSettings7TPosErrE) for i._ZN6TModel16set_base_pos_errEN9TSettings7TPosErrE
    model.o(.ARM.exidx) refers to model.o(i._ZN6TModel11get_connectEv) for i._ZN6TModel11get_connectEv
    model.o(.ARM.exidx) refers to model.o(i._ZN6TModel11set_connectEN9TSettings8TConnectE) for i._ZN6TModel11set_connectEN9TSettings8TConnectE
    model.o(.ARM.exidx) refers to model.o(i._ZN6TModel16get_hc_acc_calibEv) for i._ZN6TModel16get_hc_acc_calibEv
    model.o(.ARM.exidx) refers to model.o(i._ZN6TModel16set_hc_acc_calibEN9TSettings6TCalibE) for i._ZN6TModel16set_hc_acc_calibEN9TSettings6TCalibE
    model.o(.ARM.exidx) refers to model.o(i._ZN6TModel13set_acc_calibEN9TSettings6TCalibE) for i._ZN6TModel13set_acc_calibEN9TSettings6TCalibE
    model.o(.ARM.exidx) refers to model.o(i._ZN6TModel20get_accel_calib_signEv) for i._ZN6TModel20get_accel_calib_signEv
    model.o(.ARM.exidx) refers to model.o(i._ZN6TModel13get_acc_calibEv) for i._ZN6TModel13get_acc_calibEv
    model.o(.ARM.exidx) refers to model.o(i._ZN6TModel11get_hc_memsEv) for i._ZN6TModel11get_hc_memsEv
    model.o(.ARM.exidx) refers to model.o(i._ZN6TModel11set_hc_memsEN9TSettings10TMainStateE) for i._ZN6TModel11set_hc_memsEN9TSettings10TMainStateE
    model.o(.ARM.exidx) refers to model.o(i._ZN6TModel13get_base_memsEv) for i._ZN6TModel13get_base_memsEv
    model.o(.ARM.exidx) refers to model.o(i._ZN6TModel13set_base_memsEN9TSettings10TMainStateE) for i._ZN6TModel13set_base_memsEN9TSettings10TMainStateE
    model.o(.ARM.exidx) refers to model.o(i._ZN6TModel13get_dev_stateEv) for i._ZN6TModel13get_dev_stateEv
    model.o(.ARM.exidx) refers to model.o(i._ZN6TModel12get_my_angleEv) for i._ZN6TModel12get_my_angleEv
    model.o(.ARM.exidx) refers to model.o(i._ZN6TModel12set_my_angleEs) for i._ZN6TModel12set_my_angleEs
    model.o(.ARM.exidx) refers to model.o(i._ZN6TModel14get_sens_angleEv) for i._ZN6TModel14get_sens_angleEv
    model.o(.ARM.exidx) refers to model.o(i._ZN6TModel14set_sens_angleEs) for i._ZN6TModel14set_sens_angleEs
    model.o(.ARM.exidx) refers to model.o(i._ZN6TModel26get_sens_sample_valid_signEv) for i._ZN6TModel26get_sens_sample_valid_signEv
    model.o(.ARM.exidx) refers to model.o(i._ZN6TModel26set_sens_sample_valid_signEN9TSettings10TValidSignE) for i._ZN6TModel26set_sens_sample_valid_signEN9TSettings10TValidSignE
    model.o(.ARM.exidx) refers to model.o(i._ZN6TModel20get_sens_axis_rotateEv) for i._ZN6TModel20get_sens_axis_rotateEv
    model.o(.ARM.exidx) refers to model.o(i._ZN6TModel14set_flash_dataEv) for i._ZN6TModel14set_flash_dataEv
    model.o(.ARM.exidx) refers to model.o(i._ZN6TModel20set_sens_axis_rotateEh) for i._ZN6TModel20set_sens_axis_rotateEh
    model.o(.ARM.exidx) refers to model.o(i._ZN6TModel24get_sens_buf_axis_rotateEv) for i._ZN6TModel24get_sens_buf_axis_rotateEv
    model.o(.ARM.exidx) refers to model.o(i._ZN6TModel24set_sens_buf_axis_rotateEh) for i._ZN6TModel24set_sens_buf_axis_rotateEh
    model.o(.ARM.exidx) refers to model.o(i._ZN6TModel24get_sens_roll_bias_angleEv) for i._ZN6TModel24get_sens_roll_bias_angleEv
    model.o(.ARM.exidx) refers to model.o(i._ZN6TModel24set_sens_roll_bias_angleEa) for i._ZN6TModel24set_sens_roll_bias_angleEa
    model.o(.ARM.exidx) refers to model.o(i._ZN6TModel25get_sens_pitch_bias_angleEv) for i._ZN6TModel25get_sens_pitch_bias_angleEv
    model.o(.ARM.exidx) refers to model.o(i._ZN6TModel25set_sens_pitch_bias_angleEa) for i._ZN6TModel25set_sens_pitch_bias_angleEa
    model.o(.ARM.exidx) refers to model.o(i._ZN6TModel13get_raw_pitchEv) for i._ZN6TModel13get_raw_pitchEv
    model.o(.ARM.exidx) refers to model.o(i._ZN6TModel13set_raw_pitchEa) for i._ZN6TModel13set_raw_pitchEa
    model.o(.ARM.exidx) refers to model.o(i._ZN6TModel12get_raw_rollEv) for i._ZN6TModel12get_raw_rollEv
    model.o(.ARM.exidx) refers to model.o(i._ZN6TModel12set_raw_rollEa) for i._ZN6TModel12set_raw_rollEa
    model.o(.ARM.exidx) refers to model.o(i._ZN6TModel11get_accel_zEv) for i._ZN6TModel11get_accel_zEv
    model.o(.ARM.exidx) refers to model.o(i._ZN6TModel11set_accel_zEf) for i._ZN6TModel11set_accel_zEf
    model.o(.ARM.exidx) refers to model.o(i._ZN6TModel17get_calib_processEv) for i._ZN6TModel17get_calib_processEv
    model.o(.ARM.exidx) refers to model.o(i._ZN6TModel17set_calib_processEN9TSettings13TCalibProcessE) for i._ZN6TModel17set_calib_processEN9TSettings13TCalibProcessE
    model.o(.ARM.exidx) refers to model.o(i._ZN6TModel13set_calib_cmdEt) for i._ZN6TModel13set_calib_cmdEt
    model.o(.ARM.exidx) refers to model.o(i._ZN6TModel13handler_calibEsPb) for i._ZN6TModel13handler_calibEsPb
    model.o(.ARM.exidx) refers to model.o(i._ZN6TModel22set_authorize_item_ptrEPKNS_10TAuthorizeE) for i._ZN6TModel22set_authorize_item_ptrEPKNS_10TAuthorizeE
    model.o(.ARM.exidx) refers to model.o(i._ZN6TModel10set_accessEN9TSettings7TAccessE) for i._ZN6TModel10set_accessEN9TSettings7TAccessE
    model.o(.ARM.exidx) refers to model.o(i._ZN6TModel14handler_accessEsPb) for i._ZN6TModel14handler_accessEsPb
    model.o(.ARM.exidx) refers to model.o(i._ZN6TModel22get_calib_position_ctrEv) for i._ZN6TModel22get_calib_position_ctrEv
    model.o(.ARM.exidx) refers to model.o(i._ZN6TModel22set_calib_position_ctrENS_11TMemsOrientE) for i._ZN6TModel22set_calib_position_ctrENS_11TMemsOrientE
    model.o(.ARM.exidx) refers to model.o(i._ZN6TModel22clr_calib_position_ctrENS_11TMemsOrientE) for i._ZN6TModel22clr_calib_position_ctrENS_11TMemsOrientE
    model.o(.ARM.exidx) refers to model.o(i._ZN6TModel19get_calib_parameterEv) for i._ZN6TModel19get_calib_parameterEv
    model.o(.ARM.exidx) refers to model.o(i._ZN6TModel19set_calib_parameterEf) for i._ZN6TModel19set_calib_parameterEf
    model.o(.ARM.exidx) refers to model.o(i._ZN6TModel17get_transact_signERh) for i._ZN6TModel17get_transact_signERh
    model.o(.ARM.exidx) refers to model.o(i._ZN6TModel17set_transact_signERKh) for i._ZN6TModel17set_transact_signERKh
    model.o(.ARM.exidx) refers to model.o(i._ZN6TModel10get_accessEv) for i._ZN6TModel10get_accessEv
    model.o(.ARM.exidx) refers to model.o(i._ZN6TModel22get_authorize_item_ptrEv) for i._ZN6TModel22get_authorize_item_ptrEv
    model.o(.ARM.exidx) refers to model.o(i._ZN6TModel20get_communicate_byteEv) for i._ZN6TModel20get_communicate_byteEv
    model.o(.ARM.exidx) refers to model.o(i._ZN6TModel20set_communicate_byteEN9TSettings12TCommunicateE) for i._ZN6TModel20set_communicate_byteEN9TSettings12TCommunicateE
    model.o(.ARM.exidx) refers to model.o(i._ZN6TModel21get_sample_valid_signEv) for i._ZN6TModel21get_sample_valid_signEv
    model.o(.ARM.exidx) refers to model.o(i._ZN6TModel21set_sample_valid_signEN9TSettings10TValidSignE) for i._ZN6TModel21set_sample_valid_signEN9TSettings10TValidSignE
    model.o(.ARM.exidx) refers to model.o(i._ZN6TModel18get_start_meas_cmdEv) for i._ZN6TModel18get_start_meas_cmdEv
    model.o(.ARM.exidx) refers to model.o(i._ZN6TModel18set_start_meas_cmdEN9TSettings5TMeasE) for i._ZN6TModel18set_start_meas_cmdEN9TSettings5TMeasE
    model.o(.ARM.exidx) refers to model.o(i._ZN6TModel18get_boot_mode_flagEv) for i._ZN6TModel18get_boot_mode_flagEv
    model.o(.ARM.exidx) refers to model.o(i._ZN6TModel18set_boot_mode_flagEN9TSettings13TBootModeFlagE) for i._ZN6TModel18set_boot_mode_flagEN9TSettings13TBootModeFlagE
    model.o(.ARM.exidx) refers to model.o(i._ZN6TModel19get_flash_prog_signEv) for i._ZN6TModel19get_flash_prog_signEv
    model.o(.ARM.exidx) refers to model.o(i._ZN6TModel19set_flash_prog_signERKN9TSettings12TIsFlashProgE) for i._ZN6TModel19set_flash_prog_signERKN9TSettings12TIsFlashProgE
    model.o(.ARM.exidx) refers to model.o(i._ZN6TModel20set_accel_calib_signERKN9TSettings11TIsAccCalibE) for i._ZN6TModel20set_accel_calib_signERKN9TSettings11TIsAccCalibE
    model.o(.ARM.exidx) refers to model.o(i._ZN6TModel13get_sens_addrEv) for i._ZN6TModel13get_sens_addrEv
    model.o(.ARM.exidx) refers to model.o(i._ZN6TModel13set_sens_addrERKh) for i._ZN6TModel13set_sens_addrERKh
    model.o(.ARM.exidx) refers to model.o(i._ZN6TModel13get_psw_adminEv) for i._ZN6TModel13get_psw_adminEv
    model.o(.ARM.exidx) refers to model.o(i._ZN6TModel13set_psw_adminEf) for i._ZN6TModel13set_psw_adminEf
    model.o(.ARM.exidx) refers to model.o(i._ZN6TModel13get_psw_superEv) for i._ZN6TModel13get_psw_superEv
    model.o(.ARM.exidx) refers to model.o(i._ZN6TModel13set_psw_superEf) for i._ZN6TModel13set_psw_superEf
    model.o(.ARM.exidx) refers to model.o(i._ZN6TModel7get_thrEv) for i._ZN6TModel7get_thrEv
    model.o(.ARM.exidx) refers to model.o(i._ZN6TModel7set_thrEh) for i._ZN6TModel7set_thrEh
    model.o(.ARM.exidx) refers to model.o(i._ZN6TModel8get_hystEv) for i._ZN6TModel8get_hystEv
    model.o(.ARM.exidx) refers to model.o(i._ZN6TModel8set_hystEh) for i._ZN6TModel8set_hystEh
    model.o(.ARM.exidx) refers to model.o(i._ZN6TModel8get_biasEv) for i._ZN6TModel8get_biasEv
    model.o(.ARM.exidx) refers to model.o(i._ZN6TModel8set_biasEa) for i._ZN6TModel8set_biasEa
    model.o(.ARM.exidx) refers to model.o(i._ZN6TModel15get_axis_rotateEv) for i._ZN6TModel15get_axis_rotateEv
    model.o(.ARM.exidx) refers to model.o(i._ZN6TModel15set_axis_rotateEh) for i._ZN6TModel15set_axis_rotateEh
    model.o(.ARM.exidx) refers to model.o(i._ZN6TModel19get_roll_bias_angleEv) for i._ZN6TModel19get_roll_bias_angleEv
    model.o(.ARM.exidx) refers to model.o(i._ZN6TModel19set_roll_bias_angleEa) for i._ZN6TModel19set_roll_bias_angleEa
    model.o(.ARM.exidx) refers to model.o(i._ZN6TModel20get_pitch_bias_angleEv) for i._ZN6TModel20get_pitch_bias_angleEv
    model.o(.ARM.exidx) refers to model.o(i._ZN6TModel20set_pitch_bias_angleEa) for i._ZN6TModel20set_pitch_bias_angleEa
    model.o(.ARM.exidx) refers to model.o(i._ZN6TModel12get_d_o_setsEv) for i._ZN6TModel12get_d_o_setsEv
    model.o(.ARM.exidx) refers to model.o(i._ZN6TModel12set_d_o_setsE8TContact) for i._ZN6TModel12set_d_o_setsE8TContact
    model.o(.ARM.exidx) refers to model.o(i._ZN6TModel13get_interconnEv) for i._ZN6TModel13get_interconnEv
    model.o(.ARM.exidx) refers to model.o(i._ZN6TModel13set_interconnE10TInterconn) for i._ZN6TModel13set_interconnE10TInterconn
    model.o(.ARM.exidx) refers to model.o(i._ZN6TModel11get_mb_addrEv) for i._ZN6TModel11get_mb_addrEv
    model.o(.ARM.exidx) refers to model.o(i._ZN6TModel11set_mb_addrEs) for i._ZN6TModel11set_mb_addrEs
    model.o(.ARM.exidx) refers to model.o(i._ZN6TModel15get_u_baud_rateEv) for i._ZN6TModel15get_u_baud_rateEv
    model.o(.ARM.exidx) refers to model.o(i._ZN6TModel15set_u_baud_rateEh) for i._ZN6TModel15set_u_baud_rateEh
    model.o(.ARM.exidx) refers to model.o(i._ZN6TModel26get_u_baud_rate_bit_to_secEv) for i._ZN6TModel26get_u_baud_rate_bit_to_secEv
    model.o(.ARM.exidx) refers to model.o(i._ZN6TModel9get_u_parEv) for i._ZN6TModel9get_u_parEv
    model.o(.ARM.exidx) refers to model.o(i._ZN6TModel9set_u_parEh) for i._ZN6TModel9set_u_parEh
    model.o(.ARM.exidx) refers to model.o(i._ZN6TModel8get_setsER10MySettings) for i._ZN6TModel8get_setsER10MySettings
    model.o(.ARM.exidx) refers to model.o(i._ZN6TModel8set_setsERK10MySettings) for i._ZN6TModel8set_setsERK10MySettings
    model.o(.ARM.exidx) refers to model.o(i._ZN6TModel11get_if_setsER3TIf) for i._ZN6TModel11get_if_setsER3TIf
    model.o(.ARM.exidx) refers to model.o(i._ZN6TModel11set_if_setsERK3TIf) for i._ZN6TModel11set_if_setsERK3TIf
    model.o(.ARM.exidx) refers to model.o(i._ZN6TModel20get_accel_calib_dataERN9TSettings11TAccCalDataE) for i._ZN6TModel20get_accel_calib_dataERN9TSettings11TAccCalDataE
    model.o(.ARM.exidx) refers to model.o(i._ZN6TModel20set_accel_calib_dataERKN9TSettings11TAccCalDataE) for i._ZN6TModel20set_accel_calib_dataERKN9TSettings11TAccCalDataE
    model.o(.ARM.exidx) refers to model.o(i._ZN6TModel14get_flash_dataERN9TSettings10TFlashDataE) for i._ZN6TModel14get_flash_dataERN9TSettings10TFlashDataE
    model.o(.ARM.exidx) refers to model.o(i._ZN6TModel15get_pd_pressureEv) for i._ZN6TModel15get_pd_pressureEv
    model.o(.ARM.exidx) refers to model.o(i._ZN6TModel15set_pd_pressureEf) for i._ZN6TModel15set_pd_pressureEf
    model.o(.ARM.exidx) refers to model.o(i.__sti___9_model_cpp_Model) for i.__sti___9_model_cpp_Model
    model.o(.constdata) refers to model.o(i._ZN6TModel13get_psw_adminEv) for TModel::get_psw_admin()
    model.o(.constdata) refers to model.o(i._ZN6TModel13get_psw_superEv) for TModel::get_psw_super()
    model.o(.constdata) refers to settings.o(i._ZNK9TSettings9chk_calibEs) for TSettings::chk_calib(short) const
    model.o(.constdata) refers to model.o(i._ZN6TModel13handler_calibEsPb) for TModel::handler_calib(short, bool*)
    model.o(.constdata) refers to settings.o(i._ZNK9TSettings10chk_accessEs) for TSettings::chk_access(short) const
    model.o(.constdata) refers to model.o(i._ZN6TModel14handler_accessEsPb) for TModel::handler_access(short, bool*)
    model.o(.init_array) refers to model.o(i.__sti___9_model_cpp_Model) for __sti___9_model_cpp_Model
    model.o(.init_array) refers to cpp_init.o(.text) for __cpp_initialize__aeabi_
    flash_driver.o(i.FLASH_IRQHandler) refers to flash_driver.o(.data) for FLASH_IRQHandler::Ctr
    flash_driver.o(i.TIM6_DAC_IRQHandler) refers to flash_driver.o(.data) for FlashTmrTrig
    flash_driver.o(i._ZN6TFlash10write_dataEPKh) refers to old_flash_lib.o(i._Z15FLASH_GetStatusv) for FLASH_GetStatus()
    flash_driver.o(i._ZN6TFlash10write_dataEPKh) refers to flash_driver.o(i._ZNK6TFlash10erase_pageEj) for TFlash::erase_page(unsigned) const
    flash_driver.o(i._ZN6TFlash10write_dataEPKh) refers to flash_driver.o(i._ZNK6TFlash10write_pageEPKhtj) for TFlash::write_page(const unsigned char*, unsigned short, unsigned) const
    flash_driver.o(i._ZN6TFlash10write_setsEPKht) refers to old_flash_lib.o(i._Z15FLASH_GetStatusv) for FLASH_GetStatus()
    flash_driver.o(i._ZN6TFlash10write_setsEPKht) refers to flash_driver.o(i._ZNK6TFlash10erase_pageEj) for TFlash::erase_page(unsigned) const
    flash_driver.o(i._ZN6TFlash10write_setsEPKht) refers to flash_driver.o(i._ZNK6TFlash10write_pageEPKhtj) for TFlash::write_page(const unsigned char*, unsigned short, unsigned) const
    flash_driver.o(i._ZN6TFlash8init_tmrEv) refers to stm32l4xx_ll_rcc.o(i.LL_RCC_GetSystemClocksFreq) for LL_RCC_GetSystemClocksFreq
    flash_driver.o(i._ZN6TFlash8init_tmrEv) refers to stm32l4xx_ll_tim.o(i.LL_TIM_Init) for LL_TIM_Init
    flash_driver.o(i._ZN6TFlash8init_tmrEv) refers to flash_driver.o(i._ZN38_INTERNAL_16_Flash_driver_cpp_d50a58b423LL_TIM_ClearFlag_UPDATEEP11TIM_TypeDef) for [local to Flash_driver_cpp]::LL_TIM_ClearFlag_UPDATE(TIM_TypeDef*)
    flash_driver.o(i._ZN6TFlashC1Ev) refers to flash_driver.o(i._ZN6TFlash8init_tmrEv) for TFlash::init_tmr()
    flash_driver.o(i._ZNK6TFlash10erase_pageEj) refers to old_flash_lib.o(i._Z12FLASH_Unlockv) for FLASH_Unlock()
    flash_driver.o(i._ZNK6TFlash10erase_pageEj) refers to flash_driver.o(i._ZNK6TFlash15clear_all_errorEv) for TFlash::clear_all_error() const
    flash_driver.o(i._ZNK6TFlash10erase_pageEj) refers to old_flash_lib.o(i._Z15FLASH_GetStatusv) for FLASH_GetStatus()
    flash_driver.o(i._ZNK6TFlash10erase_pageEj) refers to old_flash_lib.o(i._Z10FLASH_Lockv) for FLASH_Lock()
    flash_driver.o(i._ZNK6TFlash10write_pageEPKhtj) refers to old_flash_lib.o(i._Z12FLASH_Unlockv) for FLASH_Unlock()
    flash_driver.o(i._ZNK6TFlash10write_pageEPKhtj) refers to flash_driver.o(i._ZNK6TFlash4progEPKjjj) for TFlash::prog(const unsigned*, unsigned, unsigned) const
    flash_driver.o(i._ZNK6TFlash10write_pageEPKhtj) refers to old_flash_lib.o(i._Z10FLASH_Lockv) for FLASH_Lock()
    flash_driver.o(i._ZNK6TFlash4progEPKjjj) refers to flash_driver.o(i._ZNK6TFlash15clear_all_errorEv) for TFlash::clear_all_error() const
    flash_driver.o(i._ZNK6TFlash4progEPKjjj) refers to old_flash_lib.o(i._Z15FLASH_GetStatusv) for FLASH_GetStatus()
    flash_driver.o(i._ZNK6TFlash4progEPKjjj) refers to flash_driver.o(i._ZNK6TFlash9start_tmrEv) for TFlash::start_tmr() const
    flash_driver.o(i._ZNK6TFlash4progEPKjjj) refers to flash_driver.o(i._ZNK6TFlash8stop_tmrEv) for TFlash::stop_tmr() const
    flash_driver.o(i._ZNK6TFlash4progEPKjjj) refers to flash_driver.o(.data) for FlashTmrTrig
    flash_driver.o(i._ZNK6TFlash6rdp_obEv) refers to old_flash_lib.o(i._Z15FLASH_GetStatusv) for FLASH_GetStatus()
    flash_driver.o(i._ZNK6TFlash6rdp_obEv) refers to old_flash_lib.o(i._Z12FLASH_Unlockv) for FLASH_Unlock()
    flash_driver.o(i._ZNK6TFlash6rdp_obEv) refers to old_flash_lib.o(i._Z15FLASH_OB_Unlockv) for FLASH_OB_Unlock()
    flash_driver.o(i.__sti___16_Flash_driver_cpp_d50a58b4) refers to flash_driver.o(i._ZN6TFlashC1Ev) for TFlash::TFlash()
    flash_driver.o(i.__sti___16_Flash_driver_cpp_d50a58b4) refers to aeabi_atexit.o(.text) for __aeabi_atexit
    flash_driver.o(i.__sti___16_Flash_driver_cpp_d50a58b4) refers to flash_driver.o(.data) for Flash
    flash_driver.o(i.__sti___16_Flash_driver_cpp_d50a58b4) refers to flash_driver.o(i._ZN6TFlashD1Ev) for TFlash::~TFlash()
    flash_driver.o(.ARM.exidx) refers to flash_driver.o(i.FLASH_IRQHandler) for i.FLASH_IRQHandler
    flash_driver.o(.ARM.exidx) refers to flash_driver.o(i.TIM6_DAC_IRQHandler) for i.TIM6_DAC_IRQHandler
    flash_driver.o(.ARM.exidx) refers to flash_driver.o(i._ZN6TFlash8init_tmrEv) for i._ZN6TFlash8init_tmrEv
    flash_driver.o(.ARM.exidx) refers to flash_driver.o(i._ZN6TFlashC1Ev) for i._ZN6TFlashC1Ev
    flash_driver.o(.ARM.exidx) refers to flash_driver.o(i._ZN6TFlashD1Ev) for i._ZN6TFlashD1Ev
    flash_driver.o(.ARM.exidx) refers to flash_driver.o(i._ZN6TFlash8get_setsEPht) for i._ZN6TFlash8get_setsEPht
    flash_driver.o(.ARM.exidx) refers to flash_driver.o(i._ZNK6TFlash8stop_tmrEv) for i._ZNK6TFlash8stop_tmrEv
    flash_driver.o(.ARM.exidx) refers to flash_driver.o(i._ZNK6TFlash9start_tmrEv) for i._ZNK6TFlash9start_tmrEv
    flash_driver.o(.ARM.exidx) refers to flash_driver.o(i._ZNK6TFlash15clear_all_errorEv) for i._ZNK6TFlash15clear_all_errorEv
    flash_driver.o(.ARM.exidx) refers to flash_driver.o(i._ZNK6TFlash4progEPKjjj) for i._ZNK6TFlash4progEPKjjj
    flash_driver.o(.ARM.exidx) refers to flash_driver.o(i._ZNK6TFlash10write_pageEPKhtj) for i._ZNK6TFlash10write_pageEPKhtj
    flash_driver.o(.ARM.exidx) refers to flash_driver.o(i._ZNK6TFlash10erase_pageEj) for i._ZNK6TFlash10erase_pageEj
    flash_driver.o(.ARM.exidx) refers to flash_driver.o(i._ZN6TFlash10write_setsEPKht) for i._ZN6TFlash10write_setsEPKht
    flash_driver.o(.ARM.exidx) refers to flash_driver.o(i._ZN6TFlash10write_dataEPKh) for i._ZN6TFlash10write_dataEPKh
    flash_driver.o(.ARM.exidx) refers to flash_driver.o(i._ZNK6TFlash6rdp_obEv) for i._ZNK6TFlash6rdp_obEv
    flash_driver.o(.ARM.exidx) refers to flash_driver.o(i.__sti___16_Flash_driver_cpp_d50a58b4) for i.__sti___16_Flash_driver_cpp_d50a58b4
    flash_driver.o(.ARM.exidx) refers to flash_driver.o(i._ZN38_INTERNAL_16_Flash_driver_cpp_d50a58b423LL_TIM_ClearFlag_UPDATEEP11TIM_TypeDef) for i._ZN38_INTERNAL_16_Flash_driver_cpp_d50a58b423LL_TIM_ClearFlag_UPDATEEP11TIM_TypeDef
    flash_driver.o(.init_array) refers to flash_driver.o(i.__sti___16_Flash_driver_cpp_d50a58b4) for __sti___16_Flash_driver_cpp_d50a58b4
    flash_driver.o(.init_array) refers to cpp_init.o(.text) for __cpp_initialize__aeabi_
    i2c_driver.o(i.I2C1_EV_IRQHandler) refers to i2c_driver.o(i._ZN36_INTERNAL_14_I2C_driver_cpp_0101a1c115dks_txis_activeEv) for [local to I2C_driver_cpp]::dks_txis_active()
    i2c_driver.o(i.I2C1_EV_IRQHandler) refers to i2c_driver.o(i._ZN36_INTERNAL_14_I2C_driver_cpp_0101a1c115dks_rxne_activeEv) for [local to I2C_driver_cpp]::dks_rxne_active()
    i2c_driver.o(i.I2C1_EV_IRQHandler) refers to i2c_driver.o(i._ZN36_INTERNAL_14_I2C_driver_cpp_0101a1c115dks_stop_activeEv) for [local to I2C_driver_cpp]::dks_stop_active()
    i2c_driver.o(i.I2C1_EV_IRQHandler) refers to i2c_driver.o(i._ZN36_INTERNAL_14_I2C_driver_cpp_0101a1c113dks_tc_activeEv) for [local to I2C_driver_cpp]::dks_tc_active()
    i2c_driver.o(i.I2C1_EV_IRQHandler) refers to i2c_driver.o(.data) for OperationFlag
    i2c_driver.o(i._ZN36_INTERNAL_14_I2C_driver_cpp_0101a1c113dks_tc_activeEv) refers to i2c_driver.o(i._ZN36_INTERNAL_14_I2C_driver_cpp_0101a1c119LL_I2C_SetSlaveAddrEP11I2C_TypeDefj) for [local to I2C_driver_cpp]::LL_I2C_SetSlaveAddr(I2C_TypeDef*, unsigned)
    i2c_driver.o(i._ZN36_INTERNAL_14_I2C_driver_cpp_0101a1c113dks_tc_activeEv) refers to i2c_driver.o(i._ZN36_INTERNAL_14_I2C_driver_cpp_0101a1c125LL_I2C_SetTransferRequestEP11I2C_TypeDefj) for [local to I2C_driver_cpp]::LL_I2C_SetTransferRequest(I2C_TypeDef*, unsigned)
    i2c_driver.o(i._ZN36_INTERNAL_14_I2C_driver_cpp_0101a1c113dks_tc_activeEv) refers to i2c_driver.o(i._ZN36_INTERNAL_14_I2C_driver_cpp_0101a1c122LL_I2C_SetTransferSizeEP11I2C_TypeDefj) for [local to I2C_driver_cpp]::LL_I2C_SetTransferSize(I2C_TypeDef*, unsigned)
    i2c_driver.o(i._ZN36_INTERNAL_14_I2C_driver_cpp_0101a1c113dks_tc_activeEv) refers to i2c_driver.o(i._ZN36_INTERNAL_14_I2C_driver_cpp_0101a1c119LL_I2C_DisableIT_TXEP11I2C_TypeDef) for [local to I2C_driver_cpp]::LL_I2C_DisableIT_TX(I2C_TypeDef*)
    i2c_driver.o(i._ZN36_INTERNAL_14_I2C_driver_cpp_0101a1c113dks_tc_activeEv) refers to i2c_driver.o(i._ZN36_INTERNAL_14_I2C_driver_cpp_0101a1c119LL_I2C_DisableIT_TCEP11I2C_TypeDef) for [local to I2C_driver_cpp]::LL_I2C_DisableIT_TC(I2C_TypeDef*)
    i2c_driver.o(i._ZN36_INTERNAL_14_I2C_driver_cpp_0101a1c113dks_tc_activeEv) refers to i2c_driver.o(i._ZN36_INTERNAL_14_I2C_driver_cpp_0101a1c129LL_I2C_GenerateStartConditionEP11I2C_TypeDef) for [local to I2C_driver_cpp]::LL_I2C_GenerateStartCondition(I2C_TypeDef*)
    i2c_driver.o(i._ZN36_INTERNAL_14_I2C_driver_cpp_0101a1c113dks_tc_activeEv) refers to queue.o(i.xQueueGiveFromISR) for xQueueGiveFromISR
    i2c_driver.o(i._ZN36_INTERNAL_14_I2C_driver_cpp_0101a1c113dks_tc_activeEv) refers to i2c_driver.o(.data) for OperationFlag
    i2c_driver.o(i._ZN36_INTERNAL_14_I2C_driver_cpp_0101a1c113dks_tc_activeEv) refers to main.o(.data) for I2C_TxSem
    i2c_driver.o(i._ZN36_INTERNAL_14_I2C_driver_cpp_0101a1c115dks_rxne_activeEv) refers to i2c_driver.o(.data) for OperationFlag
    i2c_driver.o(i._ZN36_INTERNAL_14_I2C_driver_cpp_0101a1c115dks_stop_activeEv) refers to i2c_driver.o(i._ZN36_INTERNAL_14_I2C_driver_cpp_0101a1c121LL_I2C_ClearFlag_STOPEP11I2C_TypeDef) for [local to I2C_driver_cpp]::LL_I2C_ClearFlag_STOP(I2C_TypeDef*)
    i2c_driver.o(i._ZN36_INTERNAL_14_I2C_driver_cpp_0101a1c115dks_stop_activeEv) refers to queue.o(i.xQueueGiveFromISR) for xQueueGiveFromISR
    i2c_driver.o(i._ZN36_INTERNAL_14_I2C_driver_cpp_0101a1c115dks_stop_activeEv) refers to i2c_driver.o(.data) for OperationFlag
    i2c_driver.o(i._ZN36_INTERNAL_14_I2C_driver_cpp_0101a1c115dks_stop_activeEv) refers to main.o(.data) for I2C_RxSem
    i2c_driver.o(i._ZN36_INTERNAL_14_I2C_driver_cpp_0101a1c115dks_txis_activeEv) refers to i2c_driver.o(i._ZN36_INTERNAL_14_I2C_driver_cpp_0101a1c121LL_I2C_ClearFlag_STOPEP11I2C_TypeDef) for [local to I2C_driver_cpp]::LL_I2C_ClearFlag_STOP(I2C_TypeDef*)
    i2c_driver.o(i._ZN36_INTERNAL_14_I2C_driver_cpp_0101a1c115dks_txis_activeEv) refers to i2c_driver.o(i._ZN36_INTERNAL_14_I2C_driver_cpp_0101a1c120LL_I2C_TransmitData8EP11I2C_TypeDefh) for [local to I2C_driver_cpp]::LL_I2C_TransmitData8(I2C_TypeDef*, unsigned char)
    i2c_driver.o(i._ZN36_INTERNAL_14_I2C_driver_cpp_0101a1c115dks_txis_activeEv) refers to i2c_driver.o(i._ZN36_INTERNAL_14_I2C_driver_cpp_0101a1c119LL_I2C_DisableIT_TXEP11I2C_TypeDef) for [local to I2C_driver_cpp]::LL_I2C_DisableIT_TX(I2C_TypeDef*)
    i2c_driver.o(i._ZN36_INTERNAL_14_I2C_driver_cpp_0101a1c115dks_txis_activeEv) refers to i2c_driver.o(.data) for IsTxSlaveRegAddr
    i2c_driver.o(i._ZN3I2C4TI2C10read_burstEPhhhh) refers to i2c_driver.o(i._ZN36_INTERNAL_14_I2C_driver_cpp_0101a1c122LL_I2C_SetTransferSizeEP11I2C_TypeDefj) for [local to I2C_driver_cpp]::LL_I2C_SetTransferSize(I2C_TypeDef*, unsigned)
    i2c_driver.o(i._ZN3I2C4TI2C10read_burstEPhhhh) refers to i2c_driver.o(i._ZN3I2C4TI2C14start_transferEh) for I2C::TI2C::start_transfer(unsigned char)
    i2c_driver.o(i._ZN3I2C4TI2C10read_burstEPhhhh) refers to queue.o(i.xQueueGenericReceive) for xQueueGenericReceive
    i2c_driver.o(i._ZN3I2C4TI2C10read_burstEPhhhh) refers to i2c_driver.o(i._ZN36_INTERNAL_14_I2C_driver_cpp_0101a1c114LL_I2C_DisableEP11I2C_TypeDef) for [local to I2C_driver_cpp]::LL_I2C_Disable(I2C_TypeDef*)
    i2c_driver.o(i._ZN3I2C4TI2C10read_burstEPhhhh) refers to i2c_driver.o(i._ZN36_INTERNAL_14_I2C_driver_cpp_0101a1c121LL_I2C_ClearFlag_ARLOEP11I2C_TypeDef) for [local to I2C_driver_cpp]::LL_I2C_ClearFlag_ARLO(I2C_TypeDef*)
    i2c_driver.o(i._ZN3I2C4TI2C10read_burstEPhhhh) refers to i2c_driver.o(i._ZN36_INTERNAL_14_I2C_driver_cpp_0101a1c113LL_I2C_EnableEP11I2C_TypeDef) for [local to I2C_driver_cpp]::LL_I2C_Enable(I2C_TypeDef*)
    i2c_driver.o(i._ZN3I2C4TI2C10read_burstEPhhhh) refers to i2c_driver.o(.data) for OperationFlag
    i2c_driver.o(i._ZN3I2C4TI2C10read_burstEPhhhh) refers to main.o(.data) for I2C_RxSem
    i2c_driver.o(i._ZN3I2C4TI2C11i2c_hw_initEv) refers to i2c_driver.o(i._ZN36_INTERNAL_14_I2C_driver_cpp_0101a1c114LL_I2C_DisableEP11I2C_TypeDef) for [local to I2C_driver_cpp]::LL_I2C_Disable(I2C_TypeDef*)
    i2c_driver.o(i._ZN3I2C4TI2C11i2c_hw_initEv) refers to stm32l4xx_ll_i2c.o(i.LL_I2C_Init) for LL_I2C_Init
    i2c_driver.o(i._ZN3I2C4TI2C11i2c_hw_initEv) refers to i2c_driver.o(i._ZN36_INTERNAL_14_I2C_driver_cpp_0101a1c130LL_I2C_SetMasterAddressingModeEP11I2C_TypeDefj) for [local to I2C_driver_cpp]::LL_I2C_SetMasterAddressingMode(I2C_TypeDef*, unsigned)
    i2c_driver.o(i._ZN3I2C4TI2C11i2c_hw_initEv) refers to i2c_driver.o(i._ZN3I2C4TI2C17i2c_set_interruptEv) for I2C::TI2C::i2c_set_interrupt()
    i2c_driver.o(i._ZN3I2C4TI2C11i2c_hw_initEv) refers to i2c_driver.o(i._ZN36_INTERNAL_14_I2C_driver_cpp_0101a1c113LL_I2C_EnableEP11I2C_TypeDef) for [local to I2C_driver_cpp]::LL_I2C_Enable(I2C_TypeDef*)
    i2c_driver.o(i._ZN3I2C4TI2C11write_burstEPhhhh) refers to i2c_driver.o(i._ZN36_INTERNAL_14_I2C_driver_cpp_0101a1c122LL_I2C_SetTransferSizeEP11I2C_TypeDefj) for [local to I2C_driver_cpp]::LL_I2C_SetTransferSize(I2C_TypeDef*, unsigned)
    i2c_driver.o(i._ZN3I2C4TI2C11write_burstEPhhhh) refers to i2c_driver.o(i._ZN3I2C4TI2C14start_transferEh) for I2C::TI2C::start_transfer(unsigned char)
    i2c_driver.o(i._ZN3I2C4TI2C11write_burstEPhhhh) refers to queue.o(i.xQueueGenericReceive) for xQueueGenericReceive
    i2c_driver.o(i._ZN3I2C4TI2C11write_burstEPhhhh) refers to i2c_driver.o(i._ZN36_INTERNAL_14_I2C_driver_cpp_0101a1c114LL_I2C_DisableEP11I2C_TypeDef) for [local to I2C_driver_cpp]::LL_I2C_Disable(I2C_TypeDef*)
    i2c_driver.o(i._ZN3I2C4TI2C11write_burstEPhhhh) refers to i2c_driver.o(i._ZN36_INTERNAL_14_I2C_driver_cpp_0101a1c121LL_I2C_ClearFlag_ARLOEP11I2C_TypeDef) for [local to I2C_driver_cpp]::LL_I2C_ClearFlag_ARLO(I2C_TypeDef*)
    i2c_driver.o(i._ZN3I2C4TI2C11write_burstEPhhhh) refers to i2c_driver.o(i._ZN36_INTERNAL_14_I2C_driver_cpp_0101a1c113LL_I2C_EnableEP11I2C_TypeDef) for [local to I2C_driver_cpp]::LL_I2C_Enable(I2C_TypeDef*)
    i2c_driver.o(i._ZN3I2C4TI2C11write_burstEPhhhh) refers to i2c_driver.o(.data) for TxBufSize
    i2c_driver.o(i._ZN3I2C4TI2C11write_burstEPhhhh) refers to main.o(.data) for I2C_TxSem
    i2c_driver.o(i._ZN3I2C4TI2C14pin_clk_configEv) refers to stm32l4xx_ll_gpio.o(i.LL_GPIO_Init) for LL_GPIO_Init
    i2c_driver.o(i._ZN3I2C4TI2C14start_transferEh) refers to i2c_driver.o(i._ZN36_INTERNAL_14_I2C_driver_cpp_0101a1c130LL_I2C_SetMasterAddressingModeEP11I2C_TypeDefj) for [local to I2C_driver_cpp]::LL_I2C_SetMasterAddressingMode(I2C_TypeDef*, unsigned)
    i2c_driver.o(i._ZN3I2C4TI2C14start_transferEh) refers to i2c_driver.o(i._ZN36_INTERNAL_14_I2C_driver_cpp_0101a1c119LL_I2C_SetSlaveAddrEP11I2C_TypeDefj) for [local to I2C_driver_cpp]::LL_I2C_SetSlaveAddr(I2C_TypeDef*, unsigned)
    i2c_driver.o(i._ZN3I2C4TI2C14start_transferEh) refers to i2c_driver.o(i._ZN36_INTERNAL_14_I2C_driver_cpp_0101a1c125LL_I2C_SetTransferRequestEP11I2C_TypeDefj) for [local to I2C_driver_cpp]::LL_I2C_SetTransferRequest(I2C_TypeDef*, unsigned)
    i2c_driver.o(i._ZN3I2C4TI2C14start_transferEh) refers to i2c_driver.o(i._ZN36_INTERNAL_14_I2C_driver_cpp_0101a1c129LL_I2C_GenerateStartConditionEP11I2C_TypeDef) for [local to I2C_driver_cpp]::LL_I2C_GenerateStartCondition(I2C_TypeDef*)
    i2c_driver.o(i._ZN3I2C4TI2C14start_transferEh) refers to i2c_driver.o(.data) for IsTxSlaveRegAddr
    i2c_driver.o(i._ZN3I2C4TI2C16read_single_byteEPhhh) refers to i2c_driver.o(i._ZN36_INTERNAL_14_I2C_driver_cpp_0101a1c122LL_I2C_SetTransferSizeEP11I2C_TypeDefj) for [local to I2C_driver_cpp]::LL_I2C_SetTransferSize(I2C_TypeDef*, unsigned)
    i2c_driver.o(i._ZN3I2C4TI2C16read_single_byteEPhhh) refers to i2c_driver.o(i._ZN3I2C4TI2C14start_transferEh) for I2C::TI2C::start_transfer(unsigned char)
    i2c_driver.o(i._ZN3I2C4TI2C16read_single_byteEPhhh) refers to heap_2.o(i.xPortGetFreeHeapSize) for xPortGetFreeHeapSize
    i2c_driver.o(i._ZN3I2C4TI2C16read_single_byteEPhhh) refers to queue.o(i.xQueueGenericReceive) for xQueueGenericReceive
    i2c_driver.o(i._ZN3I2C4TI2C16read_single_byteEPhhh) refers to i2c_driver.o(i._ZN36_INTERNAL_14_I2C_driver_cpp_0101a1c114LL_I2C_DisableEP11I2C_TypeDef) for [local to I2C_driver_cpp]::LL_I2C_Disable(I2C_TypeDef*)
    i2c_driver.o(i._ZN3I2C4TI2C16read_single_byteEPhhh) refers to i2c_driver.o(i._ZN36_INTERNAL_14_I2C_driver_cpp_0101a1c121LL_I2C_ClearFlag_ARLOEP11I2C_TypeDef) for [local to I2C_driver_cpp]::LL_I2C_ClearFlag_ARLO(I2C_TypeDef*)
    i2c_driver.o(i._ZN3I2C4TI2C16read_single_byteEPhhh) refers to i2c_driver.o(i._ZN36_INTERNAL_14_I2C_driver_cpp_0101a1c113LL_I2C_EnableEP11I2C_TypeDef) for [local to I2C_driver_cpp]::LL_I2C_Enable(I2C_TypeDef*)
    i2c_driver.o(i._ZN3I2C4TI2C16read_single_byteEPhhh) refers to i2c_driver.o(.data) for OperationFlag
    i2c_driver.o(i._ZN3I2C4TI2C16read_single_byteEPhhh) refers to main.o(.data) for I2C_RxSem
    i2c_driver.o(i._ZN3I2C4TI2C17write_single_byteEPhhh) refers to i2c_driver.o(i._ZN36_INTERNAL_14_I2C_driver_cpp_0101a1c122LL_I2C_SetTransferSizeEP11I2C_TypeDefj) for [local to I2C_driver_cpp]::LL_I2C_SetTransferSize(I2C_TypeDef*, unsigned)
    i2c_driver.o(i._ZN3I2C4TI2C17write_single_byteEPhhh) refers to i2c_driver.o(i._ZN3I2C4TI2C14start_transferEh) for I2C::TI2C::start_transfer(unsigned char)
    i2c_driver.o(i._ZN3I2C4TI2C17write_single_byteEPhhh) refers to queue.o(i.xQueueGenericReceive) for xQueueGenericReceive
    i2c_driver.o(i._ZN3I2C4TI2C17write_single_byteEPhhh) refers to i2c_driver.o(i._ZN36_INTERNAL_14_I2C_driver_cpp_0101a1c114LL_I2C_DisableEP11I2C_TypeDef) for [local to I2C_driver_cpp]::LL_I2C_Disable(I2C_TypeDef*)
    i2c_driver.o(i._ZN3I2C4TI2C17write_single_byteEPhhh) refers to i2c_driver.o(i._ZN36_INTERNAL_14_I2C_driver_cpp_0101a1c121LL_I2C_ClearFlag_ARLOEP11I2C_TypeDef) for [local to I2C_driver_cpp]::LL_I2C_ClearFlag_ARLO(I2C_TypeDef*)
    i2c_driver.o(i._ZN3I2C4TI2C17write_single_byteEPhhh) refers to i2c_driver.o(i._ZN36_INTERNAL_14_I2C_driver_cpp_0101a1c113LL_I2C_EnableEP11I2C_TypeDef) for [local to I2C_driver_cpp]::LL_I2C_Enable(I2C_TypeDef*)
    i2c_driver.o(i._ZN3I2C4TI2C17write_single_byteEPhhh) refers to i2c_driver.o(.data) for TxBufSize
    i2c_driver.o(i._ZN3I2C4TI2C17write_single_byteEPhhh) refers to main.o(.data) for I2C_TxSem
    i2c_driver.o(i._ZN3I2C4TI2CC1ERK7TI2C_HWNS_5TModeENS_5TRateENS_11TAddressingE) refers to memcpya.o(.text) for __aeabi_memcpy4
    i2c_driver.o(.ARM.exidx) refers to i2c_driver.o(i.I2C1_EV_IRQHandler) for i.I2C1_EV_IRQHandler
    i2c_driver.o(.ARM.exidx) refers to i2c_driver.o(i.I2C1_ER_IRQHandler) for i.I2C1_ER_IRQHandler
    i2c_driver.o(.ARM.exidx) refers to i2c_driver.o(i.I2C2_EV_IRQHandler) for i.I2C2_EV_IRQHandler
    i2c_driver.o(.ARM.exidx) refers to i2c_driver.o(i.I2C2_ER_IRQHandler) for i.I2C2_ER_IRQHandler
    i2c_driver.o(.ARM.exidx) refers to i2c_driver.o(i._ZN3I2C4TI2CC1ERK7TI2C_HWNS_5TModeENS_5TRateENS_11TAddressingE) for i._ZN3I2C4TI2CC1ERK7TI2C_HWNS_5TModeENS_5TRateENS_11TAddressingE
    i2c_driver.o(.ARM.exidx) refers to i2c_driver.o(i._ZN3I2C4TI2CD1Ev) for i._ZN3I2C4TI2CD1Ev
    i2c_driver.o(.ARM.exidx) refers to i2c_driver.o(i._ZNK3I2C4TI2C12get_i2c_signEv) for i._ZNK3I2C4TI2C12get_i2c_signEv
    i2c_driver.o(.ARM.exidx) refers to i2c_driver.o(i._ZN3I2C4TI2C14pin_clk_configEv) for i._ZN3I2C4TI2C14pin_clk_configEv
    i2c_driver.o(.ARM.exidx) refers to i2c_driver.o(i._ZN3I2C4TI2C17i2c_set_interruptEv) for i._ZN3I2C4TI2C17i2c_set_interruptEv
    i2c_driver.o(.ARM.exidx) refers to i2c_driver.o(i._ZN3I2C4TI2C11i2c_hw_initEv) for i._ZN3I2C4TI2C11i2c_hw_initEv
    i2c_driver.o(.ARM.exidx) refers to i2c_driver.o(i._ZN3I2C4TI2C14start_transferEh) for i._ZN3I2C4TI2C14start_transferEh
    i2c_driver.o(.ARM.exidx) refers to i2c_driver.o(i._ZN3I2C4TI2C17write_single_byteEPhhh) for i._ZN3I2C4TI2C17write_single_byteEPhhh
    i2c_driver.o(.ARM.exidx) refers to i2c_driver.o(i._ZN3I2C4TI2C11write_burstEPhhhh) for i._ZN3I2C4TI2C11write_burstEPhhhh
    i2c_driver.o(.ARM.exidx) refers to i2c_driver.o(i._ZN3I2C4TI2C16read_single_byteEPhhh) for i._ZN3I2C4TI2C16read_single_byteEPhhh
    i2c_driver.o(.ARM.exidx) refers to i2c_driver.o(i._ZN3I2C4TI2C10read_burstEPhhhh) for i._ZN3I2C4TI2C10read_burstEPhhhh
    i2c_driver.o(.ARM.exidx) refers to i2c_driver.o(i._ZN36_INTERNAL_14_I2C_driver_cpp_0101a1c113LL_I2C_EnableEP11I2C_TypeDef) for i._ZN36_INTERNAL_14_I2C_driver_cpp_0101a1c113LL_I2C_EnableEP11I2C_TypeDef
    i2c_driver.o(.ARM.exidx) refers to i2c_driver.o(i._ZN36_INTERNAL_14_I2C_driver_cpp_0101a1c114LL_I2C_DisableEP11I2C_TypeDef) for i._ZN36_INTERNAL_14_I2C_driver_cpp_0101a1c114LL_I2C_DisableEP11I2C_TypeDef
    i2c_driver.o(.ARM.exidx) refers to i2c_driver.o(i._ZN36_INTERNAL_14_I2C_driver_cpp_0101a1c130LL_I2C_SetMasterAddressingModeEP11I2C_TypeDefj) for i._ZN36_INTERNAL_14_I2C_driver_cpp_0101a1c130LL_I2C_SetMasterAddressingModeEP11I2C_TypeDefj
    i2c_driver.o(.ARM.exidx) refers to i2c_driver.o(i._ZN36_INTERNAL_14_I2C_driver_cpp_0101a1c121LL_I2C_ClearFlag_ARLOEP11I2C_TypeDef) for i._ZN36_INTERNAL_14_I2C_driver_cpp_0101a1c121LL_I2C_ClearFlag_ARLOEP11I2C_TypeDef
    i2c_driver.o(.ARM.exidx) refers to i2c_driver.o(i._ZN36_INTERNAL_14_I2C_driver_cpp_0101a1c122LL_I2C_SetTransferSizeEP11I2C_TypeDefj) for i._ZN36_INTERNAL_14_I2C_driver_cpp_0101a1c122LL_I2C_SetTransferSizeEP11I2C_TypeDefj
    i2c_driver.o(.ARM.exidx) refers to i2c_driver.o(i._ZN36_INTERNAL_14_I2C_driver_cpp_0101a1c129LL_I2C_GenerateStartConditionEP11I2C_TypeDef) for i._ZN36_INTERNAL_14_I2C_driver_cpp_0101a1c129LL_I2C_GenerateStartConditionEP11I2C_TypeDef
    i2c_driver.o(.ARM.exidx) refers to i2c_driver.o(i._ZN36_INTERNAL_14_I2C_driver_cpp_0101a1c125LL_I2C_SetTransferRequestEP11I2C_TypeDefj) for i._ZN36_INTERNAL_14_I2C_driver_cpp_0101a1c125LL_I2C_SetTransferRequestEP11I2C_TypeDefj
    i2c_driver.o(.ARM.exidx) refers to i2c_driver.o(i._ZN36_INTERNAL_14_I2C_driver_cpp_0101a1c119LL_I2C_SetSlaveAddrEP11I2C_TypeDefj) for i._ZN36_INTERNAL_14_I2C_driver_cpp_0101a1c119LL_I2C_SetSlaveAddrEP11I2C_TypeDefj
    i2c_driver.o(.ARM.exidx) refers to i2c_driver.o(i._ZN36_INTERNAL_14_I2C_driver_cpp_0101a1c115dks_txis_activeEv) for i._ZN36_INTERNAL_14_I2C_driver_cpp_0101a1c115dks_txis_activeEv
    i2c_driver.o(.ARM.exidx) refers to i2c_driver.o(i._ZN36_INTERNAL_14_I2C_driver_cpp_0101a1c115dks_rxne_activeEv) for i._ZN36_INTERNAL_14_I2C_driver_cpp_0101a1c115dks_rxne_activeEv
    i2c_driver.o(.ARM.exidx) refers to i2c_driver.o(i._ZN36_INTERNAL_14_I2C_driver_cpp_0101a1c115dks_stop_activeEv) for i._ZN36_INTERNAL_14_I2C_driver_cpp_0101a1c115dks_stop_activeEv
    i2c_driver.o(.ARM.exidx) refers to i2c_driver.o(i._ZN36_INTERNAL_14_I2C_driver_cpp_0101a1c113dks_tc_activeEv) for i._ZN36_INTERNAL_14_I2C_driver_cpp_0101a1c113dks_tc_activeEv
    i2c_driver.o(.ARM.exidx) refers to i2c_driver.o(i._ZN36_INTERNAL_14_I2C_driver_cpp_0101a1c119LL_I2C_DisableIT_TXEP11I2C_TypeDef) for i._ZN36_INTERNAL_14_I2C_driver_cpp_0101a1c119LL_I2C_DisableIT_TXEP11I2C_TypeDef
    i2c_driver.o(.ARM.exidx) refers to i2c_driver.o(i._ZN36_INTERNAL_14_I2C_driver_cpp_0101a1c119LL_I2C_DisableIT_TCEP11I2C_TypeDef) for i._ZN36_INTERNAL_14_I2C_driver_cpp_0101a1c119LL_I2C_DisableIT_TCEP11I2C_TypeDef
    i2c_driver.o(.ARM.exidx) refers to i2c_driver.o(i._ZN36_INTERNAL_14_I2C_driver_cpp_0101a1c121LL_I2C_ClearFlag_STOPEP11I2C_TypeDef) for i._ZN36_INTERNAL_14_I2C_driver_cpp_0101a1c121LL_I2C_ClearFlag_STOPEP11I2C_TypeDef
    i2c_driver.o(.ARM.exidx) refers to i2c_driver.o(i._ZN36_INTERNAL_14_I2C_driver_cpp_0101a1c120LL_I2C_TransmitData8EP11I2C_TypeDefh) for i._ZN36_INTERNAL_14_I2C_driver_cpp_0101a1c120LL_I2C_TransmitData8EP11I2C_TypeDefh
    old_flash_lib.o(.ARM.exidx) refers to old_flash_lib.o(i._Z15FLASH_GetStatusv) for i._Z15FLASH_GetStatusv
    old_flash_lib.o(.ARM.exidx) refers to old_flash_lib.o(i._Z12FLASH_Unlockv) for i._Z12FLASH_Unlockv
    old_flash_lib.o(.ARM.exidx) refers to old_flash_lib.o(i._Z15FLASH_OB_Unlockv) for i._Z15FLASH_OB_Unlockv
    old_flash_lib.o(.ARM.exidx) refers to old_flash_lib.o(i._Z10FLASH_Lockv) for i._Z10FLASH_Lockv
    spi_dirver.o(i._ZN4TSPI10check_busyEv) refers to spi_dirver.o(i._ZN36_INTERNAL_14_SPI_dirver_cpp_4f82068423LL_SPI_IsActiveFlag_BSYEP11SPI_TypeDef) for [local to SPI_dirver_cpp]::LL_SPI_IsActiveFlag_BSY(SPI_TypeDef*)
    spi_dirver.o(i._ZN4TSPI10write_byteEh) refers to spi_dirver.o(i._ZN4TSPI10check_busyEv) for TSPI::check_busy()
    spi_dirver.o(i._ZN4TSPI14pin_clk_configEv) refers to stm32l4xx_ll_gpio.o(i.LL_GPIO_Init) for LL_GPIO_Init
    spi_dirver.o(i._ZN4TSPI7hw_initEv) refers to stm32l4xx_ll_rcc.o(i.LL_RCC_GetSystemClocksFreq) for LL_RCC_GetSystemClocksFreq
    spi_dirver.o(i._ZN4TSPI7hw_initEv) refers to memcpya.o(.text) for __aeabi_memcpy4
    spi_dirver.o(i._ZN4TSPI7hw_initEv) refers to stm32l4xx_ll_spi.o(i.LL_SPI_DeInit) for LL_SPI_DeInit
    spi_dirver.o(i._ZN4TSPI7hw_initEv) refers to stm32l4xx_ll_spi.o(i.LL_SPI_Init) for LL_SPI_Init
    spi_dirver.o(i._ZN4TSPI7hw_initEv) refers to spi_dirver.o(.constdata) for .constdata
    spi_dirver.o(i._ZN4TSPI8dma_initEv) refers to memcpya.o(.text) for __aeabi_memcpy4
    spi_dirver.o(i._ZN4TSPI8dma_initEv) refers to spi_dirver.o(.constdata) for .constdata
    spi_dirver.o(i._ZN4TSPIC1ERK7TSpi_HWNS_5TRateE) refers to memcpya.o(.text) for __aeabi_memcpy4
    spi_dirver.o(.ARM.exidx) refers to spi_dirver.o(i._ZN4TSPIC1ERK7TSpi_HWNS_5TRateE) for i._ZN4TSPIC1ERK7TSpi_HWNS_5TRateE
    spi_dirver.o(.ARM.exidx) refers to spi_dirver.o(i._ZN4TSPID1Ev) for i._ZN4TSPID1Ev
    spi_dirver.o(.ARM.exidx) refers to spi_dirver.o(i._ZN4TSPI14pin_clk_configEv) for i._ZN4TSPI14pin_clk_configEv
    spi_dirver.o(.ARM.exidx) refers to spi_dirver.o(i._ZN4TSPI7hw_initEv) for i._ZN4TSPI7hw_initEv
    spi_dirver.o(.ARM.exidx) refers to spi_dirver.o(i._ZN4TSPI11write_frameEPKhh) for i._ZN4TSPI11write_frameEPKhh
    spi_dirver.o(.ARM.exidx) refers to spi_dirver.o(i._ZN4TSPI10read_frameEv) for i._ZN4TSPI10read_frameEv
    spi_dirver.o(.ARM.exidx) refers to spi_dirver.o(i._ZN4TSPI10check_busyEv) for i._ZN4TSPI10check_busyEv
    spi_dirver.o(.ARM.exidx) refers to spi_dirver.o(i._ZN4TSPI10write_byteEh) for i._ZN4TSPI10write_byteEh
    spi_dirver.o(.ARM.exidx) refers to spi_dirver.o(i._ZN4TSPI8dma_initEv) for i._ZN4TSPI8dma_initEv
    spi_dirver.o(.ARM.exidx) refers to spi_dirver.o(i._ZN36_INTERNAL_14_SPI_dirver_cpp_4f82068424LL_AHB1_GRP1_EnableClockEj) for i._ZN36_INTERNAL_14_SPI_dirver_cpp_4f82068424LL_AHB1_GRP1_EnableClockEj
    spi_dirver.o(.ARM.exidx) refers to spi_dirver.o(i._ZN36_INTERNAL_14_SPI_dirver_cpp_4f82068420LL_DMA_ClearFlag_TC2EP11DMA_TypeDef) for i._ZN36_INTERNAL_14_SPI_dirver_cpp_4f82068420LL_DMA_ClearFlag_TC2EP11DMA_TypeDef
    spi_dirver.o(.ARM.exidx) refers to spi_dirver.o(i._ZN36_INTERNAL_14_SPI_dirver_cpp_4f82068420LL_DMA_ClearFlag_TC3EP11DMA_TypeDef) for i._ZN36_INTERNAL_14_SPI_dirver_cpp_4f82068420LL_DMA_ClearFlag_TC3EP11DMA_TypeDef
    spi_dirver.o(.ARM.exidx) refers to spi_dirver.o(i._ZN36_INTERNAL_14_SPI_dirver_cpp_4f82068420LL_DMA_ClearFlag_TC4EP11DMA_TypeDef) for i._ZN36_INTERNAL_14_SPI_dirver_cpp_4f82068420LL_DMA_ClearFlag_TC4EP11DMA_TypeDef
    spi_dirver.o(.ARM.exidx) refers to spi_dirver.o(i._ZN36_INTERNAL_14_SPI_dirver_cpp_4f82068420LL_DMA_ClearFlag_TC5EP11DMA_TypeDef) for i._ZN36_INTERNAL_14_SPI_dirver_cpp_4f82068420LL_DMA_ClearFlag_TC5EP11DMA_TypeDef
    spi_dirver.o(.ARM.exidx) refers to spi_dirver.o(i._ZN36_INTERNAL_14_SPI_dirver_cpp_4f82068423LL_SPI_IsActiveFlag_BSYEP11SPI_TypeDef) for i._ZN36_INTERNAL_14_SPI_dirver_cpp_4f82068423LL_SPI_IsActiveFlag_BSYEP11SPI_TypeDef
    spi_dirver.o(.constdata) refers to spi_dirver.o(i._ZN36_INTERNAL_14_SPI_dirver_cpp_4f82068424LL_AHB1_GRP1_EnableClockEj) for [local to SPI_dirver_cpp]::LL_AHB1_GRP1_EnableClock(unsigned)
    spi_dirver.o(.constdata) refers to spi_dirver.o(i._ZN36_INTERNAL_14_SPI_dirver_cpp_4f82068420LL_DMA_ClearFlag_TC3EP11DMA_TypeDef) for [local to SPI_dirver_cpp]::LL_DMA_ClearFlag_TC3(DMA_TypeDef*)
    spi_dirver.o(.constdata) refers to spi_dirver.o(i._ZN36_INTERNAL_14_SPI_dirver_cpp_4f82068420LL_DMA_ClearFlag_TC4EP11DMA_TypeDef) for [local to SPI_dirver_cpp]::LL_DMA_ClearFlag_TC4(DMA_TypeDef*)
    spi_dirver.o(.constdata) refers to spi_dirver.o(i._ZN36_INTERNAL_14_SPI_dirver_cpp_4f82068420LL_DMA_ClearFlag_TC5EP11DMA_TypeDef) for [local to SPI_dirver_cpp]::LL_DMA_ClearFlag_TC5(DMA_TypeDef*)
    spi_dirver.o(.constdata) refers to spi_dirver.o(i._ZN36_INTERNAL_14_SPI_dirver_cpp_4f82068420LL_DMA_ClearFlag_TC2EP11DMA_TypeDef) for [local to SPI_dirver_cpp]::LL_DMA_ClearFlag_TC2(DMA_TypeDef*)
    usart_driver_.o(i._ZN6TUsart10read_burstEPhh) refers to usart_driver_.o(i._ZN6TUsart15clr_error_flagsEv) for TUsart::clr_error_flags()
    usart_driver_.o(i._ZN6TUsart10read_burstEPhh) refers to usart_driver_.o(i._ZN39_INTERNAL_17_usart_driver__cpp_b612a17526LL_USART_IsActiveFlag_RXNEEP13USART_TypeDef) for [local to usart_driver__cpp]::LL_USART_IsActiveFlag_RXNE(USART_TypeDef*)
    usart_driver_.o(i._ZN6TUsart10read_burstEPhh) refers to usart_driver_.o(i._ZN39_INTERNAL_17_usart_driver__cpp_b612a17521LL_USART_ReceiveData8EP13USART_TypeDef) for [local to usart_driver__cpp]::LL_USART_ReceiveData8(USART_TypeDef*)
    usart_driver_.o(i._ZN6TUsart10set_485_hdEjj) refers to usart_driver_.o(i._ZN39_INTERNAL_17_usart_driver__cpp_b612a17520LL_USART_SetBaudRateEP13USART_TypeDefjjj) for [local to usart_driver__cpp]::LL_USART_SetBaudRate(USART_TypeDef*, unsigned, unsigned, unsigned)
    usart_driver_.o(i._ZN6TUsart11write_burstEPKht) refers to usart_driver_.o(i._ZN6TUsart15clr_error_flagsEv) for TUsart::clr_error_flags()
    usart_driver_.o(i._ZN6TUsart13en_eob_detectEh) refers to usart_driver_.o(i._ZN39_INTERNAL_17_usart_driver__cpp_b612a17522LL_USART_ClearFlag_RTOEP13USART_TypeDef) for [local to usart_driver__cpp]::LL_USART_ClearFlag_RTO(USART_TypeDef*)
    usart_driver_.o(i._ZN6TUsart14dis_eob_detectEv) refers to usart_driver_.o(i._ZN39_INTERNAL_17_usart_driver__cpp_b612a17522LL_USART_ClearFlag_RTOEP13USART_TypeDef) for [local to usart_driver__cpp]::LL_USART_ClearFlag_RTO(USART_TypeDef*)
    usart_driver_.o(i._ZN6TUsart14pin_clk_configEv) refers to stm32l4xx_ll_gpio.o(i.LL_GPIO_Init) for LL_GPIO_Init
    usart_driver_.o(i._ZN6TUsart7hw_initEh) refers to memcpya.o(.text) for __aeabi_memcpy4
    usart_driver_.o(i._ZN6TUsart7hw_initEh) refers to stm32l4xx_ll_usart.o(i.LL_USART_Init) for LL_USART_Init
    usart_driver_.o(i._ZN6TUsart7hw_initEh) refers to stm32l4xx_ll_rcc.o(i.LL_RCC_GetUSARTClockFreq) for LL_RCC_GetUSARTClockFreq
    usart_driver_.o(i._ZN6TUsart7hw_initEh) refers to rs-485_phy.o(i._ZN12T_RS_485_phy10get_configEv) for T_RS_485_phy::get_config()
    usart_driver_.o(i._ZN6TUsart7hw_initEh) refers to usart_driver_.o(i._ZN6TUsart10set_485_hdEjj) for TUsart::set_485_hd(unsigned, unsigned)
    usart_driver_.o(i._ZN6TUsart7hw_initEh) refers to usart_driver_.o(i._ZN6TUsart7set_232Ejj) for TUsart::set_232(unsigned, unsigned)
    usart_driver_.o(i._ZN6TUsart7hw_initEh) refers to usart_driver_.o(i._ZN6TUsart15clr_error_flagsEv) for TUsart::clr_error_flags()
    usart_driver_.o(i._ZN6TUsart7hw_initEh) refers to usart_driver_.o(.constdata) for .constdata
    usart_driver_.o(i._ZN6TUsart7set_232Ejj) refers to usart_driver_.o(i._ZN39_INTERNAL_17_usart_driver__cpp_b612a17520LL_USART_SetBaudRateEP13USART_TypeDefjjj) for [local to usart_driver__cpp]::LL_USART_SetBaudRate(USART_TypeDef*, unsigned, unsigned, unsigned)
    usart_driver_.o(i._ZN6TUsart8set_setsERKNS_5TSetsE) refers to usart_driver_.o(i._ZN6TUsart8chk_setsERKNS_5TSetsE) for TUsart::chk_sets(const TUsart::TSets&)
    usart_driver_.o(i._ZN6TUsart8set_setsERKNS_5TSetsE) refers to usart_driver_.o(i._ZN6TUsart6dis_ifEv) for TUsart::dis_if()
    usart_driver_.o(i._ZN6TUsart8set_setsERKNS_5TSetsE) refers to usart_driver_.o(i._ZN6TUsart7hw_initEh) for TUsart::hw_init(unsigned char)
    usart_driver_.o(i._ZN6TUsart9read_byteEv) refers to usart_driver_.o(i._ZN6TUsart15clr_error_flagsEv) for TUsart::clr_error_flags()
    usart_driver_.o(i._ZN6TUsart9read_byteEv) refers to usart_driver_.o(i._ZN39_INTERNAL_17_usart_driver__cpp_b612a17526LL_USART_IsActiveFlag_RXNEEP13USART_TypeDef) for [local to usart_driver__cpp]::LL_USART_IsActiveFlag_RXNE(USART_TypeDef*)
    usart_driver_.o(i._ZN6TUsart9read_byteEv) refers to usart_driver_.o(i._ZN39_INTERNAL_17_usart_driver__cpp_b612a17521LL_USART_ReceiveData8EP13USART_TypeDef) for [local to usart_driver__cpp]::LL_USART_ReceiveData8(USART_TypeDef*)
    usart_driver_.o(i._ZN6TUsartC1ERK9TUsart_HWRKNS_5TSetsENS_5TModeE) refers to rs-485_phy.o(i._ZN12T_RS_485_phyC1Ev) for T_RS_485_phy::T_RS_485_phy()
    usart_driver_.o(i._ZN6TUsartD1Ev) refers to rs-485_phy.o(i._ZN12T_RS_485_phyD1Ev) for T_RS_485_phy::~T_RS_485_phy()
    usart_driver_.o(.ARM.exidx) refers to usart_driver_.o(i._ZN39_INTERNAL_17_usart_driver__cpp_b612a17520LL_USART_SetBaudRateEP13USART_TypeDefjjj) for i._ZN39_INTERNAL_17_usart_driver__cpp_b612a17520LL_USART_SetBaudRateEP13USART_TypeDefjjj
    usart_driver_.o(.ARM.exidx) refers to usart_driver_.o(i._ZN6TUsartC1ERK9TUsart_HWRKNS_5TSetsENS_5TModeE) for i._ZN6TUsartC1ERK9TUsart_HWRKNS_5TSetsENS_5TModeE
    usart_driver_.o(.ARM.exidx) refers to usart_driver_.o(i._ZN6TUsartD1Ev) for i._ZN6TUsartD1Ev
    usart_driver_.o(.ARM.exidx) refers to usart_driver_.o(i._ZN6TUsart14pin_clk_configEv) for i._ZN6TUsart14pin_clk_configEv
    usart_driver_.o(.ARM.exidx) refers to usart_driver_.o(i._ZN6TUsart15clr_error_flagsEv) for i._ZN6TUsart15clr_error_flagsEv
    usart_driver_.o(.ARM.exidx) refers to usart_driver_.o(i._ZN6TUsart7set_232Ejj) for i._ZN6TUsart7set_232Ejj
    usart_driver_.o(.ARM.exidx) refers to usart_driver_.o(i._ZN6TUsart10set_485_hdEjj) for i._ZN6TUsart10set_485_hdEjj
    usart_driver_.o(.ARM.exidx) refers to usart_driver_.o(i._ZN6TUsart7hw_initEh) for i._ZN6TUsart7hw_initEh
    usart_driver_.o(.ARM.exidx) refers to usart_driver_.o(i._ZN6TUsart6dis_ifEv) for i._ZN6TUsart6dis_ifEv
    usart_driver_.o(.ARM.exidx) refers to usart_driver_.o(i._ZN6TUsart8chk_setsERKNS_5TSetsE) for i._ZN6TUsart8chk_setsERKNS_5TSetsE
    usart_driver_.o(.ARM.exidx) refers to usart_driver_.o(i._ZN6TUsart8set_setsERKNS_5TSetsE) for i._ZN6TUsart8set_setsERKNS_5TSetsE
    usart_driver_.o(.ARM.exidx) refers to usart_driver_.o(i._ZN6TUsart13en_eob_detectEh) for i._ZN6TUsart13en_eob_detectEh
    usart_driver_.o(.ARM.exidx) refers to usart_driver_.o(i._ZN6TUsart14dis_eob_detectEv) for i._ZN6TUsart14dis_eob_detectEv
    usart_driver_.o(.ARM.exidx) refers to usart_driver_.o(i._ZNK6TUsart8get_setsEv) for i._ZNK6TUsart8get_setsEv
    usart_driver_.o(.ARM.exidx) refers to usart_driver_.o(i._ZN6TUsart10read_burstEPhh) for i._ZN6TUsart10read_burstEPhh
    usart_driver_.o(.ARM.exidx) refers to usart_driver_.o(i._ZN6TUsart11write_burstEPKht) for i._ZN6TUsart11write_burstEPKht
    usart_driver_.o(.ARM.exidx) refers to usart_driver_.o(i._ZN6TUsart9read_byteEv) for i._ZN6TUsart9read_byteEv
    usart_driver_.o(.ARM.exidx) refers to usart_driver_.o(i._ZN6TUsart9enable_rxEv) for i._ZN6TUsart9enable_rxEv
    usart_driver_.o(.ARM.exidx) refers to usart_driver_.o(i._ZN6TUsart10disable_rxEv) for i._ZN6TUsart10disable_rxEv
    usart_driver_.o(.ARM.exidx) refers to usart_driver_.o(i._ZN6TUsart13set_interruptEv) for i._ZN6TUsart13set_interruptEv
    usart_driver_.o(.ARM.exidx) refers to usart_driver_.o(i._ZN39_INTERNAL_17_usart_driver__cpp_b612a17526LL_USART_IsActiveFlag_RXNEEP13USART_TypeDef) for i._ZN39_INTERNAL_17_usart_driver__cpp_b612a17526LL_USART_IsActiveFlag_RXNEEP13USART_TypeDef
    usart_driver_.o(.ARM.exidx) refers to usart_driver_.o(i._ZN39_INTERNAL_17_usart_driver__cpp_b612a17522LL_USART_ClearFlag_RTOEP13USART_TypeDef) for i._ZN39_INTERNAL_17_usart_driver__cpp_b612a17522LL_USART_ClearFlag_RTOEP13USART_TypeDef
    usart_driver_.o(.ARM.exidx) refers to usart_driver_.o(i._ZN39_INTERNAL_17_usart_driver__cpp_b612a17521LL_USART_ReceiveData8EP13USART_TypeDef) for i._ZN39_INTERNAL_17_usart_driver__cpp_b612a17521LL_USART_ReceiveData8EP13USART_TypeDef
    heap_2.o(i.prvHeapInit) refers to heap_2.o(.bss) for ucHeap
    heap_2.o(i.prvHeapInit) refers to heap_2.o(.data) for xStart
    heap_2.o(i.pvPortMalloc) refers to tasks.o(i.vTaskSuspendAll) for vTaskSuspendAll
    heap_2.o(i.pvPortMalloc) refers to heap_2.o(i.prvHeapInit) for prvHeapInit
    heap_2.o(i.pvPortMalloc) refers to tasks.o(i.xTaskResumeAll) for xTaskResumeAll
    heap_2.o(i.pvPortMalloc) refers to heap_2.o(.data) for xHeapHasBeenInitialised
    heap_2.o(i.vPortFree) refers to tasks.o(i.vTaskSuspendAll) for vTaskSuspendAll
    heap_2.o(i.vPortFree) refers to tasks.o(i.xTaskResumeAll) for xTaskResumeAll
    heap_2.o(i.vPortFree) refers to heap_2.o(.data) for xStart
    heap_2.o(i.xPortGetFreeHeapSize) refers to heap_2.o(.data) for xFreeBytesRemaining
    port.o(.emb_text) refers to tasks.o(i.vTaskSwitchContext) for vTaskSwitchContext
    port.o(.emb_text) refers to tasks.o(.data) for pxCurrentTCB
    port.o(i.SysTick_Handler) refers to tasks.o(i.xTaskIncrementTick) for xTaskIncrementTick
    port.o(i.prvTaskExitError) refers to port.o(.data) for uxCriticalNesting
    port.o(i.pxPortInitialiseStack) refers to port.o(i.prvTaskExitError) for prvTaskExitError
    port.o(i.vPortEndScheduler) refers to port.o(.data) for uxCriticalNesting
    port.o(i.vPortEnterCritical) refers to port.o(.data) for uxCriticalNesting
    port.o(i.vPortExitCritical) refers to port.o(.data) for uxCriticalNesting
    port.o(i.vPortValidateInterruptPriority) refers to port.o(.emb_text) for vPortGetIPSR
    port.o(i.vPortValidateInterruptPriority) refers to port.o(.data) for ucMaxSysCallPriority
    port.o(i.xPortStartScheduler) refers to port.o(i.vPortSetupTimerInterrupt) for vPortSetupTimerInterrupt
    port.o(i.xPortStartScheduler) refers to port.o(.emb_text) for __asm___6_port_c_39a90d8d__prvEnableVFP
    port.o(i.xPortStartScheduler) refers to port.o(.data) for ucMaxSysCallPriority
    queue.o(i.pcQueueGetName) refers to queue.o(.bss) for xQueueRegistry
    queue.o(i.prvCopyDataFromQueue) refers to memcpya.o(.text) for __aeabi_memcpy
    queue.o(i.prvCopyDataToQueue) refers to tasks.o(i.xTaskPriorityDisinherit) for xTaskPriorityDisinherit
    queue.o(i.prvCopyDataToQueue) refers to memcpya.o(.text) for __aeabi_memcpy
    queue.o(i.prvInitialiseMutex) refers to queue.o(i.xQueueGenericSend) for xQueueGenericSend
    queue.o(i.prvInitialiseNewQueue) refers to queue.o(i.xQueueGenericReset) for xQueueGenericReset
    queue.o(i.prvIsQueueEmpty) refers to port.o(i.vPortEnterCritical) for vPortEnterCritical
    queue.o(i.prvIsQueueEmpty) refers to port.o(i.vPortExitCritical) for vPortExitCritical
    queue.o(i.prvIsQueueFull) refers to port.o(i.vPortEnterCritical) for vPortEnterCritical
    queue.o(i.prvIsQueueFull) refers to port.o(i.vPortExitCritical) for vPortExitCritical
    queue.o(i.prvUnlockQueue) refers to port.o(i.vPortEnterCritical) for vPortEnterCritical
    queue.o(i.prvUnlockQueue) refers to tasks.o(i.xTaskRemoveFromEventList) for xTaskRemoveFromEventList
    queue.o(i.prvUnlockQueue) refers to tasks.o(i.vTaskMissedYield) for vTaskMissedYield
    queue.o(i.prvUnlockQueue) refers to port.o(i.vPortExitCritical) for vPortExitCritical
    queue.o(i.uxQueueMessagesWaiting) refers to port.o(i.vPortEnterCritical) for vPortEnterCritical
    queue.o(i.uxQueueMessagesWaiting) refers to port.o(i.vPortExitCritical) for vPortExitCritical
    queue.o(i.uxQueueSpacesAvailable) refers to port.o(i.vPortEnterCritical) for vPortEnterCritical
    queue.o(i.uxQueueSpacesAvailable) refers to port.o(i.vPortExitCritical) for vPortExitCritical
    queue.o(i.vQueueAddToRegistry) refers to queue.o(.bss) for xQueueRegistry
    queue.o(i.vQueueDelete) refers to queue.o(i.vQueueUnregisterQueue) for vQueueUnregisterQueue
    queue.o(i.vQueueDelete) refers to heap_2.o(i.vPortFree) for vPortFree
    queue.o(i.vQueueUnregisterQueue) refers to queue.o(.bss) for xQueueRegistry
    queue.o(i.vQueueWaitForMessageRestricted) refers to port.o(i.vPortEnterCritical) for vPortEnterCritical
    queue.o(i.vQueueWaitForMessageRestricted) refers to port.o(i.vPortExitCritical) for vPortExitCritical
    queue.o(i.vQueueWaitForMessageRestricted) refers to tasks.o(i.vTaskPlaceOnEventListRestricted) for vTaskPlaceOnEventListRestricted
    queue.o(i.vQueueWaitForMessageRestricted) refers to queue.o(i.prvUnlockQueue) for prvUnlockQueue
    queue.o(i.xQueueCreateCountingSemaphore) refers to queue.o(i.xQueueGenericCreate) for xQueueGenericCreate
    queue.o(i.xQueueCreateMutex) refers to queue.o(i.xQueueGenericCreate) for xQueueGenericCreate
    queue.o(i.xQueueCreateMutex) refers to queue.o(i.prvInitialiseMutex) for prvInitialiseMutex
    queue.o(i.xQueueGenericCreate) refers to heap_2.o(i.pvPortMalloc) for pvPortMalloc
    queue.o(i.xQueueGenericCreate) refers to queue.o(i.prvInitialiseNewQueue) for prvInitialiseNewQueue
    queue.o(i.xQueueGenericReceive) refers to tasks.o(i.xTaskGetSchedulerState) for xTaskGetSchedulerState
    queue.o(i.xQueueGenericReceive) refers to port.o(i.vPortEnterCritical) for vPortEnterCritical
    queue.o(i.xQueueGenericReceive) refers to queue.o(i.prvCopyDataFromQueue) for prvCopyDataFromQueue
    queue.o(i.xQueueGenericReceive) refers to tasks.o(i.pvTaskIncrementMutexHeldCount) for pvTaskIncrementMutexHeldCount
    queue.o(i.xQueueGenericReceive) refers to tasks.o(i.xTaskRemoveFromEventList) for xTaskRemoveFromEventList
    queue.o(i.xQueueGenericReceive) refers to port.o(i.vPortExitCritical) for vPortExitCritical
    queue.o(i.xQueueGenericReceive) refers to tasks.o(i.vTaskSetTimeOutState) for vTaskSetTimeOutState
    queue.o(i.xQueueGenericReceive) refers to tasks.o(i.vTaskSuspendAll) for vTaskSuspendAll
    queue.o(i.xQueueGenericReceive) refers to tasks.o(i.xTaskCheckForTimeOut) for xTaskCheckForTimeOut
    queue.o(i.xQueueGenericReceive) refers to queue.o(i.prvIsQueueEmpty) for prvIsQueueEmpty
    queue.o(i.xQueueGenericReceive) refers to tasks.o(i.vTaskPriorityInherit) for vTaskPriorityInherit
    queue.o(i.xQueueGenericReceive) refers to tasks.o(i.vTaskPlaceOnEventList) for vTaskPlaceOnEventList
    queue.o(i.xQueueGenericReceive) refers to queue.o(i.prvUnlockQueue) for prvUnlockQueue
    queue.o(i.xQueueGenericReceive) refers to tasks.o(i.xTaskResumeAll) for xTaskResumeAll
    queue.o(i.xQueueGenericReset) refers to port.o(i.vPortEnterCritical) for vPortEnterCritical
    queue.o(i.xQueueGenericReset) refers to tasks.o(i.xTaskRemoveFromEventList) for xTaskRemoveFromEventList
    queue.o(i.xQueueGenericReset) refers to list.o(i.vListInitialise) for vListInitialise
    queue.o(i.xQueueGenericReset) refers to port.o(i.vPortExitCritical) for vPortExitCritical
    queue.o(i.xQueueGenericSend) refers to tasks.o(i.xTaskGetSchedulerState) for xTaskGetSchedulerState
    queue.o(i.xQueueGenericSend) refers to port.o(i.vPortEnterCritical) for vPortEnterCritical
    queue.o(i.xQueueGenericSend) refers to queue.o(i.prvCopyDataToQueue) for prvCopyDataToQueue
    queue.o(i.xQueueGenericSend) refers to tasks.o(i.xTaskRemoveFromEventList) for xTaskRemoveFromEventList
    queue.o(i.xQueueGenericSend) refers to port.o(i.vPortExitCritical) for vPortExitCritical
    queue.o(i.xQueueGenericSend) refers to tasks.o(i.vTaskSetTimeOutState) for vTaskSetTimeOutState
    queue.o(i.xQueueGenericSend) refers to tasks.o(i.vTaskSuspendAll) for vTaskSuspendAll
    queue.o(i.xQueueGenericSend) refers to tasks.o(i.xTaskCheckForTimeOut) for xTaskCheckForTimeOut
    queue.o(i.xQueueGenericSend) refers to queue.o(i.prvIsQueueFull) for prvIsQueueFull
    queue.o(i.xQueueGenericSend) refers to tasks.o(i.vTaskPlaceOnEventList) for vTaskPlaceOnEventList
    queue.o(i.xQueueGenericSend) refers to queue.o(i.prvUnlockQueue) for prvUnlockQueue
    queue.o(i.xQueueGenericSend) refers to tasks.o(i.xTaskResumeAll) for xTaskResumeAll
    queue.o(i.xQueueGenericSendFromISR) refers to port.o(i.vPortValidateInterruptPriority) for vPortValidateInterruptPriority
    queue.o(i.xQueueGenericSendFromISR) refers to queue.o(i.prvCopyDataToQueue) for prvCopyDataToQueue
    queue.o(i.xQueueGenericSendFromISR) refers to tasks.o(i.xTaskRemoveFromEventList) for xTaskRemoveFromEventList
    queue.o(i.xQueueGetMutexHolder) refers to port.o(i.vPortEnterCritical) for vPortEnterCritical
    queue.o(i.xQueueGetMutexHolder) refers to port.o(i.vPortExitCritical) for vPortExitCritical
    queue.o(i.xQueueGiveFromISR) refers to port.o(i.vPortValidateInterruptPriority) for vPortValidateInterruptPriority
    queue.o(i.xQueueGiveFromISR) refers to tasks.o(i.xTaskRemoveFromEventList) for xTaskRemoveFromEventList
    queue.o(i.xQueueGiveMutexRecursive) refers to tasks.o(i.xTaskGetCurrentTaskHandle) for xTaskGetCurrentTaskHandle
    queue.o(i.xQueueGiveMutexRecursive) refers to queue.o(i.xQueueGenericSend) for xQueueGenericSend
    queue.o(i.xQueuePeekFromISR) refers to port.o(i.vPortValidateInterruptPriority) for vPortValidateInterruptPriority
    queue.o(i.xQueuePeekFromISR) refers to queue.o(i.prvCopyDataFromQueue) for prvCopyDataFromQueue
    queue.o(i.xQueueReceiveFromISR) refers to port.o(i.vPortValidateInterruptPriority) for vPortValidateInterruptPriority
    queue.o(i.xQueueReceiveFromISR) refers to queue.o(i.prvCopyDataFromQueue) for prvCopyDataFromQueue
    queue.o(i.xQueueReceiveFromISR) refers to tasks.o(i.xTaskRemoveFromEventList) for xTaskRemoveFromEventList
    queue.o(i.xQueueTakeMutexRecursive) refers to tasks.o(i.xTaskGetCurrentTaskHandle) for xTaskGetCurrentTaskHandle
    queue.o(i.xQueueTakeMutexRecursive) refers to queue.o(i.xQueueGenericReceive) for xQueueGenericReceive
    tasks.o(i.eTaskGetState) refers to port.o(i.vPortEnterCritical) for vPortEnterCritical
    tasks.o(i.eTaskGetState) refers to port.o(i.vPortExitCritical) for vPortExitCritical
    tasks.o(i.eTaskGetState) refers to tasks.o(.data) for pxCurrentTCB
    tasks.o(i.eTaskGetState) refers to tasks.o(.bss) for xSuspendedTaskList
    tasks.o(i.pcTaskGetName) refers to tasks.o(.data) for pxCurrentTCB
    tasks.o(i.prvAddCurrentTaskToDelayedList) refers to list.o(i.uxListRemove) for uxListRemove
    tasks.o(i.prvAddCurrentTaskToDelayedList) refers to list.o(i.vListInsertEnd) for vListInsertEnd
    tasks.o(i.prvAddCurrentTaskToDelayedList) refers to list.o(i.vListInsert) for vListInsert
    tasks.o(i.prvAddCurrentTaskToDelayedList) refers to tasks.o(.data) for xTickCount
    tasks.o(i.prvAddCurrentTaskToDelayedList) refers to tasks.o(.bss) for xSuspendedTaskList
    tasks.o(i.prvAddNewTaskToReadyList) refers to port.o(i.vPortEnterCritical) for vPortEnterCritical
    tasks.o(i.prvAddNewTaskToReadyList) refers to tasks.o(i.prvInitialiseTaskLists) for prvInitialiseTaskLists
    tasks.o(i.prvAddNewTaskToReadyList) refers to list.o(i.vListInsertEnd) for vListInsertEnd
    tasks.o(i.prvAddNewTaskToReadyList) refers to port.o(i.vPortExitCritical) for vPortExitCritical
    tasks.o(i.prvAddNewTaskToReadyList) refers to tasks.o(.data) for uxCurrentNumberOfTasks
    tasks.o(i.prvAddNewTaskToReadyList) refers to tasks.o(.bss) for pxReadyTasksLists
    tasks.o(i.prvCheckTasksWaitingTermination) refers to tasks.o(i.vTaskSuspendAll) for vTaskSuspendAll
    tasks.o(i.prvCheckTasksWaitingTermination) refers to tasks.o(i.xTaskResumeAll) for xTaskResumeAll
    tasks.o(i.prvCheckTasksWaitingTermination) refers to port.o(i.vPortEnterCritical) for vPortEnterCritical
    tasks.o(i.prvCheckTasksWaitingTermination) refers to list.o(i.uxListRemove) for uxListRemove
    tasks.o(i.prvCheckTasksWaitingTermination) refers to port.o(i.vPortExitCritical) for vPortExitCritical
    tasks.o(i.prvCheckTasksWaitingTermination) refers to tasks.o(i.prvDeleteTCB) for prvDeleteTCB
    tasks.o(i.prvCheckTasksWaitingTermination) refers to tasks.o(.bss) for xTasksWaitingTermination
    tasks.o(i.prvCheckTasksWaitingTermination) refers to tasks.o(.data) for uxCurrentNumberOfTasks
    tasks.o(i.prvDeleteTCB) refers to heap_2.o(i.vPortFree) for vPortFree
    tasks.o(i.prvIdleTask) refers to tasks.o(i.prvCheckTasksWaitingTermination) for prvCheckTasksWaitingTermination
    tasks.o(i.prvIdleTask) refers to main.o(i.vApplicationIdleHook) for vApplicationIdleHook
    tasks.o(i.prvInitialiseNewTask) refers to memseta.o(.text) for __aeabi_memset
    tasks.o(i.prvInitialiseNewTask) refers to list.o(i.vListInitialiseItem) for vListInitialiseItem
    tasks.o(i.prvInitialiseNewTask) refers to port.o(i.pxPortInitialiseStack) for pxPortInitialiseStack
    tasks.o(i.prvInitialiseTaskLists) refers to list.o(i.vListInitialise) for vListInitialise
    tasks.o(i.prvInitialiseTaskLists) refers to tasks.o(.bss) for pxReadyTasksLists
    tasks.o(i.prvInitialiseTaskLists) refers to tasks.o(.data) for pxDelayedTaskList
    tasks.o(i.prvListTasksWithinSingleList) refers to tasks.o(i.vTaskGetInfo) for vTaskGetInfo
    tasks.o(i.prvResetNextTaskUnblockTime) refers to tasks.o(.data) for pxDelayedTaskList
    tasks.o(i.prvTaskIsTaskSuspended) refers to tasks.o(.bss) for xSuspendedTaskList
    tasks.o(i.pvTaskIncrementMutexHeldCount) refers to tasks.o(.data) for pxCurrentTCB
    tasks.o(i.ulTaskNotifyTake) refers to port.o(i.vPortEnterCritical) for vPortEnterCritical
    tasks.o(i.ulTaskNotifyTake) refers to tasks.o(i.prvAddCurrentTaskToDelayedList) for prvAddCurrentTaskToDelayedList
    tasks.o(i.ulTaskNotifyTake) refers to port.o(i.vPortExitCritical) for vPortExitCritical
    tasks.o(i.ulTaskNotifyTake) refers to tasks.o(.data) for pxCurrentTCB
    tasks.o(i.uxTaskGetNumberOfTasks) refers to tasks.o(.data) for uxCurrentNumberOfTasks
    tasks.o(i.uxTaskGetSystemState) refers to tasks.o(i.vTaskSuspendAll) for vTaskSuspendAll
    tasks.o(i.uxTaskGetSystemState) refers to tasks.o(i.prvListTasksWithinSingleList) for prvListTasksWithinSingleList
    tasks.o(i.uxTaskGetSystemState) refers to tasks.o(i.xTaskResumeAll) for xTaskResumeAll
    tasks.o(i.uxTaskGetSystemState) refers to tasks.o(.data) for uxCurrentNumberOfTasks
    tasks.o(i.uxTaskGetSystemState) refers to tasks.o(.bss) for pxReadyTasksLists
    tasks.o(i.uxTaskPriorityGet) refers to port.o(i.vPortEnterCritical) for vPortEnterCritical
    tasks.o(i.uxTaskPriorityGet) refers to port.o(i.vPortExitCritical) for vPortExitCritical
    tasks.o(i.uxTaskPriorityGet) refers to tasks.o(.data) for pxCurrentTCB
    tasks.o(i.uxTaskPriorityGetFromISR) refers to port.o(i.vPortValidateInterruptPriority) for vPortValidateInterruptPriority
    tasks.o(i.uxTaskPriorityGetFromISR) refers to tasks.o(.data) for pxCurrentTCB
    tasks.o(i.uxTaskResetEventItemValue) refers to tasks.o(.data) for pxCurrentTCB
    tasks.o(i.vTaskDelay) refers to tasks.o(i.vTaskSuspendAll) for vTaskSuspendAll
    tasks.o(i.vTaskDelay) refers to tasks.o(i.prvAddCurrentTaskToDelayedList) for prvAddCurrentTaskToDelayedList
    tasks.o(i.vTaskDelay) refers to tasks.o(i.xTaskResumeAll) for xTaskResumeAll
    tasks.o(i.vTaskDelay) refers to tasks.o(.data) for uxSchedulerSuspended
    tasks.o(i.vTaskDelayUntil) refers to tasks.o(i.vTaskSuspendAll) for vTaskSuspendAll
    tasks.o(i.vTaskDelayUntil) refers to tasks.o(i.prvAddCurrentTaskToDelayedList) for prvAddCurrentTaskToDelayedList
    tasks.o(i.vTaskDelayUntil) refers to tasks.o(i.xTaskResumeAll) for xTaskResumeAll
    tasks.o(i.vTaskDelayUntil) refers to tasks.o(.data) for uxSchedulerSuspended
    tasks.o(i.vTaskDelete) refers to port.o(i.vPortEnterCritical) for vPortEnterCritical
    tasks.o(i.vTaskDelete) refers to list.o(i.uxListRemove) for uxListRemove
    tasks.o(i.vTaskDelete) refers to list.o(i.vListInsertEnd) for vListInsertEnd
    tasks.o(i.vTaskDelete) refers to tasks.o(i.prvDeleteTCB) for prvDeleteTCB
    tasks.o(i.vTaskDelete) refers to tasks.o(i.prvResetNextTaskUnblockTime) for prvResetNextTaskUnblockTime
    tasks.o(i.vTaskDelete) refers to port.o(i.vPortExitCritical) for vPortExitCritical
    tasks.o(i.vTaskDelete) refers to tasks.o(.data) for pxCurrentTCB
    tasks.o(i.vTaskDelete) refers to tasks.o(.bss) for pxReadyTasksLists
    tasks.o(i.vTaskEndScheduler) refers to port.o(i.vPortEndScheduler) for vPortEndScheduler
    tasks.o(i.vTaskEndScheduler) refers to tasks.o(.data) for xSchedulerRunning
    tasks.o(i.vTaskGetInfo) refers to tasks.o(i.vTaskSuspendAll) for vTaskSuspendAll
    tasks.o(i.vTaskGetInfo) refers to tasks.o(i.xTaskResumeAll) for xTaskResumeAll
    tasks.o(i.vTaskGetInfo) refers to tasks.o(i.eTaskGetState) for eTaskGetState
    tasks.o(i.vTaskGetInfo) refers to tasks.o(i.prvTaskCheckFreeStackSpace) for prvTaskCheckFreeStackSpace
    tasks.o(i.vTaskGetInfo) refers to tasks.o(.data) for pxCurrentTCB
    tasks.o(i.vTaskMissedYield) refers to tasks.o(.data) for xYieldPending
    tasks.o(i.vTaskNotifyGiveFromISR) refers to port.o(i.vPortValidateInterruptPriority) for vPortValidateInterruptPriority
    tasks.o(i.vTaskNotifyGiveFromISR) refers to list.o(i.uxListRemove) for uxListRemove
    tasks.o(i.vTaskNotifyGiveFromISR) refers to list.o(i.vListInsertEnd) for vListInsertEnd
    tasks.o(i.vTaskNotifyGiveFromISR) refers to tasks.o(.data) for uxSchedulerSuspended
    tasks.o(i.vTaskNotifyGiveFromISR) refers to tasks.o(.bss) for pxReadyTasksLists
    tasks.o(i.vTaskPlaceOnEventList) refers to list.o(i.vListInsert) for vListInsert
    tasks.o(i.vTaskPlaceOnEventList) refers to tasks.o(i.prvAddCurrentTaskToDelayedList) for prvAddCurrentTaskToDelayedList
    tasks.o(i.vTaskPlaceOnEventList) refers to tasks.o(.data) for pxCurrentTCB
    tasks.o(i.vTaskPlaceOnEventListRestricted) refers to list.o(i.vListInsertEnd) for vListInsertEnd
    tasks.o(i.vTaskPlaceOnEventListRestricted) refers to tasks.o(i.prvAddCurrentTaskToDelayedList) for prvAddCurrentTaskToDelayedList
    tasks.o(i.vTaskPlaceOnEventListRestricted) refers to tasks.o(.data) for pxCurrentTCB
    tasks.o(i.vTaskPlaceOnUnorderedEventList) refers to list.o(i.vListInsertEnd) for vListInsertEnd
    tasks.o(i.vTaskPlaceOnUnorderedEventList) refers to tasks.o(i.prvAddCurrentTaskToDelayedList) for prvAddCurrentTaskToDelayedList
    tasks.o(i.vTaskPlaceOnUnorderedEventList) refers to tasks.o(.data) for uxSchedulerSuspended
    tasks.o(i.vTaskPriorityInherit) refers to list.o(i.uxListRemove) for uxListRemove
    tasks.o(i.vTaskPriorityInherit) refers to list.o(i.vListInsertEnd) for vListInsertEnd
    tasks.o(i.vTaskPriorityInherit) refers to tasks.o(.data) for pxCurrentTCB
    tasks.o(i.vTaskPriorityInherit) refers to tasks.o(.bss) for pxReadyTasksLists
    tasks.o(i.vTaskPrioritySet) refers to port.o(i.vPortEnterCritical) for vPortEnterCritical
    tasks.o(i.vTaskPrioritySet) refers to list.o(i.uxListRemove) for uxListRemove
    tasks.o(i.vTaskPrioritySet) refers to list.o(i.vListInsertEnd) for vListInsertEnd
    tasks.o(i.vTaskPrioritySet) refers to port.o(i.vPortExitCritical) for vPortExitCritical
    tasks.o(i.vTaskPrioritySet) refers to tasks.o(.data) for pxCurrentTCB
    tasks.o(i.vTaskPrioritySet) refers to tasks.o(.bss) for pxReadyTasksLists
    tasks.o(i.vTaskResume) refers to port.o(i.vPortEnterCritical) for vPortEnterCritical
    tasks.o(i.vTaskResume) refers to tasks.o(i.prvTaskIsTaskSuspended) for prvTaskIsTaskSuspended
    tasks.o(i.vTaskResume) refers to list.o(i.uxListRemove) for uxListRemove
    tasks.o(i.vTaskResume) refers to list.o(i.vListInsertEnd) for vListInsertEnd
    tasks.o(i.vTaskResume) refers to port.o(i.vPortExitCritical) for vPortExitCritical
    tasks.o(i.vTaskResume) refers to tasks.o(.data) for pxCurrentTCB
    tasks.o(i.vTaskResume) refers to tasks.o(.bss) for pxReadyTasksLists
    tasks.o(i.vTaskSetTimeOutState) refers to tasks.o(.data) for xNumOfOverflows
    tasks.o(i.vTaskStartScheduler) refers to tasks.o(i.xTaskCreate) for xTaskCreate
    tasks.o(i.vTaskStartScheduler) refers to timers.o(i.xTimerCreateTimerTask) for xTimerCreateTimerTask
    tasks.o(i.vTaskStartScheduler) refers to port.o(i.xPortStartScheduler) for xPortStartScheduler
    tasks.o(i.vTaskStartScheduler) refers to tasks.o(.data) for xIdleTaskHandle
    tasks.o(i.vTaskStartScheduler) refers to tasks.o(i.prvIdleTask) for prvIdleTask
    tasks.o(i.vTaskSuspend) refers to port.o(i.vPortEnterCritical) for vPortEnterCritical
    tasks.o(i.vTaskSuspend) refers to list.o(i.uxListRemove) for uxListRemove
    tasks.o(i.vTaskSuspend) refers to list.o(i.vListInsertEnd) for vListInsertEnd
    tasks.o(i.vTaskSuspend) refers to port.o(i.vPortExitCritical) for vPortExitCritical
    tasks.o(i.vTaskSuspend) refers to tasks.o(i.prvResetNextTaskUnblockTime) for prvResetNextTaskUnblockTime
    tasks.o(i.vTaskSuspend) refers to tasks.o(i.vTaskSwitchContext) for vTaskSwitchContext
    tasks.o(i.vTaskSuspend) refers to tasks.o(.data) for pxCurrentTCB
    tasks.o(i.vTaskSuspend) refers to tasks.o(.bss) for pxReadyTasksLists
    tasks.o(i.vTaskSuspendAll) refers to tasks.o(.data) for uxSchedulerSuspended
    tasks.o(i.vTaskSwitchContext) refers to main.o(i.vApplicationStackOverflowHook) for vApplicationStackOverflowHook
    tasks.o(i.vTaskSwitchContext) refers to tasks.o(.data) for uxSchedulerSuspended
    tasks.o(i.vTaskSwitchContext) refers to tasks.o(.bss) for pxReadyTasksLists
    tasks.o(i.xTaskCheckForTimeOut) refers to port.o(i.vPortEnterCritical) for vPortEnterCritical
    tasks.o(i.xTaskCheckForTimeOut) refers to tasks.o(i.vTaskSetTimeOutState) for vTaskSetTimeOutState
    tasks.o(i.xTaskCheckForTimeOut) refers to port.o(i.vPortExitCritical) for vPortExitCritical
    tasks.o(i.xTaskCheckForTimeOut) refers to tasks.o(.data) for xTickCount
    tasks.o(i.xTaskCreate) refers to heap_2.o(i.pvPortMalloc) for pvPortMalloc
    tasks.o(i.xTaskCreate) refers to heap_2.o(i.vPortFree) for vPortFree
    tasks.o(i.xTaskCreate) refers to tasks.o(i.prvInitialiseNewTask) for prvInitialiseNewTask
    tasks.o(i.xTaskCreate) refers to tasks.o(i.prvAddNewTaskToReadyList) for prvAddNewTaskToReadyList
    tasks.o(i.xTaskGenericNotify) refers to port.o(i.vPortEnterCritical) for vPortEnterCritical
    tasks.o(i.xTaskGenericNotify) refers to list.o(i.uxListRemove) for uxListRemove
    tasks.o(i.xTaskGenericNotify) refers to list.o(i.vListInsertEnd) for vListInsertEnd
    tasks.o(i.xTaskGenericNotify) refers to port.o(i.vPortExitCritical) for vPortExitCritical
    tasks.o(i.xTaskGenericNotify) refers to tasks.o(.data) for uxTopReadyPriority
    tasks.o(i.xTaskGenericNotify) refers to tasks.o(.bss) for pxReadyTasksLists
    tasks.o(i.xTaskGenericNotifyFromISR) refers to port.o(i.vPortValidateInterruptPriority) for vPortValidateInterruptPriority
    tasks.o(i.xTaskGenericNotifyFromISR) refers to list.o(i.uxListRemove) for uxListRemove
    tasks.o(i.xTaskGenericNotifyFromISR) refers to list.o(i.vListInsertEnd) for vListInsertEnd
    tasks.o(i.xTaskGenericNotifyFromISR) refers to tasks.o(.data) for uxSchedulerSuspended
    tasks.o(i.xTaskGenericNotifyFromISR) refers to tasks.o(.bss) for pxReadyTasksLists
    tasks.o(i.xTaskGetCurrentTaskHandle) refers to tasks.o(.data) for pxCurrentTCB
    tasks.o(i.xTaskGetSchedulerState) refers to tasks.o(.data) for xSchedulerRunning
    tasks.o(i.xTaskGetTickCount) refers to tasks.o(.data) for xTickCount
    tasks.o(i.xTaskGetTickCountFromISR) refers to port.o(i.vPortValidateInterruptPriority) for vPortValidateInterruptPriority
    tasks.o(i.xTaskGetTickCountFromISR) refers to tasks.o(.data) for xTickCount
    tasks.o(i.xTaskIncrementTick) refers to tasks.o(i.prvResetNextTaskUnblockTime) for prvResetNextTaskUnblockTime
    tasks.o(i.xTaskIncrementTick) refers to list.o(i.uxListRemove) for uxListRemove
    tasks.o(i.xTaskIncrementTick) refers to list.o(i.vListInsertEnd) for vListInsertEnd
    tasks.o(i.xTaskIncrementTick) refers to tasks.o(.data) for uxSchedulerSuspended
    tasks.o(i.xTaskIncrementTick) refers to tasks.o(.bss) for pxReadyTasksLists
    tasks.o(i.xTaskNotifyStateClear) refers to port.o(i.vPortEnterCritical) for vPortEnterCritical
    tasks.o(i.xTaskNotifyStateClear) refers to port.o(i.vPortExitCritical) for vPortExitCritical
    tasks.o(i.xTaskNotifyStateClear) refers to tasks.o(.data) for pxCurrentTCB
    tasks.o(i.xTaskNotifyWait) refers to port.o(i.vPortEnterCritical) for vPortEnterCritical
    tasks.o(i.xTaskNotifyWait) refers to tasks.o(i.prvAddCurrentTaskToDelayedList) for prvAddCurrentTaskToDelayedList
    tasks.o(i.xTaskNotifyWait) refers to port.o(i.vPortExitCritical) for vPortExitCritical
    tasks.o(i.xTaskNotifyWait) refers to tasks.o(.data) for pxCurrentTCB
    tasks.o(i.xTaskPriorityDisinherit) refers to list.o(i.uxListRemove) for uxListRemove
    tasks.o(i.xTaskPriorityDisinherit) refers to list.o(i.vListInsertEnd) for vListInsertEnd
    tasks.o(i.xTaskPriorityDisinherit) refers to tasks.o(.data) for pxCurrentTCB
    tasks.o(i.xTaskPriorityDisinherit) refers to tasks.o(.bss) for pxReadyTasksLists
    tasks.o(i.xTaskRemoveFromEventList) refers to list.o(i.uxListRemove) for uxListRemove
    tasks.o(i.xTaskRemoveFromEventList) refers to list.o(i.vListInsertEnd) for vListInsertEnd
    tasks.o(i.xTaskRemoveFromEventList) refers to tasks.o(.data) for uxSchedulerSuspended
    tasks.o(i.xTaskRemoveFromEventList) refers to tasks.o(.bss) for pxReadyTasksLists
    tasks.o(i.xTaskRemoveFromUnorderedEventList) refers to list.o(i.uxListRemove) for uxListRemove
    tasks.o(i.xTaskRemoveFromUnorderedEventList) refers to list.o(i.vListInsertEnd) for vListInsertEnd
    tasks.o(i.xTaskRemoveFromUnorderedEventList) refers to tasks.o(.data) for uxSchedulerSuspended
    tasks.o(i.xTaskRemoveFromUnorderedEventList) refers to tasks.o(.bss) for pxReadyTasksLists
    tasks.o(i.xTaskResumeAll) refers to port.o(i.vPortEnterCritical) for vPortEnterCritical
    tasks.o(i.xTaskResumeAll) refers to list.o(i.uxListRemove) for uxListRemove
    tasks.o(i.xTaskResumeAll) refers to list.o(i.vListInsertEnd) for vListInsertEnd
    tasks.o(i.xTaskResumeAll) refers to tasks.o(i.prvResetNextTaskUnblockTime) for prvResetNextTaskUnblockTime
    tasks.o(i.xTaskResumeAll) refers to tasks.o(i.xTaskIncrementTick) for xTaskIncrementTick
    tasks.o(i.xTaskResumeAll) refers to port.o(i.vPortExitCritical) for vPortExitCritical
    tasks.o(i.xTaskResumeAll) refers to tasks.o(.data) for uxSchedulerSuspended
    tasks.o(i.xTaskResumeAll) refers to tasks.o(.bss) for xPendingReadyList
    tasks.o(i.xTaskResumeFromISR) refers to port.o(i.vPortValidateInterruptPriority) for vPortValidateInterruptPriority
    tasks.o(i.xTaskResumeFromISR) refers to tasks.o(i.prvTaskIsTaskSuspended) for prvTaskIsTaskSuspended
    tasks.o(i.xTaskResumeFromISR) refers to list.o(i.uxListRemove) for uxListRemove
    tasks.o(i.xTaskResumeFromISR) refers to list.o(i.vListInsertEnd) for vListInsertEnd
    tasks.o(i.xTaskResumeFromISR) refers to tasks.o(.data) for uxSchedulerSuspended
    tasks.o(i.xTaskResumeFromISR) refers to tasks.o(.bss) for pxReadyTasksLists
    timers.o(i.prvCheckForValidListAndQueue) refers to port.o(i.vPortEnterCritical) for vPortEnterCritical
    timers.o(i.prvCheckForValidListAndQueue) refers to list.o(i.vListInitialise) for vListInitialise
    timers.o(i.prvCheckForValidListAndQueue) refers to queue.o(i.xQueueGenericCreate) for xQueueGenericCreate
    timers.o(i.prvCheckForValidListAndQueue) refers to queue.o(i.vQueueAddToRegistry) for vQueueAddToRegistry
    timers.o(i.prvCheckForValidListAndQueue) refers to port.o(i.vPortExitCritical) for vPortExitCritical
    timers.o(i.prvCheckForValidListAndQueue) refers to timers.o(.data) for xTimerQueue
    timers.o(i.prvCheckForValidListAndQueue) refers to timers.o(.bss) for xActiveTimerList1
    timers.o(i.prvGetNextExpireTime) refers to timers.o(.data) for pxCurrentTimerList
    timers.o(i.prvInitialiseNewTimer) refers to timers.o(i.prvCheckForValidListAndQueue) for prvCheckForValidListAndQueue
    timers.o(i.prvInitialiseNewTimer) refers to list.o(i.vListInitialiseItem) for vListInitialiseItem
    timers.o(i.prvInsertTimerInActiveList) refers to list.o(i.vListInsert) for vListInsert
    timers.o(i.prvInsertTimerInActiveList) refers to timers.o(.data) for pxOverflowTimerList
    timers.o(i.prvProcessExpiredTimer) refers to list.o(i.uxListRemove) for uxListRemove
    timers.o(i.prvProcessExpiredTimer) refers to timers.o(i.prvInsertTimerInActiveList) for prvInsertTimerInActiveList
    timers.o(i.prvProcessExpiredTimer) refers to timers.o(i.xTimerGenericCommand) for xTimerGenericCommand
    timers.o(i.prvProcessExpiredTimer) refers to timers.o(.data) for pxCurrentTimerList
    timers.o(i.prvProcessReceivedCommands) refers to list.o(i.uxListRemove) for uxListRemove
    timers.o(i.prvProcessReceivedCommands) refers to timers.o(i.prvSampleTimeNow) for prvSampleTimeNow
    timers.o(i.prvProcessReceivedCommands) refers to timers.o(i.prvInsertTimerInActiveList) for prvInsertTimerInActiveList
    timers.o(i.prvProcessReceivedCommands) refers to timers.o(i.xTimerGenericCommand) for xTimerGenericCommand
    timers.o(i.prvProcessReceivedCommands) refers to heap_2.o(i.vPortFree) for vPortFree
    timers.o(i.prvProcessReceivedCommands) refers to queue.o(i.xQueueGenericReceive) for xQueueGenericReceive
    timers.o(i.prvProcessReceivedCommands) refers to timers.o(.data) for xTimerQueue
    timers.o(i.prvProcessTimerOrBlockTask) refers to tasks.o(i.vTaskSuspendAll) for vTaskSuspendAll
    timers.o(i.prvProcessTimerOrBlockTask) refers to timers.o(i.prvSampleTimeNow) for prvSampleTimeNow
    timers.o(i.prvProcessTimerOrBlockTask) refers to tasks.o(i.xTaskResumeAll) for xTaskResumeAll
    timers.o(i.prvProcessTimerOrBlockTask) refers to timers.o(i.prvProcessExpiredTimer) for prvProcessExpiredTimer
    timers.o(i.prvProcessTimerOrBlockTask) refers to queue.o(i.vQueueWaitForMessageRestricted) for vQueueWaitForMessageRestricted
    timers.o(i.prvProcessTimerOrBlockTask) refers to timers.o(.data) for pxOverflowTimerList
    timers.o(i.prvSampleTimeNow) refers to tasks.o(i.xTaskGetTickCount) for xTaskGetTickCount
    timers.o(i.prvSampleTimeNow) refers to timers.o(i.prvSwitchTimerLists) for prvSwitchTimerLists
    timers.o(i.prvSampleTimeNow) refers to timers.o(.data) for xLastTime
    timers.o(i.prvSwitchTimerLists) refers to list.o(i.uxListRemove) for uxListRemove
    timers.o(i.prvSwitchTimerLists) refers to list.o(i.vListInsert) for vListInsert
    timers.o(i.prvSwitchTimerLists) refers to timers.o(i.xTimerGenericCommand) for xTimerGenericCommand
    timers.o(i.prvSwitchTimerLists) refers to timers.o(.data) for pxCurrentTimerList
    timers.o(i.prvTimerTask) refers to timers.o(i.prvGetNextExpireTime) for prvGetNextExpireTime
    timers.o(i.prvTimerTask) refers to timers.o(i.prvProcessTimerOrBlockTask) for prvProcessTimerOrBlockTask
    timers.o(i.prvTimerTask) refers to timers.o(i.prvProcessReceivedCommands) for prvProcessReceivedCommands
    timers.o(i.pvTimerGetTimerID) refers to port.o(i.vPortEnterCritical) for vPortEnterCritical
    timers.o(i.pvTimerGetTimerID) refers to port.o(i.vPortExitCritical) for vPortExitCritical
    timers.o(i.vTimerSetTimerID) refers to port.o(i.vPortEnterCritical) for vPortEnterCritical
    timers.o(i.vTimerSetTimerID) refers to port.o(i.vPortExitCritical) for vPortExitCritical
    timers.o(i.xTimerCreate) refers to heap_2.o(i.pvPortMalloc) for pvPortMalloc
    timers.o(i.xTimerCreate) refers to timers.o(i.prvInitialiseNewTimer) for prvInitialiseNewTimer
    timers.o(i.xTimerCreateTimerTask) refers to timers.o(i.prvCheckForValidListAndQueue) for prvCheckForValidListAndQueue
    timers.o(i.xTimerCreateTimerTask) refers to tasks.o(i.xTaskCreate) for xTaskCreate
    timers.o(i.xTimerCreateTimerTask) refers to timers.o(.data) for xTimerQueue
    timers.o(i.xTimerCreateTimerTask) refers to timers.o(i.prvTimerTask) for prvTimerTask
    timers.o(i.xTimerGenericCommand) refers to tasks.o(i.xTaskGetSchedulerState) for xTaskGetSchedulerState
    timers.o(i.xTimerGenericCommand) refers to queue.o(i.xQueueGenericSend) for xQueueGenericSend
    timers.o(i.xTimerGenericCommand) refers to queue.o(i.xQueueGenericSendFromISR) for xQueueGenericSendFromISR
    timers.o(i.xTimerGenericCommand) refers to timers.o(.data) for xTimerQueue
    timers.o(i.xTimerGetTimerDaemonTaskHandle) refers to timers.o(.data) for xTimerTaskHandle
    timers.o(i.xTimerIsTimerActive) refers to port.o(i.vPortEnterCritical) for vPortEnterCritical
    timers.o(i.xTimerIsTimerActive) refers to port.o(i.vPortExitCritical) for vPortExitCritical
    ext_master.o(i._ZN10TExtMaster10all_pkt_txEPKht) refers to ext_master.o(i._ZN10TExtMaster13start_wrap_txEPKht) for TExtMaster::start_wrap_tx(const unsigned char*, unsigned short)
    ext_master.o(i._ZN10TExtMaster13start_wrap_txEPKht) refers to ext_master.o(i._ZN10TExtMaster8get_dataEv) for TExtMaster::get_data()
    ext_master.o(i._ZN10TExtMaster7tx_dataEPKhtNS_11TWrapTxSignE) refers to memcpya.o(.text) for __aeabi_memcpy4
    ext_master.o(i._ZN10TExtMaster7tx_dataEPKhtNS_11TWrapTxSignE) refers to usart_driver_.o(i._ZN6TUsart11write_burstEPKht) for TUsart::write_burst(const unsigned char*, unsigned short)
    ext_master.o(i._ZN10TExtMaster7tx_dataEPKhtNS_11TWrapTxSignE) refers to ext_master.o(.constdata) for .constdata
    ext_master.o(i._ZN10TExtMaster9parse_pktEv) refers to usart_driver_.o(i._ZN6TUsart9enable_rxEv) for TUsart::enable_rx()
    ext_master.o(i._ZN10TExtMaster9parse_pktEv) refers to usart_driver_.o(i._ZN6TUsart9read_byteEv) for TUsart::read_byte()
    ext_master.o(i._ZN10TExtMaster9parse_pktEv) refers to usart_driver_.o(i._ZN6TUsart10disable_rxEv) for TUsart::disable_rx()
    ext_master.o(i._ZN10TExtMasterC1ERK9TUsart_HW) refers to usart_driver_.o(i._ZN6TUsartC1ERK9TUsart_HWRKNS_5TSetsENS_5TModeE) for TUsart::TUsart(const TUsart_HW&, const TUsart::TSets&, TUsart::TMode)
    ext_master.o(i._ZN10TExtMasterC1ERK9TUsart_HW) refers to ext_master.o(.constdata) for .constdata
    ext_master.o(i._ZN10TExtMasterD1Ev) refers to usart_driver_.o(i._ZN6TUsartD1Ev) for TUsart::~TUsart()
    ext_master.o(.ARM.exidx) refers to ext_master.o(i._ZN10TExtMasterC1ERK9TUsart_HW) for i._ZN10TExtMasterC1ERK9TUsart_HW
    ext_master.o(.ARM.exidx) refers to ext_master.o(i._ZN10TExtMasterD1Ev) for i._ZN10TExtMasterD1Ev
    ext_master.o(.ARM.exidx) refers to ext_master.o(i._ZN10TExtMaster9parse_pktEv) for i._ZN10TExtMaster9parse_pktEv
    ext_master.o(.ARM.exidx) refers to ext_master.o(i._ZN10TExtMaster8get_dataEv) for i._ZN10TExtMaster8get_dataEv
    ext_master.o(.ARM.exidx) refers to ext_master.o(i._ZN10TExtMaster7tx_dataEPKhtNS_11TWrapTxSignE) for i._ZN10TExtMaster7tx_dataEPKhtNS_11TWrapTxSignE
    ext_master.o(.ARM.exidx) refers to ext_master.o(i._ZN10TExtMaster10no_wrap_txEPKht) for i._ZN10TExtMaster10no_wrap_txEPKht
    ext_master.o(.ARM.exidx) refers to ext_master.o(i._ZN10TExtMaster13start_wrap_txEPKht) for i._ZN10TExtMaster13start_wrap_txEPKht
    ext_master.o(.ARM.exidx) refers to ext_master.o(i._ZN10TExtMaster14finish_wrap_txEPKht) for i._ZN10TExtMaster14finish_wrap_txEPKht
    ext_master.o(.ARM.exidx) refers to ext_master.o(i._ZN10TExtMaster10all_pkt_txEPKht) for i._ZN10TExtMaster10all_pkt_txEPKht
    ext_master.o(.constdata) refers to ext_master.o(i._ZN10TExtMaster10no_wrap_txEPKht) for TExtMaster::no_wrap_tx(const unsigned char*, unsigned short)
    ext_master.o(.constdata) refers to ext_master.o(i._ZN10TExtMaster13start_wrap_txEPKht) for TExtMaster::start_wrap_tx(const unsigned char*, unsigned short)
    ext_master.o(.constdata) refers to ext_master.o(i._ZN10TExtMaster14finish_wrap_txEPKht) for TExtMaster::finish_wrap_tx(const unsigned char*, unsigned short)
    ext_master.o(.constdata) refers to ext_master.o(i._ZN10TExtMaster10all_pkt_txEPKht) for TExtMaster::all_pkt_tx(const unsigned char*, unsigned short)
    settings.o(i._ZN9TSettingsC1Ev) refers to settings.o(.constdata) for <Data1>
    settings.o(i._ZNK9TSettings10chk_accessEs) refers to settings.o(t._ZNK9TSettings9chk_paramIsEEbRKNS_6TRangeET_) for bool TSettings::chk_param<short>(const TSettings::TRange&, T1) const
    settings.o(i._ZNK9TSettings11chk_mb_addrEs) refers to settings.o(t._ZNK9TSettings9chk_paramIsEEbRKNS_6TRangeET_) for bool TSettings::chk_param<short>(const TSettings::TRange&, T1) const
    settings.o(i._ZNK9TSettings15chk_axis_rotateEs) refers to settings.o(t._ZNK9TSettings9chk_paramIsEEbRKNS_6TRangeET_) for bool TSettings::chk_param<short>(const TSettings::TRange&, T1) const
    settings.o(i._ZNK9TSettings15chk_u_baud_rateEs) refers to settings.o(t._ZNK9TSettings9chk_paramIsEEbRKNS_6TRangeET_) for bool TSettings::chk_param<short>(const TSettings::TRange&, T1) const
    settings.o(i._ZNK9TSettings19chk_roll_bias_angleEs) refers to settings.o(t._ZNK9TSettings9chk_paramIsEEbRKNS_6TRangeET_) for bool TSettings::chk_param<short>(const TSettings::TRange&, T1) const
    settings.o(i._ZNK9TSettings20chk_pitch_bias_angleEs) refers to settings.o(t._ZNK9TSettings9chk_paramIsEEbRKNS_6TRangeET_) for bool TSettings::chk_param<short>(const TSettings::TRange&, T1) const
    settings.o(i._ZNK9TSettings7chk_thrEs) refers to settings.o(t._ZNK9TSettings9chk_paramIsEEbRKNS_6TRangeET_) for bool TSettings::chk_param<short>(const TSettings::TRange&, T1) const
    settings.o(i._ZNK9TSettings8chk_biasEs) refers to settings.o(t._ZNK9TSettings9chk_paramIsEEbRKNS_6TRangeET_) for bool TSettings::chk_param<short>(const TSettings::TRange&, T1) const
    settings.o(i._ZNK9TSettings8chk_hystEs) refers to settings.o(t._ZNK9TSettings9chk_paramIsEEbRKNS_6TRangeET_) for bool TSettings::chk_param<short>(const TSettings::TRange&, T1) const
    settings.o(i._ZNK9TSettings9chk_calibEs) refers to settings.o(t._ZNK9TSettings9chk_paramIsEEbRKNS_6TRangeET_) for bool TSettings::chk_param<short>(const TSettings::TRange&, T1) const
    settings.o(i._ZNK9TSettings9chk_u_parEs) refers to settings.o(t._ZNK9TSettings9chk_paramIsEEbRKNS_6TRangeET_) for bool TSettings::chk_param<short>(const TSettings::TRange&, T1) const
    settings.o(i.__sti___12_settings_cpp_Settings) refers to settings.o(i._ZN9TSettingsC1Ev) for TSettings::TSettings()
    settings.o(i.__sti___12_settings_cpp_Settings) refers to aeabi_atexit.o(.text) for __aeabi_atexit
    settings.o(i.__sti___12_settings_cpp_Settings) refers to settings.o(.bss) for Settings
    settings.o(i.__sti___12_settings_cpp_Settings) refers to settings.o(i._ZN9TSettingsD1Ev) for TSettings::~TSettings()
    settings.o(.ARM.exidx) refers to settings.o(i._ZN9TSettingsC1Ev) for i._ZN9TSettingsC1Ev
    settings.o(.ARM.exidx) refers to settings.o(i._ZN9TSettingsD1Ev) for i._ZN9TSettingsD1Ev
    settings.o(.ARM.exidx) refers to settings.o(i._ZN9TSettings7chk_devER10MySettings) for i._ZN9TSettings7chk_devER10MySettings
    settings.o(.ARM.exidx) refers to settings.o(i._ZNK9TSettings7chk_thrEs) for i._ZNK9TSettings7chk_thrEs
    settings.o(.ARM.exidx) refers to settings.o(i._ZNK9TSettings8chk_hystEs) for i._ZNK9TSettings8chk_hystEs
    settings.o(.ARM.exidx) refers to settings.o(i._ZNK9TSettings8chk_biasEs) for i._ZNK9TSettings8chk_biasEs
    settings.o(.ARM.exidx) refers to settings.o(i._ZNK9TSettings15chk_axis_rotateEs) for i._ZNK9TSettings15chk_axis_rotateEs
    settings.o(.ARM.exidx) refers to settings.o(i._ZNK9TSettings19chk_roll_bias_angleEs) for i._ZNK9TSettings19chk_roll_bias_angleEs
    settings.o(.ARM.exidx) refers to settings.o(i._ZNK9TSettings20chk_pitch_bias_angleEs) for i._ZNK9TSettings20chk_pitch_bias_angleEs
    settings.o(.ARM.exidx) refers to settings.o(i._ZNK9TSettings11chk_mb_addrEs) for i._ZNK9TSettings11chk_mb_addrEs
    settings.o(.ARM.exidx) refers to settings.o(i._ZNK9TSettings15chk_u_baud_rateEs) for i._ZNK9TSettings15chk_u_baud_rateEs
    settings.o(.ARM.exidx) refers to settings.o(i._ZNK9TSettings9chk_u_parEs) for i._ZNK9TSettings9chk_u_parEs
    settings.o(.ARM.exidx) refers to settings.o(i._ZNK9TSettings9chk_calibEs) for i._ZNK9TSettings9chk_calibEs
    settings.o(.ARM.exidx) refers to settings.o(i._ZNK9TSettings10chk_accessEs) for i._ZNK9TSettings10chk_accessEs
    settings.o(.ARM.exidx) refers to settings.o(i.__sti___12_settings_cpp_Settings) for i.__sti___12_settings_cpp_Settings
    settings.o(.init_array) refers to settings.o(i.__sti___12_settings_cpp_Settings) for __sti___12_settings_cpp_Settings
    settings.o(.init_array) refers to cpp_init.o(.text) for __cpp_initialize__aeabi_
    lev_gauge_to_pc.o(i.EXTI15_10_IRQHandler) refers to queue.o(i.xQueueGiveFromISR) for xQueueGiveFromISR
    lev_gauge_to_pc.o(i.EXTI15_10_IRQHandler) refers to lev_gauge_to_pc.o(.bss) for ExchngToPC
    lev_gauge_to_pc.o(i.EXTI15_10_IRQHandler) refers to lev_gauge_to_pc.o(.data) for Int1HigherPriorityTaskWoken
    lev_gauge_to_pc.o(i.EXTI15_10_IRQHandler) refers to main.o(.data) for DiffExti_TrigSem
    lev_gauge_to_pc.o(i.TIM1_BRK_TIM15_IRQHandler) refers to lev_gauge_to_pc.o(i._ZN11TExchngToPC19get_upd_demand_flagEv) for TExchngToPC::get_upd_demand_flag()
    lev_gauge_to_pc.o(i.TIM1_BRK_TIM15_IRQHandler) refers to lev_gauge_to_pc.o(i._ZN11TExchngToPC19set_upd_demand_flagEb) for TExchngToPC::set_upd_demand_flag(bool)
    lev_gauge_to_pc.o(i.TIM1_BRK_TIM15_IRQHandler) refers to queue.o(i.xQueueGiveFromISR) for xQueueGiveFromISR
    lev_gauge_to_pc.o(i.TIM1_BRK_TIM15_IRQHandler) refers to lev_gauge_to_pc.o(.bss) for ExchngToPC
    lev_gauge_to_pc.o(i.TIM1_BRK_TIM15_IRQHandler) refers to lev_gauge_to_pc.o(.data) for TmrHigherPriorityTaskWoken
    lev_gauge_to_pc.o(i.TIM1_BRK_TIM15_IRQHandler) refers to main.o(.data) for Tmr_TrigSem
    lev_gauge_to_pc.o(i._Z15lev_gauge_to_pcPv) refers to tasks.o(i.vTaskDelay) for vTaskDelay
    lev_gauge_to_pc.o(i._Z15lev_gauge_to_pcPv) refers to led.o(i._ZN4TLed4initEv) for TLed::init()
    lev_gauge_to_pc.o(i._Z15lev_gauge_to_pcPv) refers to led.o(i._ZN4TLed2onEv) for TLed::on()
    lev_gauge_to_pc.o(i._Z15lev_gauge_to_pcPv) refers to memcpya.o(.text) for __aeabi_memcpy4
    lev_gauge_to_pc.o(i._Z15lev_gauge_to_pcPv) refers to ad8402.o(i._ZN8T_AD84024initEv) for T_AD8402::init()
    lev_gauge_to_pc.o(i._Z15lev_gauge_to_pcPv) refers to usart_driver_.o(i._ZN6TUsart14pin_clk_configEv) for TUsart::pin_clk_config()
    lev_gauge_to_pc.o(i._Z15lev_gauge_to_pcPv) refers to usart_driver_.o(i._ZN6TUsart7hw_initEh) for TUsart::hw_init(unsigned char)
    lev_gauge_to_pc.o(i._Z15lev_gauge_to_pcPv) refers to lev_gauge_to_pc.o(i._ZN11TExchngToPC13tmr_freg_initEv) for TExchngToPC::tmr_freg_init()
    lev_gauge_to_pc.o(i._Z15lev_gauge_to_pcPv) refers to lev_gauge_to_pc.o(i._ZN11TExchngToPC12tmr_cmp_initEv) for TExchngToPC::tmr_cmp_init()
    lev_gauge_to_pc.o(i._Z15lev_gauge_to_pcPv) refers to lev_gauge_to_pc.o(i._ZN11TExchngToPC13tmr_diff_initEv) for TExchngToPC::tmr_diff_init()
    lev_gauge_to_pc.o(i._Z15lev_gauge_to_pcPv) refers to lev_gauge_to_pc.o(i._ZN11TExchngToPC8adc_initEv) for TExchngToPC::adc_init()
    lev_gauge_to_pc.o(i._Z15lev_gauge_to_pcPv) refers to ext_master.o(i._ZN10TExtMaster9parse_pktEv) for TExtMaster::parse_pkt()
    lev_gauge_to_pc.o(i._Z15lev_gauge_to_pcPv) refers to ext_master.o(i._ZN10TExtMaster8get_dataEv) for TExtMaster::get_data()
    lev_gauge_to_pc.o(i._Z15lev_gauge_to_pcPv) refers to led.o(.bss) for UCG1
    lev_gauge_to_pc.o(i._Z15lev_gauge_to_pcPv) refers to lev_gauge_to_pc.o(.constdata) for .constdata
    lev_gauge_to_pc.o(i._Z15lev_gauge_to_pcPv) refers to ad8402.o(.bss) for AD8402
    lev_gauge_to_pc.o(i._Z15lev_gauge_to_pcPv) refers to lev_gauge_to_pc.o(.bss) for ExchngToPC
    lev_gauge_to_pc.o(i._ZN11TExchngToPC11rx_set_fregEPNS_12TParamHandleE) refers to lev_gauge_to_pc.o(i._ZN11TExchngToPC8ctrl_pwmEPNS_12TParamHandleE) for TExchngToPC::ctrl_pwm(TExchngToPC::TParamHandle*)
    lev_gauge_to_pc.o(i._ZN11TExchngToPC11tx_set_fregEPNS_12TParamHandleE) refers to ext_master.o(i._ZN10TExtMaster7tx_dataEPKhtNS_11TWrapTxSignE) for TExtMaster::tx_data(const unsigned char*, unsigned short, TExtMaster::TWrapTxSign)
    lev_gauge_to_pc.o(i._ZN11TExchngToPC12rx_start_adcEPNS_12TParamHandleE) refers to lev_gauge_to_pc.o(i._ZN11TExchngToPC9chk_rangeEfRKNS_6TRangeE) for TExchngToPC::chk_range(float, const TExchngToPC::TRange&)
    lev_gauge_to_pc.o(i._ZN11TExchngToPC12rx_start_adcEPNS_12TParamHandleE) refers to led.o(i._ZN4TLed3offEv) for TLed::off()
    lev_gauge_to_pc.o(i._ZN11TExchngToPC12rx_start_adcEPNS_12TParamHandleE) refers to lev_gauge_to_pc.o(i._ZN11TExchngToPC6en_adcEv) for TExchngToPC::en_adc()
    lev_gauge_to_pc.o(i._ZN11TExchngToPC12rx_start_adcEPNS_12TParamHandleE) refers to lev_gauge_to_pc.o(i._ZN36_INTERNAL_19_lev_gauge_to_pc_cpp_UIF25LL_ADC_REG_StopConversionEP11ADC_TypeDef) for [local to lev_gauge_to_pc_cpp]::LL_ADC_REG_StopConversion(ADC_TypeDef*)
    lev_gauge_to_pc.o(i._ZN11TExchngToPC12rx_start_adcEPNS_12TParamHandleE) refers to lev_gauge_to_pc.o(i._ZN36_INTERNAL_19_lev_gauge_to_pc_cpp_UIF34LL_ADC_REG_IsStopConversionOngoingEP11ADC_TypeDef) for [local to lev_gauge_to_pc_cpp]::LL_ADC_REG_IsStopConversionOngoing(ADC_TypeDef*)
    lev_gauge_to_pc.o(i._ZN11TExchngToPC12rx_start_adcEPNS_12TParamHandleE) refers to lev_gauge_to_pc.o(i._ZN36_INTERNAL_19_lev_gauge_to_pc_cpp_UIF30LL_ADC_REG_IsConversionOngoingEP11ADC_TypeDef) for [local to lev_gauge_to_pc_cpp]::LL_ADC_REG_IsConversionOngoing(ADC_TypeDef*)
    lev_gauge_to_pc.o(i._ZN11TExchngToPC12rx_start_adcEPNS_12TParamHandleE) refers to lev_gauge_to_pc.o(i._ZN11TExchngToPC14init_diff_extiEj) for TExchngToPC::init_diff_exti(unsigned)
    lev_gauge_to_pc.o(i._ZN11TExchngToPC12rx_start_adcEPNS_12TParamHandleE) refers to queue.o(i.xQueueGenericReceive) for xQueueGenericReceive
    lev_gauge_to_pc.o(i._ZN11TExchngToPC12rx_start_adcEPNS_12TParamHandleE) refers to lev_gauge_to_pc.o(i._ZN11TExchngToPC16deinit_diff_extiEv) for TExchngToPC::deinit_diff_exti()
    lev_gauge_to_pc.o(i._ZN11TExchngToPC12rx_start_adcEPNS_12TParamHandleE) refers to lev_gauge_to_pc.o(i._ZN11TExchngToPC7dis_adcEv) for TExchngToPC::dis_adc()
    lev_gauge_to_pc.o(i._ZN11TExchngToPC12rx_start_adcEPNS_12TParamHandleE) refers to led.o(i._ZN4TLed2onEv) for TLed::on()
    lev_gauge_to_pc.o(i._ZN11TExchngToPC12rx_start_adcEPNS_12TParamHandleE) refers to led.o(.bss) for UCG1
    lev_gauge_to_pc.o(i._ZN11TExchngToPC12rx_start_adcEPNS_12TParamHandleE) refers to main.o(.data) for DiffExti_TrigSem
    lev_gauge_to_pc.o(i._ZN11TExchngToPC12rx_start_adcEPNS_12TParamHandleE) refers to lev_gauge_to_pc.o(.bss) for Data
    lev_gauge_to_pc.o(i._ZN11TExchngToPC12tmr_cmp_initEv) refers to lev_gauge_to_pc.o(i._ZN36_INTERNAL_19_lev_gauge_to_pc_cpp_UIF18LL_GPIO_SetPinModeEP12GPIO_TypeDefjj) for [local to lev_gauge_to_pc_cpp]::LL_GPIO_SetPinMode(GPIO_TypeDef*, unsigned, unsigned)
    lev_gauge_to_pc.o(i._ZN11TExchngToPC12tmr_cmp_initEv) refers to lev_gauge_to_pc.o(i._ZN36_INTERNAL_19_lev_gauge_to_pc_cpp_UIF19LL_GPIO_SetPinSpeedEP12GPIO_TypeDefjj) for [local to lev_gauge_to_pc_cpp]::LL_GPIO_SetPinSpeed(GPIO_TypeDef*, unsigned, unsigned)
    lev_gauge_to_pc.o(i._ZN11TExchngToPC12tmr_cmp_initEv) refers to lev_gauge_to_pc.o(i._ZN36_INTERNAL_19_lev_gauge_to_pc_cpp_UIF18LL_GPIO_SetPinPullEP12GPIO_TypeDefjj) for [local to lev_gauge_to_pc_cpp]::LL_GPIO_SetPinPull(GPIO_TypeDef*, unsigned, unsigned)
    lev_gauge_to_pc.o(i._ZN11TExchngToPC12tmr_cmp_initEv) refers to lev_gauge_to_pc.o(i._ZN36_INTERNAL_19_lev_gauge_to_pc_cpp_UIF20LL_GPIO_SetAFPin_0_7EP12GPIO_TypeDefjj) for [local to lev_gauge_to_pc_cpp]::LL_GPIO_SetAFPin_0_7(GPIO_TypeDef*, unsigned, unsigned)
    lev_gauge_to_pc.o(i._ZN11TExchngToPC12tmr_cmp_initEv) refers to lev_gauge_to_pc.o(i._ZN36_INTERNAL_19_lev_gauge_to_pc_cpp_UIF19LL_TIM_SetSlaveModeEP11TIM_TypeDefj) for [local to lev_gauge_to_pc_cpp]::LL_TIM_SetSlaveMode(TIM_TypeDef*, unsigned)
    lev_gauge_to_pc.o(i._ZN11TExchngToPC12tmr_cmp_initEv) refers to lev_gauge_to_pc.o(i._ZN36_INTERNAL_19_lev_gauge_to_pc_cpp_UIF19LL_TIM_SetPrescalerEP11TIM_TypeDefj) for [local to lev_gauge_to_pc_cpp]::LL_TIM_SetPrescaler(TIM_TypeDef*, unsigned)
    lev_gauge_to_pc.o(i._ZN11TExchngToPC12tmr_cmp_initEv) refers to lev_gauge_to_pc.o(i._ZN36_INTERNAL_19_lev_gauge_to_pc_cpp_UIF23LL_TIM_EnableARRPreloadEP11TIM_TypeDef) for [local to lev_gauge_to_pc_cpp]::LL_TIM_EnableARRPreload(TIM_TypeDef*)
    lev_gauge_to_pc.o(i._ZN11TExchngToPC12tmr_cmp_initEv) refers to lev_gauge_to_pc.o(i._ZN36_INTERNAL_19_lev_gauge_to_pc_cpp_UIF20LL_TIM_SetAutoReloadEP11TIM_TypeDefj) for [local to lev_gauge_to_pc_cpp]::LL_TIM_SetAutoReload(TIM_TypeDef*, unsigned)
    lev_gauge_to_pc.o(i._ZN11TExchngToPC12tmr_cmp_initEv) refers to lev_gauge_to_pc.o(i._ZN36_INTERNAL_19_lev_gauge_to_pc_cpp_UIF24LL_TIM_IC_SetActiveInputEP11TIM_TypeDefjj) for [local to lev_gauge_to_pc_cpp]::LL_TIM_IC_SetActiveInput(TIM_TypeDef*, unsigned, unsigned)
    lev_gauge_to_pc.o(i._ZN11TExchngToPC12tmr_cmp_initEv) refers to lev_gauge_to_pc.o(i._ZN36_INTERNAL_19_lev_gauge_to_pc_cpp_UIF19LL_TIM_IC_SetFilterEP11TIM_TypeDefjj) for [local to lev_gauge_to_pc_cpp]::LL_TIM_IC_SetFilter(TIM_TypeDef*, unsigned, unsigned)
    lev_gauge_to_pc.o(i._ZN11TExchngToPC12tmr_cmp_initEv) refers to lev_gauge_to_pc.o(i._ZN36_INTERNAL_19_lev_gauge_to_pc_cpp_UIF21LL_TIM_IC_SetPolarityEP11TIM_TypeDefjj) for [local to lev_gauge_to_pc_cpp]::LL_TIM_IC_SetPolarity(TIM_TypeDef*, unsigned, unsigned)
    lev_gauge_to_pc.o(i._ZN11TExchngToPC12tmr_cmp_initEv) refers to lev_gauge_to_pc.o(i._ZN36_INTERNAL_19_lev_gauge_to_pc_cpp_UIF22LL_TIM_IC_SetPrescalerEP11TIM_TypeDefjj) for [local to lev_gauge_to_pc_cpp]::LL_TIM_IC_SetPrescaler(TIM_TypeDef*, unsigned, unsigned)
    lev_gauge_to_pc.o(i._ZN11TExchngToPC12tmr_cmp_initEv) refers to lev_gauge_to_pc.o(i._ZN36_INTERNAL_19_lev_gauge_to_pc_cpp_UIF23LL_TIM_CC_EnableChannelEP11TIM_TypeDefj) for [local to lev_gauge_to_pc_cpp]::LL_TIM_CC_EnableChannel(TIM_TypeDef*, unsigned)
    lev_gauge_to_pc.o(i._ZN11TExchngToPC13set_diff_freqEt) refers to lev_gauge_to_pc.o(i._ZN36_INTERNAL_19_lev_gauge_to_pc_cpp_UIF19LL_TIM_SetPrescalerEP11TIM_TypeDefj) for [local to lev_gauge_to_pc_cpp]::LL_TIM_SetPrescaler(TIM_TypeDef*, unsigned)
    lev_gauge_to_pc.o(i._ZN11TExchngToPC13tmr_diff_initEv) refers to lev_gauge_to_pc.o(i._ZN36_INTERNAL_19_lev_gauge_to_pc_cpp_UIF18LL_GPIO_SetPinModeEP12GPIO_TypeDefjj) for [local to lev_gauge_to_pc_cpp]::LL_GPIO_SetPinMode(GPIO_TypeDef*, unsigned, unsigned)
    lev_gauge_to_pc.o(i._ZN11TExchngToPC13tmr_diff_initEv) refers to lev_gauge_to_pc.o(i._ZN36_INTERNAL_19_lev_gauge_to_pc_cpp_UIF19LL_GPIO_SetPinSpeedEP12GPIO_TypeDefjj) for [local to lev_gauge_to_pc_cpp]::LL_GPIO_SetPinSpeed(GPIO_TypeDef*, unsigned, unsigned)
    lev_gauge_to_pc.o(i._ZN11TExchngToPC13tmr_diff_initEv) refers to lev_gauge_to_pc.o(i._ZN36_INTERNAL_19_lev_gauge_to_pc_cpp_UIF18LL_GPIO_SetPinPullEP12GPIO_TypeDefjj) for [local to lev_gauge_to_pc_cpp]::LL_GPIO_SetPinPull(GPIO_TypeDef*, unsigned, unsigned)
    lev_gauge_to_pc.o(i._ZN11TExchngToPC13tmr_diff_initEv) refers to lev_gauge_to_pc.o(i._ZN36_INTERNAL_19_lev_gauge_to_pc_cpp_UIF20LL_GPIO_SetAFPin_0_7EP12GPIO_TypeDefjj) for [local to lev_gauge_to_pc_cpp]::LL_GPIO_SetAFPin_0_7(GPIO_TypeDef*, unsigned, unsigned)
    lev_gauge_to_pc.o(i._ZN11TExchngToPC13tmr_diff_initEv) refers to lev_gauge_to_pc.o(i._ZN36_INTERNAL_19_lev_gauge_to_pc_cpp_UIF19LL_TIM_SetSlaveModeEP11TIM_TypeDefj) for [local to lev_gauge_to_pc_cpp]::LL_TIM_SetSlaveMode(TIM_TypeDef*, unsigned)
    lev_gauge_to_pc.o(i._ZN11TExchngToPC13tmr_diff_initEv) refers to lev_gauge_to_pc.o(i._ZN36_INTERNAL_19_lev_gauge_to_pc_cpp_UIF19LL_TIM_SetPrescalerEP11TIM_TypeDefj) for [local to lev_gauge_to_pc_cpp]::LL_TIM_SetPrescaler(TIM_TypeDef*, unsigned)
    lev_gauge_to_pc.o(i._ZN11TExchngToPC13tmr_diff_initEv) refers to lev_gauge_to_pc.o(i._ZN36_INTERNAL_19_lev_gauge_to_pc_cpp_UIF20LL_TIM_SetAutoReloadEP11TIM_TypeDefj) for [local to lev_gauge_to_pc_cpp]::LL_TIM_SetAutoReload(TIM_TypeDef*, unsigned)
    lev_gauge_to_pc.o(i._ZN11TExchngToPC13tmr_diff_initEv) refers to lev_gauge_to_pc.o(i._ZN36_INTERNAL_19_lev_gauge_to_pc_cpp_UIF24LL_TIM_IC_SetActiveInputEP11TIM_TypeDefjj) for [local to lev_gauge_to_pc_cpp]::LL_TIM_IC_SetActiveInput(TIM_TypeDef*, unsigned, unsigned)
    lev_gauge_to_pc.o(i._ZN11TExchngToPC13tmr_diff_initEv) refers to lev_gauge_to_pc.o(i._ZN36_INTERNAL_19_lev_gauge_to_pc_cpp_UIF19LL_TIM_IC_SetFilterEP11TIM_TypeDefjj) for [local to lev_gauge_to_pc_cpp]::LL_TIM_IC_SetFilter(TIM_TypeDef*, unsigned, unsigned)
    lev_gauge_to_pc.o(i._ZN11TExchngToPC13tmr_diff_initEv) refers to lev_gauge_to_pc.o(i._ZN36_INTERNAL_19_lev_gauge_to_pc_cpp_UIF21LL_TIM_IC_SetPolarityEP11TIM_TypeDefjj) for [local to lev_gauge_to_pc_cpp]::LL_TIM_IC_SetPolarity(TIM_TypeDef*, unsigned, unsigned)
    lev_gauge_to_pc.o(i._ZN11TExchngToPC13tmr_diff_initEv) refers to lev_gauge_to_pc.o(i._ZN36_INTERNAL_19_lev_gauge_to_pc_cpp_UIF22LL_TIM_IC_SetPrescalerEP11TIM_TypeDefjj) for [local to lev_gauge_to_pc_cpp]::LL_TIM_IC_SetPrescaler(TIM_TypeDef*, unsigned, unsigned)
    lev_gauge_to_pc.o(i._ZN11TExchngToPC13tmr_diff_initEv) refers to lev_gauge_to_pc.o(i._ZN36_INTERNAL_19_lev_gauge_to_pc_cpp_UIF23LL_TIM_CC_EnableChannelEP11TIM_TypeDefj) for [local to lev_gauge_to_pc_cpp]::LL_TIM_CC_EnableChannel(TIM_TypeDef*, unsigned)
    lev_gauge_to_pc.o(i._ZN11TExchngToPC13tmr_freg_initEv) refers to lev_gauge_to_pc.o(i._ZN36_INTERNAL_19_lev_gauge_to_pc_cpp_UIF18LL_GPIO_SetPinModeEP12GPIO_TypeDefjj) for [local to lev_gauge_to_pc_cpp]::LL_GPIO_SetPinMode(GPIO_TypeDef*, unsigned, unsigned)
    lev_gauge_to_pc.o(i._ZN11TExchngToPC13tmr_freg_initEv) refers to lev_gauge_to_pc.o(i._ZN36_INTERNAL_19_lev_gauge_to_pc_cpp_UIF19LL_GPIO_SetPinSpeedEP12GPIO_TypeDefjj) for [local to lev_gauge_to_pc_cpp]::LL_GPIO_SetPinSpeed(GPIO_TypeDef*, unsigned, unsigned)
    lev_gauge_to_pc.o(i._ZN11TExchngToPC13tmr_freg_initEv) refers to lev_gauge_to_pc.o(i._ZN36_INTERNAL_19_lev_gauge_to_pc_cpp_UIF18LL_GPIO_SetPinPullEP12GPIO_TypeDefjj) for [local to lev_gauge_to_pc_cpp]::LL_GPIO_SetPinPull(GPIO_TypeDef*, unsigned, unsigned)
    lev_gauge_to_pc.o(i._ZN11TExchngToPC13tmr_freg_initEv) refers to lev_gauge_to_pc.o(i._ZN36_INTERNAL_19_lev_gauge_to_pc_cpp_UIF19LL_TIM_SetSlaveModeEP11TIM_TypeDefj) for [local to lev_gauge_to_pc_cpp]::LL_TIM_SetSlaveMode(TIM_TypeDef*, unsigned)
    lev_gauge_to_pc.o(i._ZN11TExchngToPC13tmr_freg_initEv) refers to lev_gauge_to_pc.o(i._ZN11TExchngToPC7cnt_pwmEv) for TExchngToPC::cnt_pwm()
    lev_gauge_to_pc.o(i._ZN11TExchngToPC13tmr_freg_initEv) refers to lev_gauge_to_pc.o(i._ZN36_INTERNAL_19_lev_gauge_to_pc_cpp_UIF19LL_TIM_SetPrescalerEP11TIM_TypeDefj) for [local to lev_gauge_to_pc_cpp]::LL_TIM_SetPrescaler(TIM_TypeDef*, unsigned)
    lev_gauge_to_pc.o(i._ZN11TExchngToPC13tmr_freg_initEv) refers to lev_gauge_to_pc.o(i._ZN36_INTERNAL_19_lev_gauge_to_pc_cpp_UIF23LL_TIM_EnableARRPreloadEP11TIM_TypeDef) for [local to lev_gauge_to_pc_cpp]::LL_TIM_EnableARRPreload(TIM_TypeDef*)
    lev_gauge_to_pc.o(i._ZN11TExchngToPC13tmr_freg_initEv) refers to lev_gauge_to_pc.o(i._ZN36_INTERNAL_19_lev_gauge_to_pc_cpp_UIF20LL_TIM_SetAutoReloadEP11TIM_TypeDefj) for [local to lev_gauge_to_pc_cpp]::LL_TIM_SetAutoReload(TIM_TypeDef*, unsigned)
    lev_gauge_to_pc.o(i._ZN11TExchngToPC13tmr_freg_initEv) refers to lev_gauge_to_pc.o(i._ZN36_INTERNAL_19_lev_gauge_to_pc_cpp_UIF22LL_TIM_OC_ConfigOutputEP11TIM_TypeDefjj) for [local to lev_gauge_to_pc_cpp]::LL_TIM_OC_ConfigOutput(TIM_TypeDef*, unsigned, unsigned)
    lev_gauge_to_pc.o(i._ZN11TExchngToPC13tmr_freg_initEv) refers to lev_gauge_to_pc.o(i._ZN36_INTERNAL_19_lev_gauge_to_pc_cpp_UIF17LL_TIM_OC_SetModeEP11TIM_TypeDefjj) for [local to lev_gauge_to_pc_cpp]::LL_TIM_OC_SetMode(TIM_TypeDef*, unsigned, unsigned)
    lev_gauge_to_pc.o(i._ZN11TExchngToPC13tmr_freg_initEv) refers to lev_gauge_to_pc.o(i._ZN36_INTERNAL_19_lev_gauge_to_pc_cpp_UIF23LL_TIM_OC_EnablePreloadEP11TIM_TypeDefj) for [local to lev_gauge_to_pc_cpp]::LL_TIM_OC_EnablePreload(TIM_TypeDef*, unsigned)
    lev_gauge_to_pc.o(i._ZN11TExchngToPC13tmr_freg_initEv) refers to lev_gauge_to_pc.o(i._ZN36_INTERNAL_19_lev_gauge_to_pc_cpp_UIF23LL_TIM_OC_SetCompareCH1EP11TIM_TypeDefj) for [local to lev_gauge_to_pc_cpp]::LL_TIM_OC_SetCompareCH1(TIM_TypeDef*, unsigned)
    lev_gauge_to_pc.o(i._ZN11TExchngToPC13tmr_freg_initEv) refers to lev_gauge_to_pc.o(i._ZN36_INTERNAL_19_lev_gauge_to_pc_cpp_UIF23LL_TIM_CC_EnableChannelEP11TIM_TypeDefj) for [local to lev_gauge_to_pc_cpp]::LL_TIM_CC_EnableChannel(TIM_TypeDef*, unsigned)
    lev_gauge_to_pc.o(i._ZN11TExchngToPC13tmr_freg_initEv) refers to lev_gauge_to_pc.o(i._ZN36_INTERNAL_19_lev_gauge_to_pc_cpp_UIF27LL_TIM_GenerateEvent_UPDATEEP11TIM_TypeDef) for [local to lev_gauge_to_pc_cpp]::LL_TIM_GenerateEvent_UPDATE(TIM_TypeDef*)
    lev_gauge_to_pc.o(i._ZN11TExchngToPC13tmr_freg_initEv) refers to lev_gauge_to_pc.o(i._ZN36_INTERNAL_19_lev_gauge_to_pc_cpp_UIF24NVIC_GetPriorityGroupingEv) for [local to lev_gauge_to_pc_cpp]::NVIC_GetPriorityGrouping()
    lev_gauge_to_pc.o(i._ZN11TExchngToPC13tmr_freg_initEv) refers to lev_gauge_to_pc.o(i._ZN36_INTERNAL_19_lev_gauge_to_pc_cpp_UIF19NVIC_EncodePriorityEjjj) for [local to lev_gauge_to_pc_cpp]::NVIC_EncodePriority(unsigned, unsigned, unsigned)
    lev_gauge_to_pc.o(i._ZN11TExchngToPC13tmr_freg_initEv) refers to lev_gauge_to_pc.o(i._ZN36_INTERNAL_19_lev_gauge_to_pc_cpp_UIF16NVIC_SetPriorityE9IRQn_Typej) for [local to lev_gauge_to_pc_cpp]::NVIC_SetPriority(IRQn_Type, unsigned)
    lev_gauge_to_pc.o(i._ZN11TExchngToPC13tmr_freg_initEv) refers to lev_gauge_to_pc.o(i._ZN36_INTERNAL_19_lev_gauge_to_pc_cpp_UIF14NVIC_EnableIRQE9IRQn_Type) for [local to lev_gauge_to_pc_cpp]::NVIC_EnableIRQ(IRQn_Type)
    lev_gauge_to_pc.o(i._ZN11TExchngToPC13tmr_freg_initEv) refers to lev_gauge_to_pc.o(i._ZN36_INTERNAL_19_lev_gauge_to_pc_cpp_UIF20LL_TIM_EnableCounterEP11TIM_TypeDef) for [local to lev_gauge_to_pc_cpp]::LL_TIM_EnableCounter(TIM_TypeDef*)
    lev_gauge_to_pc.o(i._ZN11TExchngToPC13tmr_freg_initEv) refers to lev_gauge_to_pc.o(i._ZN36_INTERNAL_19_lev_gauge_to_pc_cpp_UIF23LL_TIM_EnableAllOutputsEP11TIM_TypeDef) for [local to lev_gauge_to_pc_cpp]::LL_TIM_EnableAllOutputs(TIM_TypeDef*)
    lev_gauge_to_pc.o(i._ZN11TExchngToPC14init_diff_extiEj) refers to stm32l4xx_ll_gpio.o(i.LL_GPIO_Init) for LL_GPIO_Init
    lev_gauge_to_pc.o(i._ZN11TExchngToPC14init_diff_extiEj) refers to stm32l4xx_ll_exti.o(i.LL_EXTI_Init) for LL_EXTI_Init
    lev_gauge_to_pc.o(i._ZN11TExchngToPC14init_diff_extiEj) refers to lev_gauge_to_pc.o(i._ZN36_INTERNAL_19_lev_gauge_to_pc_cpp_UIF24NVIC_GetPriorityGroupingEv) for [local to lev_gauge_to_pc_cpp]::NVIC_GetPriorityGrouping()
    lev_gauge_to_pc.o(i._ZN11TExchngToPC14init_diff_extiEj) refers to lev_gauge_to_pc.o(i._ZN36_INTERNAL_19_lev_gauge_to_pc_cpp_UIF19NVIC_EncodePriorityEjjj) for [local to lev_gauge_to_pc_cpp]::NVIC_EncodePriority(unsigned, unsigned, unsigned)
    lev_gauge_to_pc.o(i._ZN11TExchngToPC14init_diff_extiEj) refers to lev_gauge_to_pc.o(i._ZN36_INTERNAL_19_lev_gauge_to_pc_cpp_UIF16NVIC_SetPriorityE9IRQn_Typej) for [local to lev_gauge_to_pc_cpp]::NVIC_SetPriority(IRQn_Type, unsigned)
    lev_gauge_to_pc.o(i._ZN11TExchngToPC14init_diff_extiEj) refers to lev_gauge_to_pc.o(i._ZN36_INTERNAL_19_lev_gauge_to_pc_cpp_UIF14NVIC_EnableIRQE9IRQn_Type) for [local to lev_gauge_to_pc_cpp]::NVIC_EnableIRQ(IRQn_Type)
    lev_gauge_to_pc.o(i._ZN11TExchngToPC14rx_cmp_captureEPNS_12TParamHandleE) refers to lev_gauge_to_pc.o(i._ZN11TExchngToPC14init_diff_extiEj) for TExchngToPC::init_diff_exti(unsigned)
    lev_gauge_to_pc.o(i._ZN11TExchngToPC14rx_cmp_captureEPNS_12TParamHandleE) refers to queue.o(i.xQueueGenericReceive) for xQueueGenericReceive
    lev_gauge_to_pc.o(i._ZN11TExchngToPC14rx_cmp_captureEPNS_12TParamHandleE) refers to lev_gauge_to_pc.o(i._ZN11TExchngToPC16deinit_diff_extiEv) for TExchngToPC::deinit_diff_exti()
    lev_gauge_to_pc.o(i._ZN11TExchngToPC14rx_cmp_captureEPNS_12TParamHandleE) refers to led.o(i._ZN4TLed3offEv) for TLed::off()
    lev_gauge_to_pc.o(i._ZN11TExchngToPC14rx_cmp_captureEPNS_12TParamHandleE) refers to lev_gauge_to_pc.o(i._ZN36_INTERNAL_19_lev_gauge_to_pc_cpp_UIF17LL_TIM_SetCounterEP11TIM_TypeDefj) for [local to lev_gauge_to_pc_cpp]::LL_TIM_SetCounter(TIM_TypeDef*, unsigned)
    lev_gauge_to_pc.o(i._ZN11TExchngToPC14rx_cmp_captureEPNS_12TParamHandleE) refers to lev_gauge_to_pc.o(i._ZN36_INTERNAL_19_lev_gauge_to_pc_cpp_UIF20LL_TIM_EnableCounterEP11TIM_TypeDef) for [local to lev_gauge_to_pc_cpp]::LL_TIM_EnableCounter(TIM_TypeDef*)
    lev_gauge_to_pc.o(i._ZN11TExchngToPC14rx_cmp_captureEPNS_12TParamHandleE) refers to lev_gauge_to_pc.o(i._ZN36_INTERNAL_19_lev_gauge_to_pc_cpp_UIF23LL_TIM_EnableAllOutputsEP11TIM_TypeDef) for [local to lev_gauge_to_pc_cpp]::LL_TIM_EnableAllOutputs(TIM_TypeDef*)
    lev_gauge_to_pc.o(i._ZN11TExchngToPC14rx_cmp_captureEPNS_12TParamHandleE) refers to lev_gauge_to_pc.o(i._ZN36_INTERNAL_19_lev_gauge_to_pc_cpp_UIF21LL_TIM_DisableCounterEP11TIM_TypeDef) for [local to lev_gauge_to_pc_cpp]::LL_TIM_DisableCounter(TIM_TypeDef*)
    lev_gauge_to_pc.o(i._ZN11TExchngToPC14rx_cmp_captureEPNS_12TParamHandleE) refers to led.o(i._ZN4TLed2onEv) for TLed::on()
    lev_gauge_to_pc.o(i._ZN11TExchngToPC14rx_cmp_captureEPNS_12TParamHandleE) refers to main.o(.data) for DiffExti_TrigSem
    lev_gauge_to_pc.o(i._ZN11TExchngToPC14rx_cmp_captureEPNS_12TParamHandleE) refers to led.o(.bss) for UCG1
    lev_gauge_to_pc.o(i._ZN11TExchngToPC14rx_cmp_captureEPNS_12TParamHandleE) refers to lev_gauge_to_pc.o(.bss) for Data
    lev_gauge_to_pc.o(i._ZN11TExchngToPC14tx_cmp_captureEPNS_12TParamHandleE) refers to ext_master.o(i._ZN10TExtMaster7tx_dataEPKhtNS_11TWrapTxSignE) for TExtMaster::tx_data(const unsigned char*, unsigned short, TExtMaster::TWrapTxSign)
    lev_gauge_to_pc.o(i._ZN11TExchngToPC15rx_diff_captureEPNS_12TParamHandleE) refers to lev_gauge_to_pc.o(i._ZN11TExchngToPC13set_diff_freqEt) for TExchngToPC::set_diff_freq(unsigned short)
    lev_gauge_to_pc.o(i._ZN11TExchngToPC15rx_diff_captureEPNS_12TParamHandleE) refers to lev_gauge_to_pc.o(i._ZN36_INTERNAL_19_lev_gauge_to_pc_cpp_UIF27LL_TIM_GenerateEvent_UPDATEEP11TIM_TypeDef) for [local to lev_gauge_to_pc_cpp]::LL_TIM_GenerateEvent_UPDATE(TIM_TypeDef*)
    lev_gauge_to_pc.o(i._ZN11TExchngToPC15rx_diff_captureEPNS_12TParamHandleE) refers to lev_gauge_to_pc.o(i._ZN36_INTERNAL_19_lev_gauge_to_pc_cpp_UIF23LL_TIM_ClearFlag_UPDATEEP11TIM_TypeDef) for [local to lev_gauge_to_pc_cpp]::LL_TIM_ClearFlag_UPDATE(TIM_TypeDef*)
    lev_gauge_to_pc.o(i._ZN11TExchngToPC15rx_diff_captureEPNS_12TParamHandleE) refers to lev_gauge_to_pc.o(i._ZN36_INTERNAL_19_lev_gauge_to_pc_cpp_UIF20LL_TIM_EnableCounterEP11TIM_TypeDef) for [local to lev_gauge_to_pc_cpp]::LL_TIM_EnableCounter(TIM_TypeDef*)
    lev_gauge_to_pc.o(i._ZN11TExchngToPC15rx_diff_captureEPNS_12TParamHandleE) refers to lev_gauge_to_pc.o(i._ZN36_INTERNAL_19_lev_gauge_to_pc_cpp_UIF17LL_TIM_SetCounterEP11TIM_TypeDefj) for [local to lev_gauge_to_pc_cpp]::LL_TIM_SetCounter(TIM_TypeDef*, unsigned)
    lev_gauge_to_pc.o(i._ZN11TExchngToPC15rx_diff_captureEPNS_12TParamHandleE) refers to lev_gauge_to_pc.o(i._ZN36_INTERNAL_19_lev_gauge_to_pc_cpp_UIF26LL_TIM_IsActiveFlag_UPDATEEP11TIM_TypeDef) for [local to lev_gauge_to_pc_cpp]::LL_TIM_IsActiveFlag_UPDATE(TIM_TypeDef*)
    lev_gauge_to_pc.o(i._ZN11TExchngToPC15rx_diff_captureEPNS_12TParamHandleE) refers to lev_gauge_to_pc.o(i._ZN36_INTERNAL_19_lev_gauge_to_pc_cpp_UIF21LL_TIM_DisableCounterEP11TIM_TypeDef) for [local to lev_gauge_to_pc_cpp]::LL_TIM_DisableCounter(TIM_TypeDef*)
    lev_gauge_to_pc.o(i._ZN11TExchngToPC15rx_diff_captureEPNS_12TParamHandleE) refers to lev_gauge_to_pc.o(i._ZN11TExchngToPC16deinit_diff_extiEv) for TExchngToPC::deinit_diff_exti()
    lev_gauge_to_pc.o(i._ZN11TExchngToPC15rx_diff_captureEPNS_12TParamHandleE) refers to lev_gauge_to_pc.o(.bss) for Data
    lev_gauge_to_pc.o(i._ZN11TExchngToPC15rx_diff_captureEPNS_12TParamHandleE) refers to lev_gauge_to_pc.o(.data) for UIF
    lev_gauge_to_pc.o(i._ZN11TExchngToPC15tx_diff_captureEPNS_12TParamHandleE) refers to ext_master.o(i._ZN10TExtMaster7tx_dataEPKhtNS_11TWrapTxSignE) for TExtMaster::tx_data(const unsigned char*, unsigned short, TExtMaster::TWrapTxSign)
    lev_gauge_to_pc.o(i._ZN11TExchngToPC16deinit_diff_extiEv) refers to stm32l4xx_ll_exti.o(i.LL_EXTI_DeInit) for LL_EXTI_DeInit
    lev_gauge_to_pc.o(i._ZN11TExchngToPC16rx_set_pos_pot_1EPNS_12TParamHandleE) refers to lev_gauge_to_pc.o(i._ZN11TExchngToPC9chk_rangeEfRKNS_6TRangeE) for TExchngToPC::chk_range(float, const TExchngToPC::TRange&)
    lev_gauge_to_pc.o(i._ZN11TExchngToPC16rx_set_pos_pot_1EPNS_12TParamHandleE) refers to ad8402.o(i._ZN8T_AD84028set_codeEhNS_8TChannelE) for T_AD8402::set_code(unsigned char, T_AD8402::TChannel)
    lev_gauge_to_pc.o(i._ZN11TExchngToPC16rx_set_pos_pot_1EPNS_12TParamHandleE) refers to ad8402.o(.bss) for AD8402
    lev_gauge_to_pc.o(i._ZN11TExchngToPC16rx_set_pos_pot_2EPNS_12TParamHandleE) refers to lev_gauge_to_pc.o(i._ZN11TExchngToPC9chk_rangeEfRKNS_6TRangeE) for TExchngToPC::chk_range(float, const TExchngToPC::TRange&)
    lev_gauge_to_pc.o(i._ZN11TExchngToPC16rx_set_pos_pot_2EPNS_12TParamHandleE) refers to ad8402.o(i._ZN8T_AD84028set_codeEhNS_8TChannelE) for T_AD8402::set_code(unsigned char, T_AD8402::TChannel)
    lev_gauge_to_pc.o(i._ZN11TExchngToPC16rx_set_pos_pot_2EPNS_12TParamHandleE) refers to ad8402.o(.bss) for AD8402
    lev_gauge_to_pc.o(i._ZN11TExchngToPC16tx_set_pos_pot_1EPNS_12TParamHandleE) refers to ext_master.o(i._ZN10TExtMaster7tx_dataEPKhtNS_11TWrapTxSignE) for TExtMaster::tx_data(const unsigned char*, unsigned short, TExtMaster::TWrapTxSign)
    lev_gauge_to_pc.o(i._ZN11TExchngToPC16tx_set_pos_pot_2EPNS_12TParamHandleE) refers to ext_master.o(i._ZN10TExtMaster7tx_dataEPKhtNS_11TWrapTxSignE) for TExtMaster::tx_data(const unsigned char*, unsigned short, TExtMaster::TWrapTxSign)
    lev_gauge_to_pc.o(i._ZN11TExchngToPC17rx_set_duty_cycleEPNS_12TParamHandleE) refers to lev_gauge_to_pc.o(i._ZN11TExchngToPC8ctrl_pwmEPNS_12TParamHandleE) for TExchngToPC::ctrl_pwm(TExchngToPC::TParamHandle*)
    lev_gauge_to_pc.o(i._ZN11TExchngToPC17tx_set_duty_cycleEPNS_12TParamHandleE) refers to ext_master.o(i._ZN10TExtMaster7tx_dataEPKhtNS_11TWrapTxSignE) for TExtMaster::tx_data(const unsigned char*, unsigned short, TExtMaster::TWrapTxSign)
    lev_gauge_to_pc.o(i._ZN11TExchngToPC6en_adcEv) refers to lev_gauge_to_pc.o(i._ZN36_INTERNAL_19_lev_gauge_to_pc_cpp_UIF22LL_ADC_ClearFlag_ADRDYEP11ADC_TypeDef) for [local to lev_gauge_to_pc_cpp]::LL_ADC_ClearFlag_ADRDY(ADC_TypeDef*)
    lev_gauge_to_pc.o(i._ZN11TExchngToPC6tx_adcEPNS_12TParamHandleE) refers to ext_master.o(i._ZN10TExtMaster7tx_dataEPKhtNS_11TWrapTxSignE) for TExtMaster::tx_data(const unsigned char*, unsigned short, TExtMaster::TWrapTxSign)
    lev_gauge_to_pc.o(i._ZN11TExchngToPC7adc_calEv) refers to lev_gauge_to_pc.o(i._ZN36_INTERNAL_19_lev_gauge_to_pc_cpp_UIF16LL_ADC_IsEnabledEP11ADC_TypeDef) for [local to lev_gauge_to_pc_cpp]::LL_ADC_IsEnabled(ADC_TypeDef*)
    lev_gauge_to_pc.o(i._ZN11TExchngToPC7adc_calEv) refers to lev_gauge_to_pc.o(i._ZN36_INTERNAL_19_lev_gauge_to_pc_cpp_UIF14LL_ADC_DisableEP11ADC_TypeDef) for [local to lev_gauge_to_pc_cpp]::LL_ADC_Disable(ADC_TypeDef*)
    lev_gauge_to_pc.o(i._ZN11TExchngToPC7adc_calEv) refers to lev_gauge_to_pc.o(i._ZN36_INTERNAL_19_lev_gauge_to_pc_cpp_UIF23LL_ADC_IsDisableOngoingEP11ADC_TypeDef) for [local to lev_gauge_to_pc_cpp]::LL_ADC_IsDisableOngoing(ADC_TypeDef*)
    lev_gauge_to_pc.o(i._ZN11TExchngToPC7cnt_pwmEv) refers to stm32l4xx_ll_rcc.o(i.LL_RCC_GetSystemClocksFreq) for LL_RCC_GetSystemClocksFreq
    lev_gauge_to_pc.o(i._ZN11TExchngToPC7cnt_pwmEv) refers to lev_gauge_to_pc.o(.data) for ParamHandle
    lev_gauge_to_pc.o(i._ZN11TExchngToPC7dis_adcEv) refers to lev_gauge_to_pc.o(i._ZN36_INTERNAL_19_lev_gauge_to_pc_cpp_UIF30LL_ADC_REG_IsConversionOngoingEP11ADC_TypeDef) for [local to lev_gauge_to_pc_cpp]::LL_ADC_REG_IsConversionOngoing(ADC_TypeDef*)
    lev_gauge_to_pc.o(i._ZN11TExchngToPC7dis_adcEv) refers to lev_gauge_to_pc.o(i._ZN36_INTERNAL_19_lev_gauge_to_pc_cpp_UIF25LL_ADC_REG_StopConversionEP11ADC_TypeDef) for [local to lev_gauge_to_pc_cpp]::LL_ADC_REG_StopConversion(ADC_TypeDef*)
    lev_gauge_to_pc.o(i._ZN11TExchngToPC7dis_adcEv) refers to lev_gauge_to_pc.o(i._ZN36_INTERNAL_19_lev_gauge_to_pc_cpp_UIF34LL_ADC_REG_IsStopConversionOngoingEP11ADC_TypeDef) for [local to lev_gauge_to_pc_cpp]::LL_ADC_REG_IsStopConversionOngoing(ADC_TypeDef*)
    lev_gauge_to_pc.o(i._ZN11TExchngToPC7dis_adcEv) refers to lev_gauge_to_pc.o(i._ZN36_INTERNAL_19_lev_gauge_to_pc_cpp_UIF30LL_ADC_INJ_IsConversionOngoingEP11ADC_TypeDef) for [local to lev_gauge_to_pc_cpp]::LL_ADC_INJ_IsConversionOngoing(ADC_TypeDef*)
    lev_gauge_to_pc.o(i._ZN11TExchngToPC7dis_adcEv) refers to lev_gauge_to_pc.o(i._ZN36_INTERNAL_19_lev_gauge_to_pc_cpp_UIF14LL_ADC_DisableEP11ADC_TypeDef) for [local to lev_gauge_to_pc_cpp]::LL_ADC_Disable(ADC_TypeDef*)
    lev_gauge_to_pc.o(i._ZN11TExchngToPC7dis_adcEv) refers to lev_gauge_to_pc.o(i._ZN36_INTERNAL_19_lev_gauge_to_pc_cpp_UIF16LL_ADC_IsEnabledEP11ADC_TypeDef) for [local to lev_gauge_to_pc_cpp]::LL_ADC_IsEnabled(ADC_TypeDef*)
    lev_gauge_to_pc.o(i._ZN11TExchngToPC7dis_adcEv) refers to lev_gauge_to_pc.o(i._ZN36_INTERNAL_19_lev_gauge_to_pc_cpp_UIF23LL_ADC_IsDisableOngoingEP11ADC_TypeDef) for [local to lev_gauge_to_pc_cpp]::LL_ADC_IsDisableOngoing(ADC_TypeDef*)
    lev_gauge_to_pc.o(i._ZN11TExchngToPC7set_pwmERKNS_4TPwmE) refers to lev_gauge_to_pc.o(i._ZN36_INTERNAL_19_lev_gauge_to_pc_cpp_UIF19LL_TIM_SetPrescalerEP11TIM_TypeDefj) for [local to lev_gauge_to_pc_cpp]::LL_TIM_SetPrescaler(TIM_TypeDef*, unsigned)
    lev_gauge_to_pc.o(i._ZN11TExchngToPC7set_pwmERKNS_4TPwmE) refers to lev_gauge_to_pc.o(i._ZN36_INTERNAL_19_lev_gauge_to_pc_cpp_UIF20LL_TIM_SetAutoReloadEP11TIM_TypeDefj) for [local to lev_gauge_to_pc_cpp]::LL_TIM_SetAutoReload(TIM_TypeDef*, unsigned)
    lev_gauge_to_pc.o(i._ZN11TExchngToPC7set_pwmERKNS_4TPwmE) refers to lev_gauge_to_pc.o(i._ZN36_INTERNAL_19_lev_gauge_to_pc_cpp_UIF23LL_TIM_OC_SetCompareCH1EP11TIM_TypeDefj) for [local to lev_gauge_to_pc_cpp]::LL_TIM_OC_SetCompareCH1(TIM_TypeDef*, unsigned)
    lev_gauge_to_pc.o(i._ZN11TExchngToPC7tx_testEPNS_12TParamHandleE) refers to ext_master.o(i._ZN10TExtMaster7tx_dataEPKhtNS_11TWrapTxSignE) for TExtMaster::tx_data(const unsigned char*, unsigned short, TExtMaster::TWrapTxSign)
    lev_gauge_to_pc.o(i._ZN11TExchngToPC8adc_initEv) refers to lev_gauge_to_pc.o(i._ZN36_INTERNAL_19_lev_gauge_to_pc_cpp_UIF18LL_GPIO_SetPinModeEP12GPIO_TypeDefjj) for [local to lev_gauge_to_pc_cpp]::LL_GPIO_SetPinMode(GPIO_TypeDef*, unsigned, unsigned)
    lev_gauge_to_pc.o(i._ZN11TExchngToPC8adc_initEv) refers to tasks.o(i.vTaskDelay) for vTaskDelay
    lev_gauge_to_pc.o(i._ZN11TExchngToPC8adc_initEv) refers to lev_gauge_to_pc.o(i._ZN11TExchngToPC7adc_calEv) for TExchngToPC::adc_cal()
    lev_gauge_to_pc.o(i._ZN11TExchngToPC8ctrl_pwmEPNS_12TParamHandleE) refers to lev_gauge_to_pc.o(i._ZN11TExchngToPC9chk_rangeEfRKNS_6TRangeE) for TExchngToPC::chk_range(float, const TExchngToPC::TRange&)
    lev_gauge_to_pc.o(i._ZN11TExchngToPC8ctrl_pwmEPNS_12TParamHandleE) refers to lev_gauge_to_pc.o(i._ZN11TExchngToPC19set_upd_demand_flagEb) for TExchngToPC::set_upd_demand_flag(bool)
    lev_gauge_to_pc.o(i._ZN11TExchngToPC8ctrl_pwmEPNS_12TParamHandleE) refers to queue.o(i.xQueueGenericReceive) for xQueueGenericReceive
    lev_gauge_to_pc.o(i._ZN11TExchngToPC8ctrl_pwmEPNS_12TParamHandleE) refers to lev_gauge_to_pc.o(i._ZN11TExchngToPC7cnt_pwmEv) for TExchngToPC::cnt_pwm()
    lev_gauge_to_pc.o(i._ZN11TExchngToPC8ctrl_pwmEPNS_12TParamHandleE) refers to lev_gauge_to_pc.o(i._ZN11TExchngToPC7set_pwmERKNS_4TPwmE) for TExchngToPC::set_pwm(const TExchngToPC::TPwm&)
    lev_gauge_to_pc.o(i._ZN11TExchngToPC8ctrl_pwmEPNS_12TParamHandleE) refers to main.o(.data) for Tmr_TrigSem
    lev_gauge_to_pc.o(i._ZN11TExchngToPC9chk_rangeEfRKNS_6TRangeE) refers to lev_gauge_to_pc.o(i._ZN11TExchngToPC5iserrEf) for TExchngToPC::iserr(float)
    lev_gauge_to_pc.o(i._ZN11TExchngToPCC1ERK9TUsart_HWRK7TTmr_HWS5_S5_RK7TAdc_HW) refers to ext_master.o(i._ZN10TExtMasterC1ERK9TUsart_HW) for TExtMaster::TExtMaster(const TUsart_HW&)
    lev_gauge_to_pc.o(i._ZN11TExchngToPCD1Ev) refers to ext_master.o(i._ZN10TExtMasterD1Ev) for TExtMaster::~TExtMaster()
    lev_gauge_to_pc.o(i._ZN36_INTERNAL_19_lev_gauge_to_pc_cpp_UIF17LL_TIM_OC_SetModeEP11TIM_TypeDefjj) refers to lev_gauge_to_pc.o(.constdata) for OFFSET_TAB_CCMRx
    lev_gauge_to_pc.o(i._ZN36_INTERNAL_19_lev_gauge_to_pc_cpp_UIF19LL_TIM_IC_SetFilterEP11TIM_TypeDefjj) refers to lev_gauge_to_pc.o(.constdata) for OFFSET_TAB_CCMRx
    lev_gauge_to_pc.o(i._ZN36_INTERNAL_19_lev_gauge_to_pc_cpp_UIF21LL_TIM_IC_SetPolarityEP11TIM_TypeDefjj) refers to lev_gauge_to_pc.o(.constdata) for SHIFT_TAB_CCxP
    lev_gauge_to_pc.o(i._ZN36_INTERNAL_19_lev_gauge_to_pc_cpp_UIF22LL_TIM_IC_SetPrescalerEP11TIM_TypeDefjj) refers to lev_gauge_to_pc.o(.constdata) for OFFSET_TAB_CCMRx
    lev_gauge_to_pc.o(i._ZN36_INTERNAL_19_lev_gauge_to_pc_cpp_UIF22LL_TIM_OC_ConfigOutputEP11TIM_TypeDefjj) refers to lev_gauge_to_pc.o(.constdata) for OFFSET_TAB_CCMRx
    lev_gauge_to_pc.o(i._ZN36_INTERNAL_19_lev_gauge_to_pc_cpp_UIF23LL_TIM_OC_EnablePreloadEP11TIM_TypeDefj) refers to lev_gauge_to_pc.o(.constdata) for OFFSET_TAB_CCMRx
    lev_gauge_to_pc.o(i._ZN36_INTERNAL_19_lev_gauge_to_pc_cpp_UIF24LL_TIM_IC_SetActiveInputEP11TIM_TypeDefjj) refers to lev_gauge_to_pc.o(.constdata) for OFFSET_TAB_CCMRx
    lev_gauge_to_pc.o(i.__sti___19_lev_gauge_to_pc_cpp_UIF) refers to lev_gauge_to_pc.o(i._ZN11TExchngToPCC1ERK9TUsart_HWRK7TTmr_HWS5_S5_RK7TAdc_HW) for TExchngToPC::TExchngToPC(const TUsart_HW&, const TTmr_HW&, const TTmr_HW&, const TTmr_HW&, const TAdc_HW&)
    lev_gauge_to_pc.o(i.__sti___19_lev_gauge_to_pc_cpp_UIF) refers to aeabi_atexit.o(.text) for __aeabi_atexit
    lev_gauge_to_pc.o(i.__sti___19_lev_gauge_to_pc_cpp_UIF) refers to hard_config.o(.data) for Adc_HW
    lev_gauge_to_pc.o(i.__sti___19_lev_gauge_to_pc_cpp_UIF) refers to lev_gauge_to_pc.o(.bss) for ExchngToPC
    lev_gauge_to_pc.o(i.__sti___19_lev_gauge_to_pc_cpp_UIF) refers to lev_gauge_to_pc.o(i._ZN11TExchngToPCD1Ev) for TExchngToPC::~TExchngToPC()
    lev_gauge_to_pc.o(.ARM.exidx) refers to lev_gauge_to_pc.o(i._ZN36_INTERNAL_19_lev_gauge_to_pc_cpp_UIF16NVIC_SetPriorityE9IRQn_Typej) for i._ZN36_INTERNAL_19_lev_gauge_to_pc_cpp_UIF16NVIC_SetPriorityE9IRQn_Typej
    lev_gauge_to_pc.o(.ARM.exidx) refers to lev_gauge_to_pc.o(i._ZN36_INTERNAL_19_lev_gauge_to_pc_cpp_UIF19NVIC_EncodePriorityEjjj) for i._ZN36_INTERNAL_19_lev_gauge_to_pc_cpp_UIF19NVIC_EncodePriorityEjjj
    lev_gauge_to_pc.o(.ARM.exidx) refers to lev_gauge_to_pc.o(i._ZN36_INTERNAL_19_lev_gauge_to_pc_cpp_UIF24LL_TIM_IC_SetActiveInputEP11TIM_TypeDefjj) for i._ZN36_INTERNAL_19_lev_gauge_to_pc_cpp_UIF24LL_TIM_IC_SetActiveInputEP11TIM_TypeDefjj
    lev_gauge_to_pc.o(.ARM.exidx) refers to lev_gauge_to_pc.o(i._ZN36_INTERNAL_19_lev_gauge_to_pc_cpp_UIF22LL_TIM_IC_SetPrescalerEP11TIM_TypeDefjj) for i._ZN36_INTERNAL_19_lev_gauge_to_pc_cpp_UIF22LL_TIM_IC_SetPrescalerEP11TIM_TypeDefjj
    lev_gauge_to_pc.o(.ARM.exidx) refers to lev_gauge_to_pc.o(i._ZN36_INTERNAL_19_lev_gauge_to_pc_cpp_UIF19LL_TIM_IC_SetFilterEP11TIM_TypeDefjj) for i._ZN36_INTERNAL_19_lev_gauge_to_pc_cpp_UIF19LL_TIM_IC_SetFilterEP11TIM_TypeDefjj
    lev_gauge_to_pc.o(.ARM.exidx) refers to lev_gauge_to_pc.o(i._ZN36_INTERNAL_19_lev_gauge_to_pc_cpp_UIF21LL_TIM_IC_SetPolarityEP11TIM_TypeDefjj) for i._ZN36_INTERNAL_19_lev_gauge_to_pc_cpp_UIF21LL_TIM_IC_SetPolarityEP11TIM_TypeDefjj
    lev_gauge_to_pc.o(.ARM.exidx) refers to lev_gauge_to_pc.o(i._ZN36_INTERNAL_19_lev_gauge_to_pc_cpp_UIF18LL_GPIO_SetPinModeEP12GPIO_TypeDefjj) for i._ZN36_INTERNAL_19_lev_gauge_to_pc_cpp_UIF18LL_GPIO_SetPinModeEP12GPIO_TypeDefjj
    lev_gauge_to_pc.o(.ARM.exidx) refers to lev_gauge_to_pc.o(i._ZN36_INTERNAL_19_lev_gauge_to_pc_cpp_UIF19LL_GPIO_SetPinSpeedEP12GPIO_TypeDefjj) for i._ZN36_INTERNAL_19_lev_gauge_to_pc_cpp_UIF19LL_GPIO_SetPinSpeedEP12GPIO_TypeDefjj
    lev_gauge_to_pc.o(.ARM.exidx) refers to lev_gauge_to_pc.o(i._ZN36_INTERNAL_19_lev_gauge_to_pc_cpp_UIF18LL_GPIO_SetPinPullEP12GPIO_TypeDefjj) for i._ZN36_INTERNAL_19_lev_gauge_to_pc_cpp_UIF18LL_GPIO_SetPinPullEP12GPIO_TypeDefjj
    lev_gauge_to_pc.o(.ARM.exidx) refers to lev_gauge_to_pc.o(i._ZN36_INTERNAL_19_lev_gauge_to_pc_cpp_UIF20LL_GPIO_SetAFPin_0_7EP12GPIO_TypeDefjj) for i._ZN36_INTERNAL_19_lev_gauge_to_pc_cpp_UIF20LL_GPIO_SetAFPin_0_7EP12GPIO_TypeDefjj
    lev_gauge_to_pc.o(.ARM.exidx) refers to lev_gauge_to_pc.o(i._ZN11TExchngToPC7adc_calEv) for i._ZN11TExchngToPC7adc_calEv
    lev_gauge_to_pc.o(.ARM.exidx) refers to lev_gauge_to_pc.o(i._ZN11TExchngToPC8adc_initEv) for i._ZN11TExchngToPC8adc_initEv
    lev_gauge_to_pc.o(.ARM.exidx) refers to lev_gauge_to_pc.o(i._ZN11TExchngToPC13tmr_diff_initEv) for i._ZN11TExchngToPC13tmr_diff_initEv
    lev_gauge_to_pc.o(.ARM.exidx) refers to lev_gauge_to_pc.o(i._ZN11TExchngToPC12tmr_cmp_initEv) for i._ZN11TExchngToPC12tmr_cmp_initEv
    lev_gauge_to_pc.o(.ARM.exidx) refers to lev_gauge_to_pc.o(i._ZN11TExchngToPC7cnt_pwmEv) for i._ZN11TExchngToPC7cnt_pwmEv
    lev_gauge_to_pc.o(.ARM.exidx) refers to lev_gauge_to_pc.o(i._ZN11TExchngToPC13tmr_freg_initEv) for i._ZN11TExchngToPC13tmr_freg_initEv
    lev_gauge_to_pc.o(.ARM.exidx) refers to lev_gauge_to_pc.o(i._Z15lev_gauge_to_pcPv) for i._Z15lev_gauge_to_pcPv
    lev_gauge_to_pc.o(.ARM.exidx) refers to lev_gauge_to_pc.o(i._ZN11TExchngToPC19set_upd_demand_flagEb) for i._ZN11TExchngToPC19set_upd_demand_flagEb
    lev_gauge_to_pc.o(.ARM.exidx) refers to lev_gauge_to_pc.o(i._ZN11TExchngToPC19get_upd_demand_flagEv) for i._ZN11TExchngToPC19get_upd_demand_flagEv
    lev_gauge_to_pc.o(.ARM.exidx) refers to lev_gauge_to_pc.o(i.TIM1_BRK_TIM15_IRQHandler) for i.TIM1_BRK_TIM15_IRQHandler
    lev_gauge_to_pc.o(.ARM.exidx) refers to lev_gauge_to_pc.o(i.EXTI15_10_IRQHandler) for i.EXTI15_10_IRQHandler
    lev_gauge_to_pc.o(.ARM.exidx) refers to lev_gauge_to_pc.o(i._ZN11TExchngToPCC1ERK9TUsart_HWRK7TTmr_HWS5_S5_RK7TAdc_HW) for i._ZN11TExchngToPCC1ERK9TUsart_HWRK7TTmr_HWS5_S5_RK7TAdc_HW
    lev_gauge_to_pc.o(.ARM.exidx) refers to lev_gauge_to_pc.o(i._ZN11TExchngToPCD1Ev) for i._ZN11TExchngToPCD1Ev
    lev_gauge_to_pc.o(.ARM.exidx) refers to lev_gauge_to_pc.o(i._ZN11TExchngToPC7set_pwmERKNS_4TPwmE) for i._ZN11TExchngToPC7set_pwmERKNS_4TPwmE
    lev_gauge_to_pc.o(.ARM.exidx) refers to lev_gauge_to_pc.o(i._ZN11TExchngToPC5iserrEf) for i._ZN11TExchngToPC5iserrEf
    lev_gauge_to_pc.o(.ARM.exidx) refers to lev_gauge_to_pc.o(i._ZN11TExchngToPC9chk_rangeEfRKNS_6TRangeE) for i._ZN11TExchngToPC9chk_rangeEfRKNS_6TRangeE
    lev_gauge_to_pc.o(.ARM.exidx) refers to lev_gauge_to_pc.o(i._ZN11TExchngToPC8ctrl_pwmEPNS_12TParamHandleE) for i._ZN11TExchngToPC8ctrl_pwmEPNS_12TParamHandleE
    lev_gauge_to_pc.o(.ARM.exidx) refers to lev_gauge_to_pc.o(i._ZN11TExchngToPC11rx_set_fregEPNS_12TParamHandleE) for i._ZN11TExchngToPC11rx_set_fregEPNS_12TParamHandleE
    lev_gauge_to_pc.o(.ARM.exidx) refers to lev_gauge_to_pc.o(i._ZN11TExchngToPC17rx_set_duty_cycleEPNS_12TParamHandleE) for i._ZN11TExchngToPC17rx_set_duty_cycleEPNS_12TParamHandleE
    lev_gauge_to_pc.o(.ARM.exidx) refers to lev_gauge_to_pc.o(i._ZN11TExchngToPC16rx_set_pos_pot_1EPNS_12TParamHandleE) for i._ZN11TExchngToPC16rx_set_pos_pot_1EPNS_12TParamHandleE
    lev_gauge_to_pc.o(.ARM.exidx) refers to lev_gauge_to_pc.o(i._ZN11TExchngToPC16rx_set_pos_pot_2EPNS_12TParamHandleE) for i._ZN11TExchngToPC16rx_set_pos_pot_2EPNS_12TParamHandleE
    lev_gauge_to_pc.o(.ARM.exidx) refers to lev_gauge_to_pc.o(i._ZN11TExchngToPC7dis_adcEv) for i._ZN11TExchngToPC7dis_adcEv
    lev_gauge_to_pc.o(.ARM.exidx) refers to lev_gauge_to_pc.o(i._ZN11TExchngToPC16deinit_diff_extiEv) for i._ZN11TExchngToPC16deinit_diff_extiEv
    lev_gauge_to_pc.o(.ARM.exidx) refers to lev_gauge_to_pc.o(i._ZN11TExchngToPC14init_diff_extiEj) for i._ZN11TExchngToPC14init_diff_extiEj
    lev_gauge_to_pc.o(.ARM.exidx) refers to lev_gauge_to_pc.o(i._ZN11TExchngToPC6en_adcEv) for i._ZN11TExchngToPC6en_adcEv
    lev_gauge_to_pc.o(.ARM.exidx) refers to lev_gauge_to_pc.o(i._ZN11TExchngToPC12rx_start_adcEPNS_12TParamHandleE) for i._ZN11TExchngToPC12rx_start_adcEPNS_12TParamHandleE
    lev_gauge_to_pc.o(.ARM.exidx) refers to lev_gauge_to_pc.o(i._ZN11TExchngToPC14rx_cmp_captureEPNS_12TParamHandleE) for i._ZN11TExchngToPC14rx_cmp_captureEPNS_12TParamHandleE
    lev_gauge_to_pc.o(.ARM.exidx) refers to lev_gauge_to_pc.o(i._ZN11TExchngToPC13set_diff_freqEt) for i._ZN11TExchngToPC13set_diff_freqEt
    lev_gauge_to_pc.o(.ARM.exidx) refers to lev_gauge_to_pc.o(i._ZN11TExchngToPC15rx_diff_captureEPNS_12TParamHandleE) for i._ZN11TExchngToPC15rx_diff_captureEPNS_12TParamHandleE
    lev_gauge_to_pc.o(.ARM.exidx) refers to lev_gauge_to_pc.o(i._ZN11TExchngToPC11tx_set_fregEPNS_12TParamHandleE) for i._ZN11TExchngToPC11tx_set_fregEPNS_12TParamHandleE
    lev_gauge_to_pc.o(.ARM.exidx) refers to lev_gauge_to_pc.o(i._ZN11TExchngToPC17tx_set_duty_cycleEPNS_12TParamHandleE) for i._ZN11TExchngToPC17tx_set_duty_cycleEPNS_12TParamHandleE
    lev_gauge_to_pc.o(.ARM.exidx) refers to lev_gauge_to_pc.o(i._ZN11TExchngToPC16tx_set_pos_pot_1EPNS_12TParamHandleE) for i._ZN11TExchngToPC16tx_set_pos_pot_1EPNS_12TParamHandleE
    lev_gauge_to_pc.o(.ARM.exidx) refers to lev_gauge_to_pc.o(i._ZN11TExchngToPC16tx_set_pos_pot_2EPNS_12TParamHandleE) for i._ZN11TExchngToPC16tx_set_pos_pot_2EPNS_12TParamHandleE
    lev_gauge_to_pc.o(.ARM.exidx) refers to lev_gauge_to_pc.o(i._ZN11TExchngToPC7tx_testEPNS_12TParamHandleE) for i._ZN11TExchngToPC7tx_testEPNS_12TParamHandleE
    lev_gauge_to_pc.o(.ARM.exidx) refers to lev_gauge_to_pc.o(i._ZN11TExchngToPC6tx_adcEPNS_12TParamHandleE) for i._ZN11TExchngToPC6tx_adcEPNS_12TParamHandleE
    lev_gauge_to_pc.o(.ARM.exidx) refers to lev_gauge_to_pc.o(i._ZN11TExchngToPC14tx_cmp_captureEPNS_12TParamHandleE) for i._ZN11TExchngToPC14tx_cmp_captureEPNS_12TParamHandleE
    lev_gauge_to_pc.o(.ARM.exidx) refers to lev_gauge_to_pc.o(i._ZN11TExchngToPC15tx_diff_captureEPNS_12TParamHandleE) for i._ZN11TExchngToPC15tx_diff_captureEPNS_12TParamHandleE
    lev_gauge_to_pc.o(.ARM.exidx) refers to lev_gauge_to_pc.o(i.__sti___19_lev_gauge_to_pc_cpp_UIF) for i.__sti___19_lev_gauge_to_pc_cpp_UIF
    lev_gauge_to_pc.o(.ARM.exidx) refers to lev_gauge_to_pc.o(i._ZN36_INTERNAL_19_lev_gauge_to_pc_cpp_UIF24NVIC_GetPriorityGroupingEv) for i._ZN36_INTERNAL_19_lev_gauge_to_pc_cpp_UIF24NVIC_GetPriorityGroupingEv
    lev_gauge_to_pc.o(.ARM.exidx) refers to lev_gauge_to_pc.o(i._ZN36_INTERNAL_19_lev_gauge_to_pc_cpp_UIF14NVIC_EnableIRQE9IRQn_Type) for i._ZN36_INTERNAL_19_lev_gauge_to_pc_cpp_UIF14NVIC_EnableIRQE9IRQn_Type
    lev_gauge_to_pc.o(.ARM.exidx) refers to lev_gauge_to_pc.o(i._ZN36_INTERNAL_19_lev_gauge_to_pc_cpp_UIF20LL_TIM_EnableCounterEP11TIM_TypeDef) for i._ZN36_INTERNAL_19_lev_gauge_to_pc_cpp_UIF20LL_TIM_EnableCounterEP11TIM_TypeDef
    lev_gauge_to_pc.o(.ARM.exidx) refers to lev_gauge_to_pc.o(i._ZN36_INTERNAL_19_lev_gauge_to_pc_cpp_UIF21LL_TIM_DisableCounterEP11TIM_TypeDef) for i._ZN36_INTERNAL_19_lev_gauge_to_pc_cpp_UIF21LL_TIM_DisableCounterEP11TIM_TypeDef
    lev_gauge_to_pc.o(.ARM.exidx) refers to lev_gauge_to_pc.o(i._ZN36_INTERNAL_19_lev_gauge_to_pc_cpp_UIF23LL_TIM_EnableARRPreloadEP11TIM_TypeDef) for i._ZN36_INTERNAL_19_lev_gauge_to_pc_cpp_UIF23LL_TIM_EnableARRPreloadEP11TIM_TypeDef
    lev_gauge_to_pc.o(.ARM.exidx) refers to lev_gauge_to_pc.o(i._ZN36_INTERNAL_19_lev_gauge_to_pc_cpp_UIF17LL_TIM_SetCounterEP11TIM_TypeDefj) for i._ZN36_INTERNAL_19_lev_gauge_to_pc_cpp_UIF17LL_TIM_SetCounterEP11TIM_TypeDefj
    lev_gauge_to_pc.o(.ARM.exidx) refers to lev_gauge_to_pc.o(i._ZN36_INTERNAL_19_lev_gauge_to_pc_cpp_UIF19LL_TIM_SetPrescalerEP11TIM_TypeDefj) for i._ZN36_INTERNAL_19_lev_gauge_to_pc_cpp_UIF19LL_TIM_SetPrescalerEP11TIM_TypeDefj
    lev_gauge_to_pc.o(.ARM.exidx) refers to lev_gauge_to_pc.o(i._ZN36_INTERNAL_19_lev_gauge_to_pc_cpp_UIF20LL_TIM_SetAutoReloadEP11TIM_TypeDefj) for i._ZN36_INTERNAL_19_lev_gauge_to_pc_cpp_UIF20LL_TIM_SetAutoReloadEP11TIM_TypeDefj
    lev_gauge_to_pc.o(.ARM.exidx) refers to lev_gauge_to_pc.o(i._ZN36_INTERNAL_19_lev_gauge_to_pc_cpp_UIF23LL_TIM_CC_EnableChannelEP11TIM_TypeDefj) for i._ZN36_INTERNAL_19_lev_gauge_to_pc_cpp_UIF23LL_TIM_CC_EnableChannelEP11TIM_TypeDefj
    lev_gauge_to_pc.o(.ARM.exidx) refers to lev_gauge_to_pc.o(i._ZN36_INTERNAL_19_lev_gauge_to_pc_cpp_UIF22LL_TIM_OC_ConfigOutputEP11TIM_TypeDefjj) for i._ZN36_INTERNAL_19_lev_gauge_to_pc_cpp_UIF22LL_TIM_OC_ConfigOutputEP11TIM_TypeDefjj
    lev_gauge_to_pc.o(.ARM.exidx) refers to lev_gauge_to_pc.o(i._ZN36_INTERNAL_19_lev_gauge_to_pc_cpp_UIF17LL_TIM_OC_SetModeEP11TIM_TypeDefjj) for i._ZN36_INTERNAL_19_lev_gauge_to_pc_cpp_UIF17LL_TIM_OC_SetModeEP11TIM_TypeDefjj
    lev_gauge_to_pc.o(.ARM.exidx) refers to lev_gauge_to_pc.o(i._ZN36_INTERNAL_19_lev_gauge_to_pc_cpp_UIF23LL_TIM_OC_EnablePreloadEP11TIM_TypeDefj) for i._ZN36_INTERNAL_19_lev_gauge_to_pc_cpp_UIF23LL_TIM_OC_EnablePreloadEP11TIM_TypeDefj
    lev_gauge_to_pc.o(.ARM.exidx) refers to lev_gauge_to_pc.o(i._ZN36_INTERNAL_19_lev_gauge_to_pc_cpp_UIF23LL_TIM_OC_SetCompareCH1EP11TIM_TypeDefj) for i._ZN36_INTERNAL_19_lev_gauge_to_pc_cpp_UIF23LL_TIM_OC_SetCompareCH1EP11TIM_TypeDefj
    lev_gauge_to_pc.o(.ARM.exidx) refers to lev_gauge_to_pc.o(i._ZN36_INTERNAL_19_lev_gauge_to_pc_cpp_UIF19LL_TIM_SetSlaveModeEP11TIM_TypeDefj) for i._ZN36_INTERNAL_19_lev_gauge_to_pc_cpp_UIF19LL_TIM_SetSlaveModeEP11TIM_TypeDefj
    lev_gauge_to_pc.o(.ARM.exidx) refers to lev_gauge_to_pc.o(i._ZN36_INTERNAL_19_lev_gauge_to_pc_cpp_UIF23LL_TIM_EnableAllOutputsEP11TIM_TypeDef) for i._ZN36_INTERNAL_19_lev_gauge_to_pc_cpp_UIF23LL_TIM_EnableAllOutputsEP11TIM_TypeDef
    lev_gauge_to_pc.o(.ARM.exidx) refers to lev_gauge_to_pc.o(i._ZN36_INTERNAL_19_lev_gauge_to_pc_cpp_UIF23LL_TIM_ClearFlag_UPDATEEP11TIM_TypeDef) for i._ZN36_INTERNAL_19_lev_gauge_to_pc_cpp_UIF23LL_TIM_ClearFlag_UPDATEEP11TIM_TypeDef
    lev_gauge_to_pc.o(.ARM.exidx) refers to lev_gauge_to_pc.o(i._ZN36_INTERNAL_19_lev_gauge_to_pc_cpp_UIF26LL_TIM_IsActiveFlag_UPDATEEP11TIM_TypeDef) for i._ZN36_INTERNAL_19_lev_gauge_to_pc_cpp_UIF26LL_TIM_IsActiveFlag_UPDATEEP11TIM_TypeDef
    lev_gauge_to_pc.o(.ARM.exidx) refers to lev_gauge_to_pc.o(i._ZN36_INTERNAL_19_lev_gauge_to_pc_cpp_UIF27LL_TIM_GenerateEvent_UPDATEEP11TIM_TypeDef) for i._ZN36_INTERNAL_19_lev_gauge_to_pc_cpp_UIF27LL_TIM_GenerateEvent_UPDATEEP11TIM_TypeDef
    lev_gauge_to_pc.o(.ARM.exidx) refers to lev_gauge_to_pc.o(i._ZN36_INTERNAL_19_lev_gauge_to_pc_cpp_UIF14LL_ADC_DisableEP11ADC_TypeDef) for i._ZN36_INTERNAL_19_lev_gauge_to_pc_cpp_UIF14LL_ADC_DisableEP11ADC_TypeDef
    lev_gauge_to_pc.o(.ARM.exidx) refers to lev_gauge_to_pc.o(i._ZN36_INTERNAL_19_lev_gauge_to_pc_cpp_UIF16LL_ADC_IsEnabledEP11ADC_TypeDef) for i._ZN36_INTERNAL_19_lev_gauge_to_pc_cpp_UIF16LL_ADC_IsEnabledEP11ADC_TypeDef
    lev_gauge_to_pc.o(.ARM.exidx) refers to lev_gauge_to_pc.o(i._ZN36_INTERNAL_19_lev_gauge_to_pc_cpp_UIF23LL_ADC_IsDisableOngoingEP11ADC_TypeDef) for i._ZN36_INTERNAL_19_lev_gauge_to_pc_cpp_UIF23LL_ADC_IsDisableOngoingEP11ADC_TypeDef
    lev_gauge_to_pc.o(.ARM.exidx) refers to lev_gauge_to_pc.o(i._ZN36_INTERNAL_19_lev_gauge_to_pc_cpp_UIF25LL_ADC_REG_StopConversionEP11ADC_TypeDef) for i._ZN36_INTERNAL_19_lev_gauge_to_pc_cpp_UIF25LL_ADC_REG_StopConversionEP11ADC_TypeDef
    lev_gauge_to_pc.o(.ARM.exidx) refers to lev_gauge_to_pc.o(i._ZN36_INTERNAL_19_lev_gauge_to_pc_cpp_UIF30LL_ADC_REG_IsConversionOngoingEP11ADC_TypeDef) for i._ZN36_INTERNAL_19_lev_gauge_to_pc_cpp_UIF30LL_ADC_REG_IsConversionOngoingEP11ADC_TypeDef
    lev_gauge_to_pc.o(.ARM.exidx) refers to lev_gauge_to_pc.o(i._ZN36_INTERNAL_19_lev_gauge_to_pc_cpp_UIF34LL_ADC_REG_IsStopConversionOngoingEP11ADC_TypeDef) for i._ZN36_INTERNAL_19_lev_gauge_to_pc_cpp_UIF34LL_ADC_REG_IsStopConversionOngoingEP11ADC_TypeDef
    lev_gauge_to_pc.o(.ARM.exidx) refers to lev_gauge_to_pc.o(i._ZN36_INTERNAL_19_lev_gauge_to_pc_cpp_UIF30LL_ADC_INJ_IsConversionOngoingEP11ADC_TypeDef) for i._ZN36_INTERNAL_19_lev_gauge_to_pc_cpp_UIF30LL_ADC_INJ_IsConversionOngoingEP11ADC_TypeDef
    lev_gauge_to_pc.o(.ARM.exidx) refers to lev_gauge_to_pc.o(i._ZN36_INTERNAL_19_lev_gauge_to_pc_cpp_UIF22LL_ADC_ClearFlag_ADRDYEP11ADC_TypeDef) for i._ZN36_INTERNAL_19_lev_gauge_to_pc_cpp_UIF22LL_ADC_ClearFlag_ADRDYEP11ADC_TypeDef
    lev_gauge_to_pc.o(.constdata) refers to lev_gauge_to_pc.o(.data) for ParamHandle
    lev_gauge_to_pc.o(.constdata) refers to lev_gauge_to_pc.o(i._ZN11TExchngToPC11rx_set_fregEPNS_12TParamHandleE) for TExchngToPC::rx_set_freg(TExchngToPC::TParamHandle*)
    lev_gauge_to_pc.o(.constdata) refers to lev_gauge_to_pc.o(i._ZN11TExchngToPC11tx_set_fregEPNS_12TParamHandleE) for TExchngToPC::tx_set_freg(TExchngToPC::TParamHandle*)
    lev_gauge_to_pc.o(.constdata) refers to lev_gauge_to_pc.o(i._ZN11TExchngToPC17rx_set_duty_cycleEPNS_12TParamHandleE) for TExchngToPC::rx_set_duty_cycle(TExchngToPC::TParamHandle*)
    lev_gauge_to_pc.o(.constdata) refers to lev_gauge_to_pc.o(i._ZN11TExchngToPC17tx_set_duty_cycleEPNS_12TParamHandleE) for TExchngToPC::tx_set_duty_cycle(TExchngToPC::TParamHandle*)
    lev_gauge_to_pc.o(.constdata) refers to lev_gauge_to_pc.o(i._ZN11TExchngToPC16rx_set_pos_pot_1EPNS_12TParamHandleE) for TExchngToPC::rx_set_pos_pot_1(TExchngToPC::TParamHandle*)
    lev_gauge_to_pc.o(.constdata) refers to lev_gauge_to_pc.o(i._ZN11TExchngToPC16tx_set_pos_pot_1EPNS_12TParamHandleE) for TExchngToPC::tx_set_pos_pot_1(TExchngToPC::TParamHandle*)
    lev_gauge_to_pc.o(.constdata) refers to lev_gauge_to_pc.o(i._ZN11TExchngToPC16rx_set_pos_pot_2EPNS_12TParamHandleE) for TExchngToPC::rx_set_pos_pot_2(TExchngToPC::TParamHandle*)
    lev_gauge_to_pc.o(.constdata) refers to lev_gauge_to_pc.o(i._ZN11TExchngToPC16tx_set_pos_pot_2EPNS_12TParamHandleE) for TExchngToPC::tx_set_pos_pot_2(TExchngToPC::TParamHandle*)
    lev_gauge_to_pc.o(.constdata) refers to lev_gauge_to_pc.o(i._ZN11TExchngToPC7tx_testEPNS_12TParamHandleE) for TExchngToPC::tx_test(TExchngToPC::TParamHandle*)
    lev_gauge_to_pc.o(.constdata) refers to lev_gauge_to_pc.o(i._ZN11TExchngToPC12rx_start_adcEPNS_12TParamHandleE) for TExchngToPC::rx_start_adc(TExchngToPC::TParamHandle*)
    lev_gauge_to_pc.o(.constdata) refers to lev_gauge_to_pc.o(i._ZN11TExchngToPC6tx_adcEPNS_12TParamHandleE) for TExchngToPC::tx_adc(TExchngToPC::TParamHandle*)
    lev_gauge_to_pc.o(.constdata) refers to lev_gauge_to_pc.o(i._ZN11TExchngToPC14rx_cmp_captureEPNS_12TParamHandleE) for TExchngToPC::rx_cmp_capture(TExchngToPC::TParamHandle*)
    lev_gauge_to_pc.o(.constdata) refers to lev_gauge_to_pc.o(i._ZN11TExchngToPC14tx_cmp_captureEPNS_12TParamHandleE) for TExchngToPC::tx_cmp_capture(TExchngToPC::TParamHandle*)
    lev_gauge_to_pc.o(.constdata) refers to lev_gauge_to_pc.o(i._ZN11TExchngToPC15rx_diff_captureEPNS_12TParamHandleE) for TExchngToPC::rx_diff_capture(TExchngToPC::TParamHandle*)
    lev_gauge_to_pc.o(.constdata) refers to lev_gauge_to_pc.o(i._ZN11TExchngToPC15tx_diff_captureEPNS_12TParamHandleE) for TExchngToPC::tx_diff_capture(TExchngToPC::TParamHandle*)
    lev_gauge_to_pc.o(.data) refers to lev_gauge_to_pc.o(.bss) for ExchngToPC
    lev_gauge_to_pc.o(.init_array) refers to lev_gauge_to_pc.o(i.__sti___19_lev_gauge_to_pc_cpp_UIF) for __sti___19_lev_gauge_to_pc_cpp_UIF
    lev_gauge_to_pc.o(.init_array) refers to cpp_init.o(.text) for __cpp_initialize__aeabi_
    startup_stm32l431xx.o(RESET) refers to startup_stm32l431xx.o(STACK) for __initial_sp
    startup_stm32l431xx.o(RESET) refers to startup_stm32l431xx.o(.text) for Reset_Handler
    startup_stm32l431xx.o(RESET) refers to port.o(.emb_text) for SVC_Handler
    startup_stm32l431xx.o(RESET) refers to port.o(i.SysTick_Handler) for SysTick_Handler
    startup_stm32l431xx.o(RESET) refers to flash_driver.o(i.FLASH_IRQHandler) for FLASH_IRQHandler
    startup_stm32l431xx.o(RESET) refers to lev_gauge_to_pc.o(i.TIM1_BRK_TIM15_IRQHandler) for TIM1_BRK_TIM15_IRQHandler
    startup_stm32l431xx.o(RESET) refers to i2c_driver.o(i.I2C1_EV_IRQHandler) for I2C1_EV_IRQHandler
    startup_stm32l431xx.o(RESET) refers to i2c_driver.o(i.I2C1_ER_IRQHandler) for I2C1_ER_IRQHandler
    startup_stm32l431xx.o(RESET) refers to i2c_driver.o(i.I2C2_EV_IRQHandler) for I2C2_EV_IRQHandler
    startup_stm32l431xx.o(RESET) refers to i2c_driver.o(i.I2C2_ER_IRQHandler) for I2C2_ER_IRQHandler
    startup_stm32l431xx.o(RESET) refers to lev_gauge_to_pc.o(i.EXTI15_10_IRQHandler) for EXTI15_10_IRQHandler
    startup_stm32l431xx.o(RESET) refers to flash_driver.o(i.TIM6_DAC_IRQHandler) for TIM6_DAC_IRQHandler
    startup_stm32l431xx.o(.text) refers to system_stm32l4xx.o(i.SystemInit) for SystemInit
    startup_stm32l431xx.o(.text) refers to entry.o(.ARM.Collect$$$$00000000) for __main
    system_stm32l4xx.o(i.SystemCoreClockUpdate) refers to system_stm32l4xx.o(.constdata) for MSIRangeTable
    system_stm32l4xx.o(i.SystemCoreClockUpdate) refers to system_stm32l4xx.o(.data) for SystemCoreClock
    stm32l4xx_ll_exti.o(i.LL_EXTI_Init) refers to stm32l4xx_ll_exti.o(i.LL_EXTI_DisableEvent_0_31) for LL_EXTI_DisableEvent_0_31
    stm32l4xx_ll_exti.o(i.LL_EXTI_Init) refers to stm32l4xx_ll_exti.o(i.LL_EXTI_EnableIT_0_31) for LL_EXTI_EnableIT_0_31
    stm32l4xx_ll_exti.o(i.LL_EXTI_Init) refers to stm32l4xx_ll_exti.o(i.LL_EXTI_DisableIT_0_31) for LL_EXTI_DisableIT_0_31
    stm32l4xx_ll_exti.o(i.LL_EXTI_Init) refers to stm32l4xx_ll_exti.o(i.LL_EXTI_EnableEvent_0_31) for LL_EXTI_EnableEvent_0_31
    stm32l4xx_ll_exti.o(i.LL_EXTI_Init) refers to stm32l4xx_ll_exti.o(i.LL_EXTI_EnableRisingTrig_0_31) for LL_EXTI_EnableRisingTrig_0_31
    stm32l4xx_ll_exti.o(i.LL_EXTI_Init) refers to stm32l4xx_ll_exti.o(i.LL_EXTI_EnableFallingTrig_0_31) for LL_EXTI_EnableFallingTrig_0_31
    stm32l4xx_ll_exti.o(i.LL_EXTI_Init) refers to stm32l4xx_ll_exti.o(i.LL_EXTI_DisableEvent_32_63) for LL_EXTI_DisableEvent_32_63
    stm32l4xx_ll_exti.o(i.LL_EXTI_Init) refers to stm32l4xx_ll_exti.o(i.LL_EXTI_EnableIT_32_63) for LL_EXTI_EnableIT_32_63
    stm32l4xx_ll_exti.o(i.LL_EXTI_Init) refers to stm32l4xx_ll_exti.o(i.LL_EXTI_DisableIT_32_63) for LL_EXTI_DisableIT_32_63
    stm32l4xx_ll_exti.o(i.LL_EXTI_Init) refers to stm32l4xx_ll_exti.o(i.LL_EXTI_EnableEvent_32_63) for LL_EXTI_EnableEvent_32_63
    stm32l4xx_ll_exti.o(i.LL_EXTI_Init) refers to stm32l4xx_ll_exti.o(i.LL_EXTI_EnableRisingTrig_32_63) for LL_EXTI_EnableRisingTrig_32_63
    stm32l4xx_ll_exti.o(i.LL_EXTI_Init) refers to stm32l4xx_ll_exti.o(i.LL_EXTI_EnableFallingTrig_32_63) for LL_EXTI_EnableFallingTrig_32_63
    stm32l4xx_ll_gpio.o(i.LL_GPIO_DeInit) refers to stm32l4xx_ll_gpio.o(i.LL_AHB2_GRP1_ForceReset) for LL_AHB2_GRP1_ForceReset
    stm32l4xx_ll_gpio.o(i.LL_GPIO_DeInit) refers to stm32l4xx_ll_gpio.o(i.LL_AHB2_GRP1_ReleaseReset) for LL_AHB2_GRP1_ReleaseReset
    stm32l4xx_ll_i2c.o(i.LL_I2C_DeInit) refers to stm32l4xx_ll_i2c.o(i.LL_APB1_GRP1_ForceReset) for LL_APB1_GRP1_ForceReset
    stm32l4xx_ll_i2c.o(i.LL_I2C_DeInit) refers to stm32l4xx_ll_i2c.o(i.LL_APB1_GRP1_ReleaseReset) for LL_APB1_GRP1_ReleaseReset
    stm32l4xx_ll_rcc.o(i.LL_RCC_DeInit) refers to stm32l4xx_ll_rcc.o(i.LL_RCC_MSI_IsReady) for LL_RCC_MSI_IsReady
    stm32l4xx_ll_rcc.o(i.LL_RCC_GetADCClockFreq) refers to stm32l4xx_ll_rcc.o(i.LL_RCC_PLLSAI1_IsReady) for LL_RCC_PLLSAI1_IsReady
    stm32l4xx_ll_rcc.o(i.LL_RCC_GetADCClockFreq) refers to stm32l4xx_ll_rcc.o(i.RCC_PLLSAI1_GetFreqDomain_ADC) for RCC_PLLSAI1_GetFreqDomain_ADC
    stm32l4xx_ll_rcc.o(i.LL_RCC_GetADCClockFreq) refers to stm32l4xx_ll_rcc.o(i.RCC_GetSystemClockFreq) for RCC_GetSystemClockFreq
    stm32l4xx_ll_rcc.o(i.LL_RCC_GetI2CClockFreq) refers to stm32l4xx_ll_rcc.o(i.LL_RCC_GetI2CClockSource) for LL_RCC_GetI2CClockSource
    stm32l4xx_ll_rcc.o(i.LL_RCC_GetI2CClockFreq) refers to stm32l4xx_ll_rcc.o(i.RCC_GetSystemClockFreq) for RCC_GetSystemClockFreq
    stm32l4xx_ll_rcc.o(i.LL_RCC_GetI2CClockFreq) refers to stm32l4xx_ll_rcc.o(i.LL_RCC_HSI_IsReady) for LL_RCC_HSI_IsReady
    stm32l4xx_ll_rcc.o(i.LL_RCC_GetI2CClockFreq) refers to stm32l4xx_ll_rcc.o(i.RCC_GetHCLKClockFreq) for RCC_GetHCLKClockFreq
    stm32l4xx_ll_rcc.o(i.LL_RCC_GetI2CClockFreq) refers to stm32l4xx_ll_rcc.o(i.RCC_GetPCLK1ClockFreq) for RCC_GetPCLK1ClockFreq
    stm32l4xx_ll_rcc.o(i.LL_RCC_GetLPTIMClockFreq) refers to stm32l4xx_ll_rcc.o(i.LL_RCC_GetLPTIMClockSource) for LL_RCC_GetLPTIMClockSource
    stm32l4xx_ll_rcc.o(i.LL_RCC_GetLPTIMClockFreq) refers to stm32l4xx_ll_rcc.o(i.LL_RCC_LSI_IsReady) for LL_RCC_LSI_IsReady
    stm32l4xx_ll_rcc.o(i.LL_RCC_GetLPTIMClockFreq) refers to stm32l4xx_ll_rcc.o(i.LL_RCC_HSI_IsReady) for LL_RCC_HSI_IsReady
    stm32l4xx_ll_rcc.o(i.LL_RCC_GetLPTIMClockFreq) refers to stm32l4xx_ll_rcc.o(i.LL_RCC_LSE_IsReady) for LL_RCC_LSE_IsReady
    stm32l4xx_ll_rcc.o(i.LL_RCC_GetLPTIMClockFreq) refers to stm32l4xx_ll_rcc.o(i.RCC_GetSystemClockFreq) for RCC_GetSystemClockFreq
    stm32l4xx_ll_rcc.o(i.LL_RCC_GetLPTIMClockFreq) refers to stm32l4xx_ll_rcc.o(i.RCC_GetHCLKClockFreq) for RCC_GetHCLKClockFreq
    stm32l4xx_ll_rcc.o(i.LL_RCC_GetLPTIMClockFreq) refers to stm32l4xx_ll_rcc.o(i.RCC_GetPCLK1ClockFreq) for RCC_GetPCLK1ClockFreq
    stm32l4xx_ll_rcc.o(i.LL_RCC_GetLPUARTClockFreq) refers to stm32l4xx_ll_rcc.o(i.RCC_GetSystemClockFreq) for RCC_GetSystemClockFreq
    stm32l4xx_ll_rcc.o(i.LL_RCC_GetLPUARTClockFreq) refers to stm32l4xx_ll_rcc.o(i.LL_RCC_HSI_IsReady) for LL_RCC_HSI_IsReady
    stm32l4xx_ll_rcc.o(i.LL_RCC_GetLPUARTClockFreq) refers to stm32l4xx_ll_rcc.o(i.LL_RCC_LSE_IsReady) for LL_RCC_LSE_IsReady
    stm32l4xx_ll_rcc.o(i.LL_RCC_GetLPUARTClockFreq) refers to stm32l4xx_ll_rcc.o(i.RCC_GetHCLKClockFreq) for RCC_GetHCLKClockFreq
    stm32l4xx_ll_rcc.o(i.LL_RCC_GetLPUARTClockFreq) refers to stm32l4xx_ll_rcc.o(i.RCC_GetPCLK1ClockFreq) for RCC_GetPCLK1ClockFreq
    stm32l4xx_ll_rcc.o(i.LL_RCC_GetRNGClockFreq) refers to stm32l4xx_ll_rcc.o(i.LL_RCC_PLLSAI1_IsReady) for LL_RCC_PLLSAI1_IsReady
    stm32l4xx_ll_rcc.o(i.LL_RCC_GetRNGClockFreq) refers to stm32l4xx_ll_rcc.o(i.RCC_PLLSAI1_GetFreqDomain_48M) for RCC_PLLSAI1_GetFreqDomain_48M
    stm32l4xx_ll_rcc.o(i.LL_RCC_GetRNGClockFreq) refers to stm32l4xx_ll_rcc.o(i.LL_RCC_PLL_IsReady) for LL_RCC_PLL_IsReady
    stm32l4xx_ll_rcc.o(i.LL_RCC_GetRNGClockFreq) refers to stm32l4xx_ll_rcc.o(i.RCC_PLL_GetFreqDomain_48M) for RCC_PLL_GetFreqDomain_48M
    stm32l4xx_ll_rcc.o(i.LL_RCC_GetRNGClockFreq) refers to stm32l4xx_ll_rcc.o(i.LL_RCC_MSI_IsReady) for LL_RCC_MSI_IsReady
    stm32l4xx_ll_rcc.o(i.LL_RCC_GetRNGClockFreq) refers to stm32l4xx_ll_rcc.o(i.LL_RCC_MSI_IsEnabledRangeSelect) for LL_RCC_MSI_IsEnabledRangeSelect
    stm32l4xx_ll_rcc.o(i.LL_RCC_GetRNGClockFreq) refers to stm32l4xx_ll_rcc.o(i.LL_RCC_MSI_GetRange) for LL_RCC_MSI_GetRange
    stm32l4xx_ll_rcc.o(i.LL_RCC_GetRNGClockFreq) refers to stm32l4xx_ll_rcc.o(i.LL_RCC_MSI_GetRangeAfterStandby) for LL_RCC_MSI_GetRangeAfterStandby
    stm32l4xx_ll_rcc.o(i.LL_RCC_GetRNGClockFreq) refers to stm32l4xx_ll_rcc.o(i.LL_RCC_HSI48_IsReady) for LL_RCC_HSI48_IsReady
    stm32l4xx_ll_rcc.o(i.LL_RCC_GetRNGClockFreq) refers to system_stm32l4xx.o(.constdata) for MSIRangeTable
    stm32l4xx_ll_rcc.o(i.LL_RCC_GetSAIClockFreq) refers to stm32l4xx_ll_rcc.o(i.LL_RCC_PLLSAI1_IsReady) for LL_RCC_PLLSAI1_IsReady
    stm32l4xx_ll_rcc.o(i.LL_RCC_GetSAIClockFreq) refers to stm32l4xx_ll_rcc.o(i.RCC_PLLSAI1_GetFreqDomain_SAI) for RCC_PLLSAI1_GetFreqDomain_SAI
    stm32l4xx_ll_rcc.o(i.LL_RCC_GetSAIClockFreq) refers to stm32l4xx_ll_rcc.o(i.LL_RCC_PLL_IsReady) for LL_RCC_PLL_IsReady
    stm32l4xx_ll_rcc.o(i.LL_RCC_GetSAIClockFreq) refers to stm32l4xx_ll_rcc.o(i.RCC_PLL_GetFreqDomain_SAI) for RCC_PLL_GetFreqDomain_SAI
    stm32l4xx_ll_rcc.o(i.LL_RCC_GetSDMMCClockFreq) refers to stm32l4xx_ll_rcc.o(i.LL_RCC_PLLSAI1_IsReady) for LL_RCC_PLLSAI1_IsReady
    stm32l4xx_ll_rcc.o(i.LL_RCC_GetSDMMCClockFreq) refers to stm32l4xx_ll_rcc.o(i.RCC_PLLSAI1_GetFreqDomain_48M) for RCC_PLLSAI1_GetFreqDomain_48M
    stm32l4xx_ll_rcc.o(i.LL_RCC_GetSDMMCClockFreq) refers to stm32l4xx_ll_rcc.o(i.LL_RCC_PLL_IsReady) for LL_RCC_PLL_IsReady
    stm32l4xx_ll_rcc.o(i.LL_RCC_GetSDMMCClockFreq) refers to stm32l4xx_ll_rcc.o(i.RCC_PLL_GetFreqDomain_48M) for RCC_PLL_GetFreqDomain_48M
    stm32l4xx_ll_rcc.o(i.LL_RCC_GetSDMMCClockFreq) refers to stm32l4xx_ll_rcc.o(i.LL_RCC_MSI_IsReady) for LL_RCC_MSI_IsReady
    stm32l4xx_ll_rcc.o(i.LL_RCC_GetSDMMCClockFreq) refers to stm32l4xx_ll_rcc.o(i.LL_RCC_MSI_IsEnabledRangeSelect) for LL_RCC_MSI_IsEnabledRangeSelect
    stm32l4xx_ll_rcc.o(i.LL_RCC_GetSDMMCClockFreq) refers to stm32l4xx_ll_rcc.o(i.LL_RCC_MSI_GetRange) for LL_RCC_MSI_GetRange
    stm32l4xx_ll_rcc.o(i.LL_RCC_GetSDMMCClockFreq) refers to stm32l4xx_ll_rcc.o(i.LL_RCC_MSI_GetRangeAfterStandby) for LL_RCC_MSI_GetRangeAfterStandby
    stm32l4xx_ll_rcc.o(i.LL_RCC_GetSDMMCClockFreq) refers to stm32l4xx_ll_rcc.o(i.LL_RCC_HSI48_IsReady) for LL_RCC_HSI48_IsReady
    stm32l4xx_ll_rcc.o(i.LL_RCC_GetSDMMCClockFreq) refers to system_stm32l4xx.o(.constdata) for MSIRangeTable
    stm32l4xx_ll_rcc.o(i.LL_RCC_GetSWPMIClockFreq) refers to stm32l4xx_ll_rcc.o(i.LL_RCC_HSI_IsReady) for LL_RCC_HSI_IsReady
    stm32l4xx_ll_rcc.o(i.LL_RCC_GetSWPMIClockFreq) refers to stm32l4xx_ll_rcc.o(i.RCC_GetSystemClockFreq) for RCC_GetSystemClockFreq
    stm32l4xx_ll_rcc.o(i.LL_RCC_GetSWPMIClockFreq) refers to stm32l4xx_ll_rcc.o(i.RCC_GetHCLKClockFreq) for RCC_GetHCLKClockFreq
    stm32l4xx_ll_rcc.o(i.LL_RCC_GetSWPMIClockFreq) refers to stm32l4xx_ll_rcc.o(i.RCC_GetPCLK1ClockFreq) for RCC_GetPCLK1ClockFreq
    stm32l4xx_ll_rcc.o(i.LL_RCC_GetSystemClocksFreq) refers to stm32l4xx_ll_rcc.o(i.RCC_GetSystemClockFreq) for RCC_GetSystemClockFreq
    stm32l4xx_ll_rcc.o(i.LL_RCC_GetSystemClocksFreq) refers to stm32l4xx_ll_rcc.o(i.RCC_GetHCLKClockFreq) for RCC_GetHCLKClockFreq
    stm32l4xx_ll_rcc.o(i.LL_RCC_GetSystemClocksFreq) refers to stm32l4xx_ll_rcc.o(i.RCC_GetPCLK1ClockFreq) for RCC_GetPCLK1ClockFreq
    stm32l4xx_ll_rcc.o(i.LL_RCC_GetSystemClocksFreq) refers to stm32l4xx_ll_rcc.o(i.RCC_GetPCLK2ClockFreq) for RCC_GetPCLK2ClockFreq
    stm32l4xx_ll_rcc.o(i.LL_RCC_GetUSARTClockFreq) refers to stm32l4xx_ll_rcc.o(i.LL_RCC_GetUSARTClockSource) for LL_RCC_GetUSARTClockSource
    stm32l4xx_ll_rcc.o(i.LL_RCC_GetUSARTClockFreq) refers to stm32l4xx_ll_rcc.o(i.RCC_GetSystemClockFreq) for RCC_GetSystemClockFreq
    stm32l4xx_ll_rcc.o(i.LL_RCC_GetUSARTClockFreq) refers to stm32l4xx_ll_rcc.o(i.LL_RCC_HSI_IsReady) for LL_RCC_HSI_IsReady
    stm32l4xx_ll_rcc.o(i.LL_RCC_GetUSARTClockFreq) refers to stm32l4xx_ll_rcc.o(i.LL_RCC_LSE_IsReady) for LL_RCC_LSE_IsReady
    stm32l4xx_ll_rcc.o(i.LL_RCC_GetUSARTClockFreq) refers to stm32l4xx_ll_rcc.o(i.RCC_GetHCLKClockFreq) for RCC_GetHCLKClockFreq
    stm32l4xx_ll_rcc.o(i.LL_RCC_GetUSARTClockFreq) refers to stm32l4xx_ll_rcc.o(i.RCC_GetPCLK2ClockFreq) for RCC_GetPCLK2ClockFreq
    stm32l4xx_ll_rcc.o(i.LL_RCC_GetUSARTClockFreq) refers to stm32l4xx_ll_rcc.o(i.RCC_GetPCLK1ClockFreq) for RCC_GetPCLK1ClockFreq
    stm32l4xx_ll_rcc.o(i.RCC_GetHCLKClockFreq) refers to system_stm32l4xx.o(.constdata) for AHBPrescTable
    stm32l4xx_ll_rcc.o(i.RCC_GetPCLK1ClockFreq) refers to system_stm32l4xx.o(.constdata) for APBPrescTable
    stm32l4xx_ll_rcc.o(i.RCC_GetPCLK2ClockFreq) refers to system_stm32l4xx.o(.constdata) for APBPrescTable
    stm32l4xx_ll_rcc.o(i.RCC_GetSystemClockFreq) refers to stm32l4xx_ll_rcc.o(i.LL_RCC_MSI_IsEnabledRangeSelect) for LL_RCC_MSI_IsEnabledRangeSelect
    stm32l4xx_ll_rcc.o(i.RCC_GetSystemClockFreq) refers to stm32l4xx_ll_rcc.o(i.LL_RCC_MSI_GetRange) for LL_RCC_MSI_GetRange
    stm32l4xx_ll_rcc.o(i.RCC_GetSystemClockFreq) refers to stm32l4xx_ll_rcc.o(i.LL_RCC_MSI_GetRangeAfterStandby) for LL_RCC_MSI_GetRangeAfterStandby
    stm32l4xx_ll_rcc.o(i.RCC_GetSystemClockFreq) refers to stm32l4xx_ll_rcc.o(i.RCC_PLL_GetFreqDomain_SYS) for RCC_PLL_GetFreqDomain_SYS
    stm32l4xx_ll_rcc.o(i.RCC_GetSystemClockFreq) refers to system_stm32l4xx.o(.constdata) for MSIRangeTable
    stm32l4xx_ll_rcc.o(i.RCC_PLLSAI1_GetFreqDomain_48M) refers to stm32l4xx_ll_rcc.o(i.LL_RCC_PLL_GetMainSource) for LL_RCC_PLL_GetMainSource
    stm32l4xx_ll_rcc.o(i.RCC_PLLSAI1_GetFreqDomain_48M) refers to stm32l4xx_ll_rcc.o(i.LL_RCC_MSI_IsEnabledRangeSelect) for LL_RCC_MSI_IsEnabledRangeSelect
    stm32l4xx_ll_rcc.o(i.RCC_PLLSAI1_GetFreqDomain_48M) refers to stm32l4xx_ll_rcc.o(i.LL_RCC_MSI_GetRange) for LL_RCC_MSI_GetRange
    stm32l4xx_ll_rcc.o(i.RCC_PLLSAI1_GetFreqDomain_48M) refers to stm32l4xx_ll_rcc.o(i.LL_RCC_MSI_GetRangeAfterStandby) for LL_RCC_MSI_GetRangeAfterStandby
    stm32l4xx_ll_rcc.o(i.RCC_PLLSAI1_GetFreqDomain_48M) refers to stm32l4xx_ll_rcc.o(i.LL_RCC_PLL_GetDivider) for LL_RCC_PLL_GetDivider
    stm32l4xx_ll_rcc.o(i.RCC_PLLSAI1_GetFreqDomain_48M) refers to stm32l4xx_ll_rcc.o(i.LL_RCC_PLLSAI1_GetN) for LL_RCC_PLLSAI1_GetN
    stm32l4xx_ll_rcc.o(i.RCC_PLLSAI1_GetFreqDomain_48M) refers to system_stm32l4xx.o(.constdata) for MSIRangeTable
    stm32l4xx_ll_rcc.o(i.RCC_PLLSAI1_GetFreqDomain_ADC) refers to stm32l4xx_ll_rcc.o(i.LL_RCC_PLL_GetMainSource) for LL_RCC_PLL_GetMainSource
    stm32l4xx_ll_rcc.o(i.RCC_PLLSAI1_GetFreqDomain_ADC) refers to stm32l4xx_ll_rcc.o(i.LL_RCC_MSI_IsEnabledRangeSelect) for LL_RCC_MSI_IsEnabledRangeSelect
    stm32l4xx_ll_rcc.o(i.RCC_PLLSAI1_GetFreqDomain_ADC) refers to stm32l4xx_ll_rcc.o(i.LL_RCC_MSI_GetRange) for LL_RCC_MSI_GetRange
    stm32l4xx_ll_rcc.o(i.RCC_PLLSAI1_GetFreqDomain_ADC) refers to stm32l4xx_ll_rcc.o(i.LL_RCC_MSI_GetRangeAfterStandby) for LL_RCC_MSI_GetRangeAfterStandby
    stm32l4xx_ll_rcc.o(i.RCC_PLLSAI1_GetFreqDomain_ADC) refers to stm32l4xx_ll_rcc.o(i.LL_RCC_PLL_GetDivider) for LL_RCC_PLL_GetDivider
    stm32l4xx_ll_rcc.o(i.RCC_PLLSAI1_GetFreqDomain_ADC) refers to stm32l4xx_ll_rcc.o(i.LL_RCC_PLLSAI1_GetN) for LL_RCC_PLLSAI1_GetN
    stm32l4xx_ll_rcc.o(i.RCC_PLLSAI1_GetFreqDomain_ADC) refers to system_stm32l4xx.o(.constdata) for MSIRangeTable
    stm32l4xx_ll_rcc.o(i.RCC_PLLSAI1_GetFreqDomain_SAI) refers to stm32l4xx_ll_rcc.o(i.LL_RCC_PLL_GetMainSource) for LL_RCC_PLL_GetMainSource
    stm32l4xx_ll_rcc.o(i.RCC_PLLSAI1_GetFreqDomain_SAI) refers to stm32l4xx_ll_rcc.o(i.LL_RCC_MSI_IsEnabledRangeSelect) for LL_RCC_MSI_IsEnabledRangeSelect
    stm32l4xx_ll_rcc.o(i.RCC_PLLSAI1_GetFreqDomain_SAI) refers to stm32l4xx_ll_rcc.o(i.LL_RCC_MSI_GetRange) for LL_RCC_MSI_GetRange
    stm32l4xx_ll_rcc.o(i.RCC_PLLSAI1_GetFreqDomain_SAI) refers to stm32l4xx_ll_rcc.o(i.LL_RCC_MSI_GetRangeAfterStandby) for LL_RCC_MSI_GetRangeAfterStandby
    stm32l4xx_ll_rcc.o(i.RCC_PLLSAI1_GetFreqDomain_SAI) refers to stm32l4xx_ll_rcc.o(i.LL_RCC_PLL_GetDivider) for LL_RCC_PLL_GetDivider
    stm32l4xx_ll_rcc.o(i.RCC_PLLSAI1_GetFreqDomain_SAI) refers to stm32l4xx_ll_rcc.o(i.LL_RCC_PLLSAI1_GetN) for LL_RCC_PLLSAI1_GetN
    stm32l4xx_ll_rcc.o(i.RCC_PLLSAI1_GetFreqDomain_SAI) refers to system_stm32l4xx.o(.constdata) for MSIRangeTable
    stm32l4xx_ll_rcc.o(i.RCC_PLL_GetFreqDomain_48M) refers to stm32l4xx_ll_rcc.o(i.LL_RCC_PLL_GetMainSource) for LL_RCC_PLL_GetMainSource
    stm32l4xx_ll_rcc.o(i.RCC_PLL_GetFreqDomain_48M) refers to stm32l4xx_ll_rcc.o(i.LL_RCC_MSI_IsEnabledRangeSelect) for LL_RCC_MSI_IsEnabledRangeSelect
    stm32l4xx_ll_rcc.o(i.RCC_PLL_GetFreqDomain_48M) refers to stm32l4xx_ll_rcc.o(i.LL_RCC_MSI_GetRange) for LL_RCC_MSI_GetRange
    stm32l4xx_ll_rcc.o(i.RCC_PLL_GetFreqDomain_48M) refers to stm32l4xx_ll_rcc.o(i.LL_RCC_MSI_GetRangeAfterStandby) for LL_RCC_MSI_GetRangeAfterStandby
    stm32l4xx_ll_rcc.o(i.RCC_PLL_GetFreqDomain_48M) refers to stm32l4xx_ll_rcc.o(i.LL_RCC_PLL_GetDivider) for LL_RCC_PLL_GetDivider
    stm32l4xx_ll_rcc.o(i.RCC_PLL_GetFreqDomain_48M) refers to stm32l4xx_ll_rcc.o(i.LL_RCC_PLL_GetN) for LL_RCC_PLL_GetN
    stm32l4xx_ll_rcc.o(i.RCC_PLL_GetFreqDomain_48M) refers to system_stm32l4xx.o(.constdata) for MSIRangeTable
    stm32l4xx_ll_rcc.o(i.RCC_PLL_GetFreqDomain_SAI) refers to stm32l4xx_ll_rcc.o(i.LL_RCC_PLL_GetMainSource) for LL_RCC_PLL_GetMainSource
    stm32l4xx_ll_rcc.o(i.RCC_PLL_GetFreqDomain_SAI) refers to stm32l4xx_ll_rcc.o(i.LL_RCC_MSI_IsEnabledRangeSelect) for LL_RCC_MSI_IsEnabledRangeSelect
    stm32l4xx_ll_rcc.o(i.RCC_PLL_GetFreqDomain_SAI) refers to stm32l4xx_ll_rcc.o(i.LL_RCC_MSI_GetRange) for LL_RCC_MSI_GetRange
    stm32l4xx_ll_rcc.o(i.RCC_PLL_GetFreqDomain_SAI) refers to stm32l4xx_ll_rcc.o(i.LL_RCC_MSI_GetRangeAfterStandby) for LL_RCC_MSI_GetRangeAfterStandby
    stm32l4xx_ll_rcc.o(i.RCC_PLL_GetFreqDomain_SAI) refers to stm32l4xx_ll_rcc.o(i.LL_RCC_PLL_GetDivider) for LL_RCC_PLL_GetDivider
    stm32l4xx_ll_rcc.o(i.RCC_PLL_GetFreqDomain_SAI) refers to stm32l4xx_ll_rcc.o(i.LL_RCC_PLL_GetN) for LL_RCC_PLL_GetN
    stm32l4xx_ll_rcc.o(i.RCC_PLL_GetFreqDomain_SAI) refers to system_stm32l4xx.o(.constdata) for MSIRangeTable
    stm32l4xx_ll_rcc.o(i.RCC_PLL_GetFreqDomain_SYS) refers to stm32l4xx_ll_rcc.o(i.LL_RCC_PLL_GetMainSource) for LL_RCC_PLL_GetMainSource
    stm32l4xx_ll_rcc.o(i.RCC_PLL_GetFreqDomain_SYS) refers to stm32l4xx_ll_rcc.o(i.LL_RCC_MSI_IsEnabledRangeSelect) for LL_RCC_MSI_IsEnabledRangeSelect
    stm32l4xx_ll_rcc.o(i.RCC_PLL_GetFreqDomain_SYS) refers to stm32l4xx_ll_rcc.o(i.LL_RCC_MSI_GetRange) for LL_RCC_MSI_GetRange
    stm32l4xx_ll_rcc.o(i.RCC_PLL_GetFreqDomain_SYS) refers to stm32l4xx_ll_rcc.o(i.LL_RCC_MSI_GetRangeAfterStandby) for LL_RCC_MSI_GetRangeAfterStandby
    stm32l4xx_ll_rcc.o(i.RCC_PLL_GetFreqDomain_SYS) refers to stm32l4xx_ll_rcc.o(i.LL_RCC_PLL_GetDivider) for LL_RCC_PLL_GetDivider
    stm32l4xx_ll_rcc.o(i.RCC_PLL_GetFreqDomain_SYS) refers to stm32l4xx_ll_rcc.o(i.LL_RCC_PLL_GetN) for LL_RCC_PLL_GetN
    stm32l4xx_ll_rcc.o(i.RCC_PLL_GetFreqDomain_SYS) refers to system_stm32l4xx.o(.constdata) for MSIRangeTable
    stm32l4xx_ll_spi.o(i.LL_SPI_DeInit) refers to stm32l4xx_ll_spi.o(i.LL_APB1_GRP1_ForceReset) for LL_APB1_GRP1_ForceReset
    stm32l4xx_ll_spi.o(i.LL_SPI_DeInit) refers to stm32l4xx_ll_spi.o(i.LL_APB1_GRP1_ReleaseReset) for LL_APB1_GRP1_ReleaseReset
    stm32l4xx_ll_tim.o(i.LL_TIM_DeInit) refers to stm32l4xx_ll_tim.o(i.LL_APB2_GRP1_ForceReset) for LL_APB2_GRP1_ForceReset
    stm32l4xx_ll_tim.o(i.LL_TIM_DeInit) refers to stm32l4xx_ll_tim.o(i.LL_APB2_GRP1_ReleaseReset) for LL_APB2_GRP1_ReleaseReset
    stm32l4xx_ll_tim.o(i.LL_TIM_DeInit) refers to stm32l4xx_ll_tim.o(i.LL_APB1_GRP1_ForceReset) for LL_APB1_GRP1_ForceReset
    stm32l4xx_ll_tim.o(i.LL_TIM_DeInit) refers to stm32l4xx_ll_tim.o(i.LL_APB1_GRP1_ReleaseReset) for LL_APB1_GRP1_ReleaseReset
    stm32l4xx_ll_tim.o(i.LL_TIM_HALLSENSOR_Init) refers to stm32l4xx_ll_tim.o(i.LL_TIM_OC_SetCompareCH2) for LL_TIM_OC_SetCompareCH2
    stm32l4xx_ll_tim.o(i.LL_TIM_IC_Init) refers to stm32l4xx_ll_tim.o(i.IC1Config) for IC1Config
    stm32l4xx_ll_tim.o(i.LL_TIM_IC_Init) refers to stm32l4xx_ll_tim.o(i.IC2Config) for IC2Config
    stm32l4xx_ll_tim.o(i.LL_TIM_IC_Init) refers to stm32l4xx_ll_tim.o(i.IC3Config) for IC3Config
    stm32l4xx_ll_tim.o(i.LL_TIM_IC_Init) refers to stm32l4xx_ll_tim.o(i.IC4Config) for IC4Config
    stm32l4xx_ll_tim.o(i.LL_TIM_OC_Init) refers to stm32l4xx_ll_tim.o(i.OC1Config) for OC1Config
    stm32l4xx_ll_tim.o(i.LL_TIM_OC_Init) refers to stm32l4xx_ll_tim.o(i.OC2Config) for OC2Config
    stm32l4xx_ll_tim.o(i.LL_TIM_OC_Init) refers to stm32l4xx_ll_tim.o(i.OC3Config) for OC3Config
    stm32l4xx_ll_tim.o(i.LL_TIM_OC_Init) refers to stm32l4xx_ll_tim.o(i.OC4Config) for OC4Config
    stm32l4xx_ll_tim.o(i.LL_TIM_OC_Init) refers to stm32l4xx_ll_tim.o(i.OC5Config) for OC5Config
    stm32l4xx_ll_tim.o(i.LL_TIM_OC_Init) refers to stm32l4xx_ll_tim.o(i.OC6Config) for OC6Config
    stm32l4xx_ll_tim.o(i.OC2Config) refers to stm32l4xx_ll_tim.o(i.LL_TIM_OC_SetCompareCH2) for LL_TIM_OC_SetCompareCH2
    stm32l4xx_ll_usart.o(i.LL_USART_ClockInit) refers to stm32l4xx_ll_usart.o(i.LL_USART_IsEnabled) for LL_USART_IsEnabled
    stm32l4xx_ll_usart.o(i.LL_USART_DeInit) refers to stm32l4xx_ll_usart.o(i.LL_APB1_GRP1_ForceReset) for LL_APB1_GRP1_ForceReset
    stm32l4xx_ll_usart.o(i.LL_USART_DeInit) refers to stm32l4xx_ll_usart.o(i.LL_APB1_GRP1_ReleaseReset) for LL_APB1_GRP1_ReleaseReset
    stm32l4xx_ll_usart.o(i.LL_USART_Init) refers to stm32l4xx_ll_usart.o(i.LL_USART_IsEnabled) for LL_USART_IsEnabled
    stm32l4xx_ll_usart.o(i.LL_USART_Init) refers to stm32l4xx_ll_rcc.o(i.LL_RCC_GetUSARTClockFreq) for LL_RCC_GetUSARTClockFreq
    stm32l4xx_ll_utils.o(i.LL_PLL_ConfigSystemClock_HSE) refers to stm32l4xx_ll_utils.o(i.UTILS_PLL_IsBusy) for UTILS_PLL_IsBusy
    stm32l4xx_ll_utils.o(i.LL_PLL_ConfigSystemClock_HSE) refers to stm32l4xx_ll_utils.o(i.UTILS_GetPLLOutputFrequency) for UTILS_GetPLLOutputFrequency
    stm32l4xx_ll_utils.o(i.LL_PLL_ConfigSystemClock_HSE) refers to stm32l4xx_ll_utils.o(i.LL_RCC_HSE_IsReady) for LL_RCC_HSE_IsReady
    stm32l4xx_ll_utils.o(i.LL_PLL_ConfigSystemClock_HSE) refers to stm32l4xx_ll_utils.o(i.LL_RCC_PLL_ConfigDomain_SYS) for LL_RCC_PLL_ConfigDomain_SYS
    stm32l4xx_ll_utils.o(i.LL_PLL_ConfigSystemClock_HSE) refers to stm32l4xx_ll_utils.o(i.UTILS_EnablePLLAndSwitchSystem) for UTILS_EnablePLLAndSwitchSystem
    stm32l4xx_ll_utils.o(i.LL_PLL_ConfigSystemClock_HSI) refers to stm32l4xx_ll_utils.o(i.UTILS_PLL_IsBusy) for UTILS_PLL_IsBusy
    stm32l4xx_ll_utils.o(i.LL_PLL_ConfigSystemClock_HSI) refers to stm32l4xx_ll_utils.o(i.UTILS_GetPLLOutputFrequency) for UTILS_GetPLLOutputFrequency
    stm32l4xx_ll_utils.o(i.LL_PLL_ConfigSystemClock_HSI) refers to stm32l4xx_ll_utils.o(i.LL_RCC_HSI_IsReady) for LL_RCC_HSI_IsReady
    stm32l4xx_ll_utils.o(i.LL_PLL_ConfigSystemClock_HSI) refers to stm32l4xx_ll_utils.o(i.LL_RCC_PLL_ConfigDomain_SYS) for LL_RCC_PLL_ConfigDomain_SYS
    stm32l4xx_ll_utils.o(i.LL_PLL_ConfigSystemClock_HSI) refers to stm32l4xx_ll_utils.o(i.UTILS_EnablePLLAndSwitchSystem) for UTILS_EnablePLLAndSwitchSystem
    stm32l4xx_ll_utils.o(i.LL_PLL_ConfigSystemClock_MSI) refers to stm32l4xx_ll_utils.o(i.UTILS_PLL_IsBusy) for UTILS_PLL_IsBusy
    stm32l4xx_ll_utils.o(i.LL_PLL_ConfigSystemClock_MSI) refers to stm32l4xx_ll_utils.o(i.LL_RCC_MSI_IsEnabledRangeSelect) for LL_RCC_MSI_IsEnabledRangeSelect
    stm32l4xx_ll_utils.o(i.LL_PLL_ConfigSystemClock_MSI) refers to stm32l4xx_ll_utils.o(i.UTILS_GetPLLOutputFrequency) for UTILS_GetPLLOutputFrequency
    stm32l4xx_ll_utils.o(i.LL_PLL_ConfigSystemClock_MSI) refers to stm32l4xx_ll_utils.o(i.LL_RCC_MSI_IsReady) for LL_RCC_MSI_IsReady
    stm32l4xx_ll_utils.o(i.LL_PLL_ConfigSystemClock_MSI) refers to stm32l4xx_ll_utils.o(i.LL_RCC_PLL_ConfigDomain_SYS) for LL_RCC_PLL_ConfigDomain_SYS
    stm32l4xx_ll_utils.o(i.LL_PLL_ConfigSystemClock_MSI) refers to stm32l4xx_ll_utils.o(i.UTILS_EnablePLLAndSwitchSystem) for UTILS_EnablePLLAndSwitchSystem
    stm32l4xx_ll_utils.o(i.LL_PLL_ConfigSystemClock_MSI) refers to system_stm32l4xx.o(.constdata) for MSIRangeTable
    stm32l4xx_ll_utils.o(i.LL_SetSystemCoreClock) refers to system_stm32l4xx.o(.data) for SystemCoreClock
    stm32l4xx_ll_utils.o(i.UTILS_EnablePLLAndSwitchSystem) refers to stm32l4xx_ll_utils.o(i.UTILS_SetFlashLatency) for UTILS_SetFlashLatency
    stm32l4xx_ll_utils.o(i.UTILS_EnablePLLAndSwitchSystem) refers to stm32l4xx_ll_utils.o(i.LL_RCC_PLL_IsReady) for LL_RCC_PLL_IsReady
    stm32l4xx_ll_utils.o(i.UTILS_EnablePLLAndSwitchSystem) refers to stm32l4xx_ll_utils.o(i.LL_SetSystemCoreClock) for LL_SetSystemCoreClock
    stm32l4xx_ll_utils.o(i.UTILS_EnablePLLAndSwitchSystem) refers to system_stm32l4xx.o(.constdata) for AHBPrescTable
    stm32l4xx_ll_utils.o(i.UTILS_EnablePLLAndSwitchSystem) refers to system_stm32l4xx.o(.data) for SystemCoreClock
    stm32l4xx_ll_utils.o(i.UTILS_PLL_IsBusy) refers to stm32l4xx_ll_utils.o(i.LL_RCC_PLL_IsReady) for LL_RCC_PLL_IsReady
    entry.o(.ARM.Collect$$$$00000000) refers (Special) to entry10a.o(.ARM.Collect$$$$0000000D) for __rt_final_cpp
    entry.o(.ARM.Collect$$$$00000000) refers (Special) to entry11a.o(.ARM.Collect$$$$0000000F) for __rt_final_exit
    entry.o(.ARM.Collect$$$$00000000) refers (Special) to entry7b.o(.ARM.Collect$$$$00000008) for _main_clock
    entry.o(.ARM.Collect$$$$00000000) refers (Special) to entry8b.o(.ARM.Collect$$$$0000000A) for _main_cpp_init
    entry.o(.ARM.Collect$$$$00000000) refers (Special) to entry9a.o(.ARM.Collect$$$$0000000B) for _main_init
    entry.o(.ARM.Collect$$$$00000000) refers (Special) to entry5.o(.ARM.Collect$$$$00000004) for _main_scatterload
    entry.o(.ARM.Collect$$$$00000000) refers (Special) to entry2.o(.ARM.Collect$$$$00000001) for _main_stk
    cpp_init.o(.emb_text) refers (Special) to entry8a.o(.ARM.Collect$$$$00000009) for _main_cpp_init$empty
    cpp_init.o(.init_array) refers (Special) to entry8a.o(.ARM.Collect$$$$00000009) for _main_cpp_init$empty
    cpp_init.o(.init_array) refers to cpp_init.o(.text) for __cpp_initialize__aeabi_
    cpp_init.o(.dummy_text) refers (Special) to entry8a.o(.ARM.Collect$$$$00000009) for _main_cpp_init$empty
    cpp_init.o(.text) refers (Special) to entry8a.o(.ARM.Collect$$$$00000009) for _main_cpp_init$empty
    aeabi_atexit.o(.text) refers (Special) to cxa_finalize.o(.text) for __cxa_finalize
    aeabi_atexit.o(.text) refers to malloc.o(i.malloc) for malloc
    aeabi_atexit.o(.text) refers to cpp_dtor.o(.text) for __rt_ddtor_pointer_addr
    entry2.o(.ARM.Collect$$$$00000001) refers to entry2.o(.ARM.Collect$$$$00002712) for __lit__00000000
    entry2.o(.ARM.Collect$$$$00002712) refers to startup_stm32l431xx.o(STACK) for __initial_sp
    entry2.o(__vectab_stack_and_reset_area) refers to startup_stm32l431xx.o(STACK) for __initial_sp
    entry2.o(__vectab_stack_and_reset_area) refers to entry.o(.ARM.Collect$$$$00000000) for __main
    entry5.o(.ARM.Collect$$$$00000004) refers to init.o(.text) for __scatterload
    entry8a.o(.ARM.Collect$$$$00000009) refers (Weak) to cpp_init.o(.text) for __cpp_initialize__aeabi_
    entry9a.o(.ARM.Collect$$$$0000000B) refers to main.o(i.main) for main
    entry9b.o(.ARM.Collect$$$$0000000C) refers to main.o(i.main) for main
    entry10b.o(.ARM.Collect$$$$0000000E) refers (Weak) to cxa_finalize.o(.text) for __cxa_finalize
    malloc.o(i.free) refers to mvars.o(.data) for __microlib_freelist
    malloc.o(i.malloc) refers to mvars.o(.data) for __microlib_freelist_initialised
    malloc.o(i.malloc) refers to mvars.o(.data) for __microlib_freelist
    malloc.o(i.malloc) refers to startup_stm32l431xx.o(HEAP) for __heap_base
    mallocr.o(i.__free$realloc) refers to mvars.o(.data) for __microlib_freelist
    mallocr.o(i.__malloc$realloc) refers to mallocr.o(i.internal_alloc) for internal_alloc
    mallocr.o(i.__malloc$realloc) refers to mvars.o(.data) for __microlib_freelist_initialised
    mallocr.o(i.__malloc$realloc) refers to startup_stm32l431xx.o(HEAP) for __heap_base
    mallocr.o(i.__malloc$realloc) refers to mvars.o(.data) for __microlib_freelist
    mallocr.o(i.internal_alloc) refers to memcpya.o(.text) for __aeabi_memcpy
    mallocr.o(i.internal_alloc) refers to mvars.o(.data) for __microlib_freelist
    mallocr.o(i.realloc) refers to mallocr.o(i.__free$realloc) for __free$realloc
    mallocr.o(i.realloc) refers to mallocr.o(i.internal_alloc) for internal_alloc
    mallocr.o(i.realloc) refers to mallocr.o(i.__malloc$realloc) for __malloc$realloc
    mallocr.o(i.realloc) refers to mvars.o(.data) for __microlib_freelist
    malloca.o(i.__aligned_malloc) refers to mvars.o(.data) for __microlib_freelist_initialised
    malloca.o(i.__aligned_malloc) refers to mvars.o(.data) for __microlib_freelist
    malloca.o(i.__aligned_malloc) refers to startup_stm32l431xx.o(HEAP) for __heap_base
    malloca.o(i.__free$memalign) refers to mvars.o(.data) for __microlib_freelist
    malloca.o(i.__malloc$memalign) refers to malloca.o(i.__aligned_malloc) for __aligned_malloc
    mallocra.o(i.__aligned_malloc$realloc) refers to mallocra.o(i.internal_alloc) for internal_alloc
    mallocra.o(i.__aligned_malloc$realloc) refers to mvars.o(.data) for __microlib_freelist_initialised
    mallocra.o(i.__aligned_malloc$realloc) refers to startup_stm32l431xx.o(HEAP) for __heap_base
    mallocra.o(i.__aligned_malloc$realloc) refers to mvars.o(.data) for __microlib_freelist
    mallocra.o(i.__free$realloc$memalign) refers to mvars.o(.data) for __microlib_freelist
    mallocra.o(i.__malloc$realloc$memalign) refers to mallocra.o(i.__aligned_malloc$realloc) for __aligned_malloc$realloc
    mallocra.o(i.__realloc$memalign) refers to mallocra.o(i.__free$realloc$memalign) for __free$realloc$memalign
    mallocra.o(i.__realloc$memalign) refers to mallocra.o(i.internal_alloc) for internal_alloc
    mallocra.o(i.__realloc$memalign) refers to mallocra.o(i.__malloc$realloc$memalign) for __malloc$realloc$memalign
    mallocra.o(i.__realloc$memalign) refers to mvars.o(.data) for __microlib_freelist
    mallocra.o(i.internal_alloc) refers to memcpya.o(.text) for __aeabi_memcpy
    mallocra.o(i.internal_alloc) refers to mvars.o(.data) for __microlib_freelist
    cpp_dtor.o(.text) refers to cpp_dtor.o(.data) for .data
    cxa_finalize.o(.text) refers (Special) to cpp_final.o(.text) for __rt_lib_shutdown_cpp_2
    cxa_finalize.o(.text) refers to cpp_dtor.o(.text) for __rt_ddtor_pointer_addr
    cxa_finalize.o(.text) refers to malloc.o(i.free) for free
    init.o(.text) refers to entry5.o(.ARM.Collect$$$$00000004) for __main_after_scatterload
    cpp_final.o(.text) refers (Special) to entry10b.o(.ARM.Collect$$$$0000000E) for __rt_final_cpp$nonempty
    model.o(t._ZN6TModel11access_protIhU8__packedhEEvRT_RKT0_) refers to queue.o(i.xQueueGenericReceive) for xQueueGenericReceive
    model.o(t._ZN6TModel11access_protIhU8__packedhEEvRT_RKT0_) refers to queue.o(i.xQueueGenericSend) for xQueueGenericSend
    model.o(.ARM.exidx) refers to model.o(t._ZN6TModel11access_protIhU8__packedhEEvRT_RKT0_) for t._ZN6TModel11access_protIhU8__packedhEEvRT_RKT0_
    model.o(t._ZN6TModel11access_protIU8__packedhhEEvRT_RKT0_) refers to queue.o(i.xQueueGenericReceive) for xQueueGenericReceive
    model.o(t._ZN6TModel11access_protIU8__packedhhEEvRT_RKT0_) refers to queue.o(i.xQueueGenericSend) for xQueueGenericSend
    model.o(.ARM.exidx) refers to model.o(t._ZN6TModel11access_protIU8__packedhhEEvRT_RKT0_) for t._ZN6TModel11access_protIU8__packedhhEEvRT_RKT0_
    model.o(t._ZN6TModel11access_protIfU8__packedfEEvRT_RKT0_) refers to queue.o(i.xQueueGenericReceive) for xQueueGenericReceive
    model.o(t._ZN6TModel11access_protIfU8__packedfEEvRT_RKT0_) refers to queue.o(i.xQueueGenericSend) for xQueueGenericSend
    model.o(.ARM.exidx) refers to model.o(t._ZN6TModel11access_protIfU8__packedfEEvRT_RKT0_) for t._ZN6TModel11access_protIfU8__packedfEEvRT_RKT0_
    model.o(t._ZN6TModel11access_protIU8__packedffEEvRT_RKT0_) refers to queue.o(i.xQueueGenericReceive) for xQueueGenericReceive
    model.o(t._ZN6TModel11access_protIU8__packedffEEvRT_RKT0_) refers to queue.o(i.xQueueGenericSend) for xQueueGenericSend
    model.o(.ARM.exidx) refers to model.o(t._ZN6TModel11access_protIU8__packedffEEvRT_RKT0_) for t._ZN6TModel11access_protIU8__packedffEEvRT_RKT0_
    model.o(t._ZN6TModel11access_protIN9TSettings6TStateES2_EEvRT_RKT0_) refers to queue.o(i.xQueueGenericReceive) for xQueueGenericReceive
    model.o(t._ZN6TModel11access_protIN9TSettings6TStateES2_EEvRT_RKT0_) refers to queue.o(i.xQueueGenericSend) for xQueueGenericSend
    model.o(.ARM.exidx) refers to model.o(t._ZN6TModel11access_protIN9TSettings6TStateES2_EEvRT_RKT0_) for t._ZN6TModel11access_protIN9TSettings6TStateES2_EEvRT_RKT0_
    model.o(t._ZN6TModel11access_protIsU8__packedsEEvRT_RKT0_) refers to queue.o(i.xQueueGenericReceive) for xQueueGenericReceive
    model.o(t._ZN6TModel11access_protIsU8__packedsEEvRT_RKT0_) refers to queue.o(i.xQueueGenericSend) for xQueueGenericSend
    model.o(.ARM.exidx) refers to model.o(t._ZN6TModel11access_protIsU8__packedsEEvRT_RKT0_) for t._ZN6TModel11access_protIsU8__packedsEEvRT_RKT0_
    model.o(t._ZN6TModel11access_protIU8__packedssEEvRT_RKT0_) refers to queue.o(i.xQueueGenericReceive) for xQueueGenericReceive
    model.o(t._ZN6TModel11access_protIU8__packedssEEvRT_RKT0_) refers to queue.o(i.xQueueGenericSend) for xQueueGenericSend
    model.o(.ARM.exidx) refers to model.o(t._ZN6TModel11access_protIU8__packedssEEvRT_RKT0_) for t._ZN6TModel11access_protIU8__packedssEEvRT_RKT0_
    model.o(t._ZN6TModel11access_protIN9TSettings10TFlashDataES2_EEvRT_RKT0_) refers to queue.o(i.xQueueGenericReceive) for xQueueGenericReceive
    model.o(t._ZN6TModel11access_protIN9TSettings10TFlashDataES2_EEvRT_RKT0_) refers to memcpya.o(.text) for __aeabi_memcpy
    model.o(t._ZN6TModel11access_protIN9TSettings10TFlashDataES2_EEvRT_RKT0_) refers to queue.o(i.xQueueGenericSend) for xQueueGenericSend
    model.o(.ARM.exidx) refers to model.o(t._ZN6TModel11access_protIN9TSettings10TFlashDataES2_EEvRT_RKT0_) for t._ZN6TModel11access_protIN9TSettings10TFlashDataES2_EEvRT_RKT0_
    model.o(t._ZN6TModel11access_protIaU8__packedaEEvRT_RKT0_) refers to queue.o(i.xQueueGenericReceive) for xQueueGenericReceive
    model.o(t._ZN6TModel11access_protIaU8__packedaEEvRT_RKT0_) refers to queue.o(i.xQueueGenericSend) for xQueueGenericSend
    model.o(.ARM.exidx) refers to model.o(t._ZN6TModel11access_protIaU8__packedaEEvRT_RKT0_) for t._ZN6TModel11access_protIaU8__packedaEEvRT_RKT0_
    model.o(t._ZN6TModel11access_protIU8__packedaaEEvRT_RKT0_) refers to queue.o(i.xQueueGenericReceive) for xQueueGenericReceive
    model.o(t._ZN6TModel11access_protIU8__packedaaEEvRT_RKT0_) refers to queue.o(i.xQueueGenericSend) for xQueueGenericSend
    model.o(.ARM.exidx) refers to model.o(t._ZN6TModel11access_protIU8__packedaaEEvRT_RKT0_) for t._ZN6TModel11access_protIU8__packedaaEEvRT_RKT0_
    model.o(t._ZN6TModel11access_protIU8__packedjjEEvRT_RKT0_) refers to queue.o(i.xQueueGenericReceive) for xQueueGenericReceive
    model.o(t._ZN6TModel11access_protIU8__packedjjEEvRT_RKT0_) refers to queue.o(i.xQueueGenericSend) for xQueueGenericSend
    model.o(.ARM.exidx) refers to model.o(t._ZN6TModel11access_protIU8__packedjjEEvRT_RKT0_) for t._ZN6TModel11access_protIU8__packedjjEEvRT_RKT0_
    model.o(t._ZN6TModel11access_protIN9TSettings12TCommunicateES2_EEvRT_RKT0_) refers to queue.o(i.xQueueGenericReceive) for xQueueGenericReceive
    model.o(t._ZN6TModel11access_protIN9TSettings12TCommunicateES2_EEvRT_RKT0_) refers to queue.o(i.xQueueGenericSend) for xQueueGenericSend
    model.o(.ARM.exidx) refers to model.o(t._ZN6TModel11access_protIN9TSettings12TCommunicateES2_EEvRT_RKT0_) for t._ZN6TModel11access_protIN9TSettings12TCommunicateES2_EEvRT_RKT0_
    model.o(t._ZN6TModel11access_protI5TBitsS1_EEvRT_RKT0_) refers to queue.o(i.xQueueGenericReceive) for xQueueGenericReceive
    model.o(t._ZN6TModel11access_protI5TBitsS1_EEvRT_RKT0_) refers to queue.o(i.xQueueGenericSend) for xQueueGenericSend
    model.o(.ARM.exidx) refers to model.o(t._ZN6TModel11access_protI5TBitsS1_EEvRT_RKT0_) for t._ZN6TModel11access_protI5TBitsS1_EEvRT_RKT0_
    model.o(t._ZN6TModel11access_protI10MySettingsS1_EEvRT_RKT0_) refers to queue.o(i.xQueueGenericReceive) for xQueueGenericReceive
    model.o(t._ZN6TModel11access_protI10MySettingsS1_EEvRT_RKT0_) refers to memcpya.o(.text) for __aeabi_memcpy
    model.o(t._ZN6TModel11access_protI10MySettingsS1_EEvRT_RKT0_) refers to queue.o(i.xQueueGenericSend) for xQueueGenericSend
    model.o(.ARM.exidx) refers to model.o(t._ZN6TModel11access_protI10MySettingsS1_EEvRT_RKT0_) for t._ZN6TModel11access_protI10MySettingsS1_EEvRT_RKT0_
    model.o(t._ZN6TModel11access_protI3TIfS1_EEvRT_RKT0_) refers to queue.o(i.xQueueGenericReceive) for xQueueGenericReceive
    model.o(t._ZN6TModel11access_protI3TIfS1_EEvRT_RKT0_) refers to queue.o(i.xQueueGenericSend) for xQueueGenericSend
    model.o(.ARM.exidx) refers to model.o(t._ZN6TModel11access_protI3TIfS1_EEvRT_RKT0_) for t._ZN6TModel11access_protI3TIfS1_EEvRT_RKT0_
    model.o(t._ZN6TModel11access_protIN9TSettings11TAccCalDataES2_EEvRT_RKT0_) refers to queue.o(i.xQueueGenericReceive) for xQueueGenericReceive
    model.o(t._ZN6TModel11access_protIN9TSettings11TAccCalDataES2_EEvRT_RKT0_) refers to memcpya.o(.text) for __aeabi_memcpy
    model.o(t._ZN6TModel11access_protIN9TSettings11TAccCalDataES2_EEvRT_RKT0_) refers to queue.o(i.xQueueGenericSend) for xQueueGenericSend
    model.o(.ARM.exidx) refers to model.o(t._ZN6TModel11access_protIN9TSettings11TAccCalDataES2_EEvRT_RKT0_) for t._ZN6TModel11access_protIN9TSettings11TAccCalDataES2_EEvRT_RKT0_
    settings.o(.ARM.exidx) refers to settings.o(t._ZNK9TSettings9chk_paramIsEEbRKNS_6TRangeET_) for t._ZNK9TSettings9chk_paramIsEEbRKNS_6TRangeET_


==============================================================================

Removing Unused input sections from the image.

    Removing relay.o(.rev16_text), (4 bytes).
    Removing relay.o(.revsh_text), (4 bytes).
    Removing relay.o(.rrx_text), (6 bytes).
    Removing relay.o(i._ZN30_INTERNAL_9_Relay_cpp_6c3d9d8e22LL_GPIO_ResetOutputPinEP12GPIO_TypeDefj), (4 bytes).
    Removing relay.o(i._ZN5relay6TRelayC1EP12GPIO_TypeDefjjPc), (120 bytes).
    Removing relay.o(i._ZN5relay6TRelayD1Ev), (2 bytes).
    Removing relay.o(i._ZNK5relay6TRelay2onEv), (10 bytes).
    Removing relay.o(i._ZNK5relay6TRelay3offEv), (14 bytes).
    Removing relay.o(i._ZNK5relay6TRelay6toggleEv), (14 bytes).
    Removing relay.o(.ARM.exidx), (8 bytes).
    Removing relay.o(.ARM.exidx), (8 bytes).
    Removing relay.o(.ARM.exidx), (8 bytes).
    Removing relay.o(.ARM.exidx), (8 bytes).
    Removing relay.o(.ARM.exidx), (8 bytes).
    Removing relay.o(.ARM.exidx), (8 bytes).
    Removing rs-485_phy.o(i._ZN12T_RS_485_phy15get_de_polarityEv), (6 bytes).
    Removing rs-485_phy.o(.ARM.exidx), (8 bytes).
    Removing rs-485_phy.o(.ARM.exidx), (8 bytes).
    Removing rs-485_phy.o(.ARM.exidx), (8 bytes).
    Removing rs-485_phy.o(.ARM.exidx), (8 bytes).
    Removing button.o(.rev16_text), (4 bytes).
    Removing button.o(.revsh_text), (4 bytes).
    Removing button.o(.rrx_text), (6 bytes).
    Removing button.o(i._ZN7TButton4initEv), (92 bytes).
    Removing button.o(i._ZNK7TButton4readEv), (26 bytes).
    Removing button.o(.ARM.exidx), (8 bytes).
    Removing button.o(.ARM.exidx), (8 bytes).
    Removing button.o(.ARM.exidx), (8 bytes).
    Removing button.o(.ARM.exidx), (8 bytes).
    Removing button.o(.ARM.exidx), (8 bytes).
    Removing led.o(.rev16_text), (4 bytes).
    Removing led.o(.revsh_text), (4 bytes).
    Removing led.o(.rrx_text), (6 bytes).
    Removing led.o(i._ZN23_INTERNAL_7_Led_cpp_Led17LL_GPIO_TogglePinEP12GPIO_TypeDefj), (8 bytes).
    Removing led.o(i._ZN4TLed11free_toggleEv), (14 bytes).
    Removing led.o(i._ZN4TLed6toggleEv), (42 bytes).
    Removing led.o(.ARM.exidx), (8 bytes).
    Removing led.o(.ARM.exidx), (8 bytes).
    Removing led.o(.ARM.exidx), (8 bytes).
    Removing led.o(.ARM.exidx), (8 bytes).
    Removing led.o(.ARM.exidx), (8 bytes).
    Removing led.o(.ARM.exidx), (8 bytes).
    Removing led.o(.ARM.exidx), (8 bytes).
    Removing led.o(.ARM.exidx), (8 bytes).
    Removing led.o(.ARM.exidx), (8 bytes).
    Removing led.o(.ARM.exidx), (8 bytes).
    Removing ad8402.o(.rev16_text), (4 bytes).
    Removing ad8402.o(.revsh_text), (4 bytes).
    Removing ad8402.o(.rrx_text), (6 bytes).
    Removing ad8402.o(i._ZN8T_AD840210get_resistENS_8TChannelE), (64 bytes).
    Removing ad8402.o(i._ZN8T_AD84026rs_clrEv), (14 bytes).
    Removing ad8402.o(.ARM.exidx), (8 bytes).
    Removing ad8402.o(.ARM.exidx), (8 bytes).
    Removing ad8402.o(.ARM.exidx), (8 bytes).
    Removing ad8402.o(.ARM.exidx), (8 bytes).
    Removing ad8402.o(.ARM.exidx), (8 bytes).
    Removing ad8402.o(.ARM.exidx), (8 bytes).
    Removing ad8402.o(.ARM.exidx), (8 bytes).
    Removing ad8402.o(.ARM.exidx), (8 bytes).
    Removing ad8402.o(.ARM.exidx), (8 bytes).
    Removing ad8402.o(.ARM.exidx), (8 bytes).
    Removing ad8402.o(.ARM.exidx), (8 bytes).
    Removing ad8402.o(.ARM.exidx), (8 bytes).
    Removing ad8402.o(.ARM.exidx), (8 bytes).
    Removing ad8402.o(.ARM.exidx), (8 bytes).
    Removing ad8402.o(.ARM.exidx), (8 bytes).
    Removing ad8402.o(.ARM.exidx), (8 bytes).
    Removing ad8402.o(.ARM.exidx), (8 bytes).
    Removing ad8402.o(.ARM.exidx), (8 bytes).
    Removing ad8402.o(.ARM.exidx), (8 bytes).
    Removing ad8402.o(.ARM.exidx), (8 bytes).
    Removing main.o(.rev16_text), (4 bytes).
    Removing main.o(.revsh_text), (4 bytes).
    Removing main.o(.rrx_text), (6 bytes).
    Removing main.o(i._Z11err_handlerv), (4 bytes).
    Removing main.o(i._Z29vApplicationStackOverflowHookPPvPa), (16 bytes).
    Removing main.o(i._ZN29_INTERNAL_8_main_cpp_6396510218check_create_timerEPv), (2 bytes).
    Removing main.o(.ARM.exidx), (8 bytes).
    Removing main.o(.ARM.exidx), (8 bytes).
    Removing main.o(.ARM.exidx), (8 bytes).
    Removing main.o(.ARM.exidx), (8 bytes).
    Removing main.o(.ARM.exidx), (8 bytes).
    Removing main.o(.ARM.exidx), (8 bytes).
    Removing main.o(.ARM.exidx), (8 bytes).
    Removing main.o(.ARM.exidx), (8 bytes).
    Removing main.o(.ARM.exidx), (8 bytes).
    Removing main.o(.ARM.exidx), (8 bytes).
    Removing main.o(.ARM.exidx), (8 bytes).
    Removing main.o(.ARM.exidx), (8 bytes).
    Removing main.o(.ARM.exidx), (8 bytes).
    Removing main.o(.ARM.exidx), (8 bytes).
    Removing main.o(.ARM.exidx), (8 bytes).
    Removing main.o(.ARM.exidx), (8 bytes).
    Removing main.o(.ARM.exidx), (8 bytes).
    Removing main.o(.ARM.exidx), (8 bytes).
    Removing main.o(.ARM.exidx), (8 bytes).
    Removing main.o(.ARM.exidx), (8 bytes).
    Removing main.o(.ARM.exidx), (8 bytes).
    Removing hard_config.o(.rev16_text), (4 bytes).
    Removing hard_config.o(.revsh_text), (4 bytes).
    Removing hard_config.o(.rrx_text), (6 bytes).
    Removing hard_config.o(.ARM.exidx), (8 bytes).
    Removing hard_config.o(.ARM.exidx), (8 bytes).
    Removing hard_config.o(.ARM.exidx), (8 bytes).
    Removing hard_config.o(.ARM.exidx), (8 bytes).
    Removing model.o(.rev16_text), (4 bytes).
    Removing model.o(.revsh_text), (4 bytes).
    Removing model.o(.rrx_text), (6 bytes).
    Removing model.o(i._ZN6TModel10get_accessEv), (52 bytes).
    Removing model.o(i._ZN6TModel11get_accel_zEv), (22 bytes).
    Removing model.o(i._ZN6TModel11get_code_swEv), (22 bytes).
    Removing model.o(i._ZN6TModel11get_connectEv), (26 bytes).
    Removing model.o(i._ZN6TModel11get_hc_memsEv), (26 bytes).
    Removing model.o(i._ZN6TModel11get_if_setsER3TIf), (20 bytes).
    Removing model.o(i._ZN6TModel11get_mb_addrEv), (22 bytes).
    Removing model.o(i._ZN6TModel11set_accel_zEf), (22 bytes).
    Removing model.o(i._ZN6TModel11set_code_swEh), (34 bytes).
    Removing model.o(i._ZN6TModel11set_connectEN9TSettings8TConnectE), (42 bytes).
    Removing model.o(i._ZN6TModel11set_hc_memsEN9TSettings10TMainStateE), (42 bytes).
    Removing model.o(i._ZN6TModel11set_if_setsERK3TIf), (26 bytes).
    Removing model.o(i._ZN6TModel11set_mb_addrEs), (88 bytes).
    Removing model.o(i._ZN6TModel12get_btn_modeEv), (52 bytes).
    Removing model.o(i._ZN6TModel12get_d_o_setsEv), (26 bytes).
    Removing model.o(i._ZN6TModel12get_dev_typeEv), (58 bytes).
    Removing model.o(i._ZN6TModel12get_hc_stateEv), (26 bytes).
    Removing model.o(i._ZN6TModel12get_led_modeEv), (52 bytes).
    Removing model.o(i._ZN6TModel12get_my_angleEv), (22 bytes).
    Removing model.o(i._ZN6TModel12get_raw_rollEv), (22 bytes).
    Removing model.o(i._ZN6TModel12set_btn_modeEN9TSettings6TPressE), (50 bytes).
    Removing model.o(i._ZN6TModel12set_d_o_setsE8TContact), (60 bytes).
    Removing model.o(i._ZN6TModel12set_hc_stateEN9TSettings3THCE), (42 bytes).
    Removing model.o(i._ZN6TModel12set_led_modeEN9TSettings8TLedModeE), (50 bytes).
    Removing model.o(i._ZN6TModel12set_my_angleEs), (18 bytes).
    Removing model.o(i._ZN6TModel12set_raw_rollEa), (18 bytes).
    Removing model.o(i._ZN6TModel13get_acc_calibEv), (34 bytes).
    Removing model.o(i._ZN6TModel13get_base_memsEv), (24 bytes).
    Removing model.o(i._ZN6TModel13get_dev_stateEv), (22 bytes).
    Removing model.o(i._ZN6TModel13get_interconnEv), (26 bytes).
    Removing model.o(i._ZN6TModel13get_raw_pitchEv), (22 bytes).
    Removing model.o(i._ZN6TModel13get_sens_addrEv), (22 bytes).
    Removing model.o(i._ZN6TModel13set_acc_calibEN9TSettings6TCalibE), (42 bytes).
    Removing model.o(i._ZN6TModel13set_base_memsEN9TSettings10TMainStateE), (42 bytes).
    Removing model.o(i._ZN6TModel13set_calib_cmdEt), (186 bytes).
    Removing model.o(i._ZN6TModel13set_interconnE10TInterconn), (60 bytes).
    Removing model.o(i._ZN6TModel13set_psw_adminEf), (48 bytes).
    Removing model.o(i._ZN6TModel13set_psw_superEf), (48 bytes).
    Removing model.o(i._ZN6TModel13set_raw_pitchEa), (18 bytes).
    Removing model.o(i._ZN6TModel13set_sens_addrERKh), (26 bytes).
    Removing model.o(i._ZN6TModel14get_flash_dataERN9TSettings10TFlashDataE), (20 bytes).
    Removing model.o(i._ZN6TModel14get_hc_code_swEv), (22 bytes).
    Removing model.o(i._ZN6TModel14get_hc_pos_errEv), (26 bytes).
    Removing model.o(i._ZN6TModel14get_open_angleEv), (22 bytes).
    Removing model.o(i._ZN6TModel14get_sens_angleEv), (22 bytes).
    Removing model.o(i._ZN6TModel14set_flash_dataEv), (36 bytes).
    Removing model.o(i._ZN6TModel14set_hc_code_swEh), (34 bytes).
    Removing model.o(i._ZN6TModel14set_hc_pos_errEN9TSettings7TPosErrE), (42 bytes).
    Removing model.o(i._ZN6TModel14set_open_angleEf), (22 bytes).
    Removing model.o(i._ZN6TModel14set_sens_angleEs), (18 bytes).
    Removing model.o(i._ZN6TModel15get_axis_rotateEv), (22 bytes).
    Removing model.o(i._ZN6TModel15get_hc_prog_nbrEv), (52 bytes).
    Removing model.o(i._ZN6TModel15get_pd_pressureEv), (22 bytes).
    Removing model.o(i._ZN6TModel15get_u_baud_rateEv), (22 bytes).
    Removing model.o(i._ZN6TModel15set_axis_rotateEh), (56 bytes).
    Removing model.o(i._ZN6TModel15set_hc_prog_nbrEt), (50 bytes).
    Removing model.o(i._ZN6TModel15set_pd_pressureEf), (48 bytes).
    Removing model.o(i._ZN6TModel15set_u_baud_rateEh), (56 bytes).
    Removing model.o(i._ZN6TModel16get_base_pos_errEv), (26 bytes).
    Removing model.o(i._ZN6TModel16get_hc_acc_calibEv), (26 bytes).
    Removing model.o(i._ZN6TModel16set_base_pos_errEN9TSettings7TPosErrE), (42 bytes).
    Removing model.o(i._ZN6TModel16set_hc_acc_calibEN9TSettings6TCalibE), (42 bytes).
    Removing model.o(i._ZN6TModel17get_transact_signERh), (20 bytes).
    Removing model.o(i._ZN6TModel17set_transact_signERKh), (20 bytes).
    Removing model.o(i._ZN6TModel18get_boot_mode_flagEv), (52 bytes).
    Removing model.o(i._ZN6TModel18get_start_meas_cmdEv), (22 bytes).
    Removing model.o(i._ZN6TModel18set_boot_mode_flagEN9TSettings13TBootModeFlagE), (56 bytes).
    Removing model.o(i._ZN6TModel18set_start_meas_cmdEN9TSettings5TMeasE), (38 bytes).
    Removing model.o(i._ZN6TModel19get_calib_parameterEv), (22 bytes).
    Removing model.o(i._ZN6TModel19get_flash_prog_signEv), (52 bytes).
    Removing model.o(i._ZN6TModel19get_roll_bias_angleEv), (22 bytes).
    Removing model.o(i._ZN6TModel19set_calib_parameterEf), (22 bytes).
    Removing model.o(i._ZN6TModel19set_flash_prog_signERKN9TSettings12TIsFlashProgE), (56 bytes).
    Removing model.o(i._ZN6TModel19set_roll_bias_angleEa), (56 bytes).
    Removing model.o(i._ZN6TModel20get_accel_calib_dataERN9TSettings11TAccCalDataE), (20 bytes).
    Removing model.o(i._ZN6TModel20get_accel_calib_signEv), (52 bytes).
    Removing model.o(i._ZN6TModel20get_communicate_byteEv), (24 bytes).
    Removing model.o(i._ZN6TModel20get_pitch_bias_angleEv), (22 bytes).
    Removing model.o(i._ZN6TModel20get_sens_axis_rotateEv), (22 bytes).
    Removing model.o(i._ZN6TModel20set_accel_calib_dataERKN9TSettings11TAccCalDataE), (26 bytes).
    Removing model.o(i._ZN6TModel20set_accel_calib_signERKN9TSettings11TIsAccCalibE), (56 bytes).
    Removing model.o(i._ZN6TModel20set_communicate_byteEN9TSettings12TCommunicateE), (18 bytes).
    Removing model.o(i._ZN6TModel20set_pitch_bias_angleEa), (56 bytes).
    Removing model.o(i._ZN6TModel20set_sens_axis_rotateEh), (56 bytes).
    Removing model.o(i._ZN6TModel21get_sample_valid_signEv), (22 bytes).
    Removing model.o(i._ZN6TModel21set_sample_valid_signEN9TSettings10TValidSignE), (38 bytes).
    Removing model.o(i._ZN6TModel22clr_calib_position_ctrENS_11TMemsOrientE), (76 bytes).
    Removing model.o(i._ZN6TModel22get_authorize_item_ptrEv), (8 bytes).
    Removing model.o(i._ZN6TModel22get_calib_position_ctrEv), (48 bytes).
    Removing model.o(i._ZN6TModel22set_calib_position_ctrENS_11TMemsOrientE), (88 bytes).
    Removing model.o(i._ZN6TModel24get_sens_buf_axis_rotateEv), (22 bytes).
    Removing model.o(i._ZN6TModel24get_sens_roll_bias_angleEv), (22 bytes).
    Removing model.o(i._ZN6TModel24set_sens_buf_axis_rotateEh), (36 bytes).
    Removing model.o(i._ZN6TModel24set_sens_roll_bias_angleEa), (18 bytes).
    Removing model.o(i._ZN6TModel25get_sens_pitch_bias_angleEv), (22 bytes).
    Removing model.o(i._ZN6TModel25set_sens_pitch_bias_angleEa), (18 bytes).
    Removing model.o(i._ZN6TModel26get_sens_sample_valid_signEv), (52 bytes).
    Removing model.o(i._ZN6TModel26get_u_baud_rate_bit_to_secEv), (48 bytes).
    Removing model.o(i._ZN6TModel26set_sens_sample_valid_signEN9TSettings10TValidSignE), (50 bytes).
    Removing model.o(i._ZN6TModel7get_thrEv), (22 bytes).
    Removing model.o(i._ZN6TModel7set_thrEh), (56 bytes).
    Removing model.o(i._ZN6TModel8get_biasEv), (22 bytes).
    Removing model.o(i._ZN6TModel8get_hystEv), (22 bytes).
    Removing model.o(i._ZN6TModel8get_setsER10MySettings), (20 bytes).
    Removing model.o(i._ZN6TModel8set_biasEa), (56 bytes).
    Removing model.o(i._ZN6TModel8set_hystEh), (56 bytes).
    Removing model.o(i._ZN6TModel8set_setsERK10MySettings), (26 bytes).
    Removing model.o(i._ZN6TModel9get_u_parEv), (22 bytes).
    Removing model.o(i._ZN6TModel9set_u_parEh), (56 bytes).
    Removing model.o(.ARM.exidx), (8 bytes).
    Removing model.o(.ARM.exidx), (8 bytes).
    Removing model.o(.ARM.exidx), (8 bytes).
    Removing model.o(.ARM.exidx), (8 bytes).
    Removing model.o(.ARM.exidx), (8 bytes).
    Removing model.o(.ARM.exidx), (8 bytes).
    Removing model.o(.ARM.exidx), (8 bytes).
    Removing model.o(.ARM.exidx), (8 bytes).
    Removing model.o(.ARM.exidx), (8 bytes).
    Removing model.o(.ARM.exidx), (8 bytes).
    Removing model.o(.ARM.exidx), (8 bytes).
    Removing model.o(.ARM.exidx), (8 bytes).
    Removing model.o(.ARM.exidx), (8 bytes).
    Removing model.o(.ARM.exidx), (8 bytes).
    Removing model.o(.ARM.exidx), (8 bytes).
    Removing model.o(.ARM.exidx), (8 bytes).
    Removing model.o(.ARM.exidx), (8 bytes).
    Removing model.o(.ARM.exidx), (8 bytes).
    Removing model.o(.ARM.exidx), (8 bytes).
    Removing model.o(.ARM.exidx), (8 bytes).
    Removing model.o(.ARM.exidx), (8 bytes).
    Removing model.o(.ARM.exidx), (8 bytes).
    Removing model.o(.ARM.exidx), (8 bytes).
    Removing model.o(.ARM.exidx), (8 bytes).
    Removing model.o(.ARM.exidx), (8 bytes).
    Removing model.o(.ARM.exidx), (8 bytes).
    Removing model.o(.ARM.exidx), (8 bytes).
    Removing model.o(.ARM.exidx), (8 bytes).
    Removing model.o(.ARM.exidx), (8 bytes).
    Removing model.o(.ARM.exidx), (8 bytes).
    Removing model.o(.ARM.exidx), (8 bytes).
    Removing model.o(.ARM.exidx), (8 bytes).
    Removing model.o(.ARM.exidx), (8 bytes).
    Removing model.o(.ARM.exidx), (8 bytes).
    Removing model.o(.ARM.exidx), (8 bytes).
    Removing model.o(.ARM.exidx), (8 bytes).
    Removing model.o(.ARM.exidx), (8 bytes).
    Removing model.o(.ARM.exidx), (8 bytes).
    Removing model.o(.ARM.exidx), (8 bytes).
    Removing model.o(.ARM.exidx), (8 bytes).
    Removing model.o(.ARM.exidx), (8 bytes).
    Removing model.o(.ARM.exidx), (8 bytes).
    Removing model.o(.ARM.exidx), (8 bytes).
    Removing model.o(.ARM.exidx), (8 bytes).
    Removing model.o(.ARM.exidx), (8 bytes).
    Removing model.o(.ARM.exidx), (8 bytes).
    Removing model.o(.ARM.exidx), (8 bytes).
    Removing model.o(.ARM.exidx), (8 bytes).
    Removing model.o(.ARM.exidx), (8 bytes).
    Removing model.o(.ARM.exidx), (8 bytes).
    Removing model.o(.ARM.exidx), (8 bytes).
    Removing model.o(.ARM.exidx), (8 bytes).
    Removing model.o(.ARM.exidx), (8 bytes).
    Removing model.o(.ARM.exidx), (8 bytes).
    Removing model.o(.ARM.exidx), (8 bytes).
    Removing model.o(.ARM.exidx), (8 bytes).
    Removing model.o(.ARM.exidx), (8 bytes).
    Removing model.o(.ARM.exidx), (8 bytes).
    Removing model.o(.ARM.exidx), (8 bytes).
    Removing model.o(.ARM.exidx), (8 bytes).
    Removing model.o(.ARM.exidx), (8 bytes).
    Removing model.o(.ARM.exidx), (8 bytes).
    Removing model.o(.ARM.exidx), (8 bytes).
    Removing model.o(.ARM.exidx), (8 bytes).
    Removing model.o(.ARM.exidx), (8 bytes).
    Removing model.o(.ARM.exidx), (8 bytes).
    Removing model.o(.ARM.exidx), (8 bytes).
    Removing model.o(.ARM.exidx), (8 bytes).
    Removing model.o(.ARM.exidx), (8 bytes).
    Removing model.o(.ARM.exidx), (8 bytes).
    Removing model.o(.ARM.exidx), (8 bytes).
    Removing model.o(.ARM.exidx), (8 bytes).
    Removing model.o(.ARM.exidx), (8 bytes).
    Removing model.o(.ARM.exidx), (8 bytes).
    Removing model.o(.ARM.exidx), (8 bytes).
    Removing model.o(.ARM.exidx), (8 bytes).
    Removing model.o(.ARM.exidx), (8 bytes).
    Removing model.o(.ARM.exidx), (8 bytes).
    Removing model.o(.ARM.exidx), (8 bytes).
    Removing model.o(.ARM.exidx), (8 bytes).
    Removing model.o(.ARM.exidx), (8 bytes).
    Removing model.o(.ARM.exidx), (8 bytes).
    Removing model.o(.ARM.exidx), (8 bytes).
    Removing model.o(.ARM.exidx), (8 bytes).
    Removing model.o(.ARM.exidx), (8 bytes).
    Removing model.o(.ARM.exidx), (8 bytes).
    Removing model.o(.ARM.exidx), (8 bytes).
    Removing model.o(.ARM.exidx), (8 bytes).
    Removing model.o(.ARM.exidx), (8 bytes).
    Removing model.o(.ARM.exidx), (8 bytes).
    Removing model.o(.ARM.exidx), (8 bytes).
    Removing model.o(.ARM.exidx), (8 bytes).
    Removing model.o(.ARM.exidx), (8 bytes).
    Removing model.o(.ARM.exidx), (8 bytes).
    Removing model.o(.ARM.exidx), (8 bytes).
    Removing model.o(.ARM.exidx), (8 bytes).
    Removing model.o(.ARM.exidx), (8 bytes).
    Removing model.o(.ARM.exidx), (8 bytes).
    Removing model.o(.ARM.exidx), (8 bytes).
    Removing model.o(.ARM.exidx), (8 bytes).
    Removing model.o(.ARM.exidx), (8 bytes).
    Removing model.o(.ARM.exidx), (8 bytes).
    Removing model.o(.ARM.exidx), (8 bytes).
    Removing model.o(.ARM.exidx), (8 bytes).
    Removing model.o(.ARM.exidx), (8 bytes).
    Removing model.o(.ARM.exidx), (8 bytes).
    Removing model.o(.ARM.exidx), (8 bytes).
    Removing model.o(.ARM.exidx), (8 bytes).
    Removing model.o(.ARM.exidx), (8 bytes).
    Removing model.o(.ARM.exidx), (8 bytes).
    Removing model.o(.ARM.exidx), (8 bytes).
    Removing model.o(.ARM.exidx), (8 bytes).
    Removing model.o(.ARM.exidx), (8 bytes).
    Removing model.o(.ARM.exidx), (8 bytes).
    Removing model.o(.ARM.exidx), (8 bytes).
    Removing model.o(.ARM.exidx), (8 bytes).
    Removing model.o(.ARM.exidx), (8 bytes).
    Removing model.o(.ARM.exidx), (8 bytes).
    Removing model.o(.ARM.exidx), (8 bytes).
    Removing model.o(.ARM.exidx), (8 bytes).
    Removing flash_driver.o(.rev16_text), (4 bytes).
    Removing flash_driver.o(.revsh_text), (4 bytes).
    Removing flash_driver.o(.rrx_text), (6 bytes).
    Removing flash_driver.o(i._ZN6TFlash10write_dataEPKh), (72 bytes).
    Removing flash_driver.o(i._ZNK6TFlash6rdp_obEv), (68 bytes).
    Removing flash_driver.o(.ARM.exidx), (8 bytes).
    Removing flash_driver.o(.ARM.exidx), (8 bytes).
    Removing flash_driver.o(.ARM.exidx), (8 bytes).
    Removing flash_driver.o(.ARM.exidx), (8 bytes).
    Removing flash_driver.o(.ARM.exidx), (8 bytes).
    Removing flash_driver.o(.ARM.exidx), (8 bytes).
    Removing flash_driver.o(.ARM.exidx), (8 bytes).
    Removing flash_driver.o(.ARM.exidx), (8 bytes).
    Removing flash_driver.o(.ARM.exidx), (8 bytes).
    Removing flash_driver.o(.ARM.exidx), (8 bytes).
    Removing flash_driver.o(.ARM.exidx), (8 bytes).
    Removing flash_driver.o(.ARM.exidx), (8 bytes).
    Removing flash_driver.o(.ARM.exidx), (8 bytes).
    Removing flash_driver.o(.ARM.exidx), (8 bytes).
    Removing flash_driver.o(.ARM.exidx), (8 bytes).
    Removing flash_driver.o(.ARM.exidx), (8 bytes).
    Removing flash_driver.o(.ARM.exidx), (8 bytes).
    Removing i2c_driver.o(.rev16_text), (4 bytes).
    Removing i2c_driver.o(.revsh_text), (4 bytes).
    Removing i2c_driver.o(.rrx_text), (6 bytes).
    Removing i2c_driver.o(i._ZN36_INTERNAL_14_I2C_driver_cpp_0101a1c113LL_I2C_EnableEP11I2C_TypeDef), (10 bytes).
    Removing i2c_driver.o(i._ZN36_INTERNAL_14_I2C_driver_cpp_0101a1c114LL_I2C_DisableEP11I2C_TypeDef), (10 bytes).
    Removing i2c_driver.o(i._ZN36_INTERNAL_14_I2C_driver_cpp_0101a1c121LL_I2C_ClearFlag_ARLOEP11I2C_TypeDef), (10 bytes).
    Removing i2c_driver.o(i._ZN36_INTERNAL_14_I2C_driver_cpp_0101a1c130LL_I2C_SetMasterAddressingModeEP11I2C_TypeDefj), (12 bytes).
    Removing i2c_driver.o(i._ZN3I2C4TI2C10read_burstEPhhhh), (140 bytes).
    Removing i2c_driver.o(i._ZN3I2C4TI2C11i2c_hw_initEv), (200 bytes).
    Removing i2c_driver.o(i._ZN3I2C4TI2C11write_burstEPhhhh), (132 bytes).
    Removing i2c_driver.o(i._ZN3I2C4TI2C14pin_clk_configEv), (116 bytes).
    Removing i2c_driver.o(i._ZN3I2C4TI2C14start_transferEh), (76 bytes).
    Removing i2c_driver.o(i._ZN3I2C4TI2C16read_single_byteEPhhh), (144 bytes).
    Removing i2c_driver.o(i._ZN3I2C4TI2C17i2c_set_interruptEv), (180 bytes).
    Removing i2c_driver.o(i._ZN3I2C4TI2C17write_single_byteEPhhh), (132 bytes).
    Removing i2c_driver.o(i._ZN3I2C4TI2CC1ERK7TI2C_HWNS_5TModeENS_5TRateENS_11TAddressingE), (54 bytes).
    Removing i2c_driver.o(i._ZN3I2C4TI2CD1Ev), (2 bytes).
    Removing i2c_driver.o(i._ZNK3I2C4TI2C12get_i2c_signEv), (16 bytes).
    Removing i2c_driver.o(.ARM.exidx), (8 bytes).
    Removing i2c_driver.o(.ARM.exidx), (8 bytes).
    Removing i2c_driver.o(.ARM.exidx), (8 bytes).
    Removing i2c_driver.o(.ARM.exidx), (8 bytes).
    Removing i2c_driver.o(.ARM.exidx), (8 bytes).
    Removing i2c_driver.o(.ARM.exidx), (8 bytes).
    Removing i2c_driver.o(.ARM.exidx), (8 bytes).
    Removing i2c_driver.o(.ARM.exidx), (8 bytes).
    Removing i2c_driver.o(.ARM.exidx), (8 bytes).
    Removing i2c_driver.o(.ARM.exidx), (8 bytes).
    Removing i2c_driver.o(.ARM.exidx), (8 bytes).
    Removing i2c_driver.o(.ARM.exidx), (8 bytes).
    Removing i2c_driver.o(.ARM.exidx), (8 bytes).
    Removing i2c_driver.o(.ARM.exidx), (8 bytes).
    Removing i2c_driver.o(.ARM.exidx), (8 bytes).
    Removing i2c_driver.o(.ARM.exidx), (8 bytes).
    Removing i2c_driver.o(.ARM.exidx), (8 bytes).
    Removing i2c_driver.o(.ARM.exidx), (8 bytes).
    Removing i2c_driver.o(.ARM.exidx), (8 bytes).
    Removing i2c_driver.o(.ARM.exidx), (8 bytes).
    Removing i2c_driver.o(.ARM.exidx), (8 bytes).
    Removing i2c_driver.o(.ARM.exidx), (8 bytes).
    Removing i2c_driver.o(.ARM.exidx), (8 bytes).
    Removing i2c_driver.o(.ARM.exidx), (8 bytes).
    Removing i2c_driver.o(.ARM.exidx), (8 bytes).
    Removing i2c_driver.o(.ARM.exidx), (8 bytes).
    Removing i2c_driver.o(.ARM.exidx), (8 bytes).
    Removing i2c_driver.o(.ARM.exidx), (8 bytes).
    Removing i2c_driver.o(.ARM.exidx), (8 bytes).
    Removing i2c_driver.o(.ARM.exidx), (8 bytes).
    Removing i2c_driver.o(.ARM.exidx), (8 bytes).
    Removing old_flash_lib.o(.rev16_text), (4 bytes).
    Removing old_flash_lib.o(.revsh_text), (4 bytes).
    Removing old_flash_lib.o(.rrx_text), (6 bytes).
    Removing old_flash_lib.o(i._Z15FLASH_OB_Unlockv), (36 bytes).
    Removing old_flash_lib.o(.ARM.exidx), (8 bytes).
    Removing old_flash_lib.o(.ARM.exidx), (8 bytes).
    Removing old_flash_lib.o(.ARM.exidx), (8 bytes).
    Removing old_flash_lib.o(.ARM.exidx), (8 bytes).
    Removing spi_dirver.o(.rev16_text), (4 bytes).
    Removing spi_dirver.o(.revsh_text), (4 bytes).
    Removing spi_dirver.o(.rrx_text), (6 bytes).
    Removing spi_dirver.o(i._ZN36_INTERNAL_14_SPI_dirver_cpp_4f82068420LL_DMA_ClearFlag_TC2EP11DMA_TypeDef), (6 bytes).
    Removing spi_dirver.o(i._ZN36_INTERNAL_14_SPI_dirver_cpp_4f82068420LL_DMA_ClearFlag_TC3EP11DMA_TypeDef), (8 bytes).
    Removing spi_dirver.o(i._ZN36_INTERNAL_14_SPI_dirver_cpp_4f82068420LL_DMA_ClearFlag_TC4EP11DMA_TypeDef), (8 bytes).
    Removing spi_dirver.o(i._ZN36_INTERNAL_14_SPI_dirver_cpp_4f82068420LL_DMA_ClearFlag_TC5EP11DMA_TypeDef), (8 bytes).
    Removing spi_dirver.o(i._ZN36_INTERNAL_14_SPI_dirver_cpp_4f82068423LL_SPI_IsActiveFlag_BSYEP11SPI_TypeDef), (10 bytes).
    Removing spi_dirver.o(i._ZN36_INTERNAL_14_SPI_dirver_cpp_4f82068424LL_AHB1_GRP1_EnableClockEj), (28 bytes).
    Removing spi_dirver.o(i._ZN4TSPI10check_busyEv), (42 bytes).
    Removing spi_dirver.o(i._ZN4TSPI10read_frameEv), (2 bytes).
    Removing spi_dirver.o(i._ZN4TSPI10write_byteEh), (62 bytes).
    Removing spi_dirver.o(i._ZN4TSPI11write_frameEPKhh), (2 bytes).
    Removing spi_dirver.o(i._ZN4TSPI14pin_clk_configEv), (142 bytes).
    Removing spi_dirver.o(i._ZN4TSPI7hw_initEv), (284 bytes).
    Removing spi_dirver.o(i._ZN4TSPI8dma_initEv), (24 bytes).
    Removing spi_dirver.o(i._ZN4TSPIC1ERK7TSpi_HWNS_5TRateE), (26 bytes).
    Removing spi_dirver.o(i._ZN4TSPID1Ev), (2 bytes).
    Removing spi_dirver.o(.ARM.exidx), (8 bytes).
    Removing spi_dirver.o(.ARM.exidx), (8 bytes).
    Removing spi_dirver.o(.ARM.exidx), (8 bytes).
    Removing spi_dirver.o(.ARM.exidx), (8 bytes).
    Removing spi_dirver.o(.ARM.exidx), (8 bytes).
    Removing spi_dirver.o(.ARM.exidx), (8 bytes).
    Removing spi_dirver.o(.ARM.exidx), (8 bytes).
    Removing spi_dirver.o(.ARM.exidx), (8 bytes).
    Removing spi_dirver.o(.ARM.exidx), (8 bytes).
    Removing spi_dirver.o(.ARM.exidx), (8 bytes).
    Removing spi_dirver.o(.ARM.exidx), (8 bytes).
    Removing spi_dirver.o(.ARM.exidx), (8 bytes).
    Removing spi_dirver.o(.ARM.exidx), (8 bytes).
    Removing spi_dirver.o(.ARM.exidx), (8 bytes).
    Removing spi_dirver.o(.ARM.exidx), (8 bytes).
    Removing spi_dirver.o(.constdata), (184 bytes).
    Removing usart_driver_.o(.rev16_text), (4 bytes).
    Removing usart_driver_.o(.revsh_text), (4 bytes).
    Removing usart_driver_.o(.rrx_text), (6 bytes).
    Removing usart_driver_.o(i._ZN39_INTERNAL_17_usart_driver__cpp_b612a17522LL_USART_ClearFlag_RTOEP13USART_TypeDef), (8 bytes).
    Removing usart_driver_.o(i._ZN6TUsart10read_burstEPhh), (56 bytes).
    Removing usart_driver_.o(i._ZN6TUsart13en_eob_detectEh), (88 bytes).
    Removing usart_driver_.o(i._ZN6TUsart13set_interruptEv), (184 bytes).
    Removing usart_driver_.o(i._ZN6TUsart14dis_eob_detectEv), (70 bytes).
    Removing usart_driver_.o(i._ZN6TUsart6dis_ifEv), (18 bytes).
    Removing usart_driver_.o(i._ZN6TUsart8chk_setsERKNS_5TSetsE), (32 bytes).
    Removing usart_driver_.o(i._ZN6TUsart8set_setsERKNS_5TSetsE), (42 bytes).
    Removing usart_driver_.o(i._ZNK6TUsart8get_setsEv), (8 bytes).
    Removing usart_driver_.o(.ARM.exidx), (8 bytes).
    Removing usart_driver_.o(.ARM.exidx), (8 bytes).
    Removing usart_driver_.o(.ARM.exidx), (8 bytes).
    Removing usart_driver_.o(.ARM.exidx), (8 bytes).
    Removing usart_driver_.o(.ARM.exidx), (8 bytes).
    Removing usart_driver_.o(.ARM.exidx), (8 bytes).
    Removing usart_driver_.o(.ARM.exidx), (8 bytes).
    Removing usart_driver_.o(.ARM.exidx), (8 bytes).
    Removing usart_driver_.o(.ARM.exidx), (8 bytes).
    Removing usart_driver_.o(.ARM.exidx), (8 bytes).
    Removing usart_driver_.o(.ARM.exidx), (8 bytes).
    Removing usart_driver_.o(.ARM.exidx), (8 bytes).
    Removing usart_driver_.o(.ARM.exidx), (8 bytes).
    Removing usart_driver_.o(.ARM.exidx), (8 bytes).
    Removing usart_driver_.o(.ARM.exidx), (8 bytes).
    Removing usart_driver_.o(.ARM.exidx), (8 bytes).
    Removing usart_driver_.o(.ARM.exidx), (8 bytes).
    Removing usart_driver_.o(.ARM.exidx), (8 bytes).
    Removing usart_driver_.o(.ARM.exidx), (8 bytes).
    Removing usart_driver_.o(.ARM.exidx), (8 bytes).
    Removing usart_driver_.o(.ARM.exidx), (8 bytes).
    Removing usart_driver_.o(.ARM.exidx), (8 bytes).
    Removing usart_driver_.o(.ARM.exidx), (8 bytes).
    Removing heap_2.o(i.vPortInitialiseBlocks), (2 bytes).
    Removing port.o(i.vPortEndScheduler), (48 bytes).
    Removing queue.o(i.pcQueueGetName), (44 bytes).
    Removing queue.o(i.ucQueueGetQueueType), (8 bytes).
    Removing queue.o(i.uxQueueGetQueueNumber), (6 bytes).
    Removing queue.o(i.uxQueueMessagesWaiting), (42 bytes).
    Removing queue.o(i.uxQueueMessagesWaitingFromISR), (30 bytes).
    Removing queue.o(i.uxQueueSpacesAvailable), (48 bytes).
    Removing queue.o(i.vQueueDelete), (44 bytes).
    Removing queue.o(i.vQueueSetQueueNumber), (4 bytes).
    Removing queue.o(i.vQueueUnregisterQueue), (48 bytes).
    Removing queue.o(i.xQueueCreateCountingSemaphore), (92 bytes).
    Removing queue.o(i.xQueueGetMutexHolder), (26 bytes).
    Removing queue.o(i.xQueueGiveMutexRecursive), (72 bytes).
    Removing queue.o(i.xQueueIsQueueEmptyFromISR), (38 bytes).
    Removing queue.o(i.xQueueIsQueueFullFromISR), (42 bytes).
    Removing queue.o(i.xQueuePeekFromISR), (176 bytes).
    Removing queue.o(i.xQueueReceiveFromISR), (208 bytes).
    Removing queue.o(i.xQueueTakeMutexRecursive), (82 bytes).
    Removing tasks.o(i.eTaskGetState), (132 bytes).
    Removing tasks.o(i.pcTaskGetName), (48 bytes).
    Removing tasks.o(i.prvListTasksWithinSingleList), (106 bytes).
    Removing tasks.o(i.prvTaskCheckFreeStackSpace), (22 bytes).
    Removing tasks.o(i.prvTaskIsTaskSuspended), (88 bytes).
    Removing tasks.o(i.ulTaskNotifyTake), (116 bytes).
    Removing tasks.o(i.uxTaskGetNumberOfTasks), (12 bytes).
    Removing tasks.o(i.uxTaskGetSystemState), (176 bytes).
    Removing tasks.o(i.uxTaskGetTaskNumber), (14 bytes).
    Removing tasks.o(i.uxTaskPriorityGet), (36 bytes).
    Removing tasks.o(i.uxTaskPriorityGetFromISR), (68 bytes).
    Removing tasks.o(i.uxTaskResetEventItemValue), (28 bytes).
    Removing tasks.o(i.vTaskDelayUntil), (212 bytes).
    Removing tasks.o(i.vTaskDelete), (244 bytes).
    Removing tasks.o(i.vTaskEndScheduler), (36 bytes).
    Removing tasks.o(i.vTaskGetInfo), (120 bytes).
    Removing tasks.o(i.vTaskNotifyGiveFromISR), (240 bytes).
    Removing tasks.o(i.vTaskPlaceOnUnorderedEventList), (108 bytes).
    Removing tasks.o(i.vTaskPrioritySet), (276 bytes).
    Removing tasks.o(i.vTaskResume), (144 bytes).
    Removing tasks.o(i.vTaskSetTaskNumber), (8 bytes).
    Removing tasks.o(i.vTaskSuspend), (228 bytes).
    Removing tasks.o(i.xTaskGenericNotify), (260 bytes).
    Removing tasks.o(i.xTaskGenericNotifyFromISR), (330 bytes).
    Removing tasks.o(i.xTaskGetCurrentTaskHandle), (12 bytes).
    Removing tasks.o(i.xTaskGetTickCountFromISR), (20 bytes).
    Removing tasks.o(i.xTaskNotifyStateClear), (52 bytes).
    Removing tasks.o(i.xTaskNotifyWait), (160 bytes).
    Removing tasks.o(i.xTaskRemoveFromUnorderedEventList), (176 bytes).
    Removing tasks.o(i.xTaskResumeFromISR), (180 bytes).
    Removing timers.o(i.pcTimerGetName), (32 bytes).
    Removing timers.o(i.prvInitialiseNewTimer), (78 bytes).
    Removing timers.o(i.pvTimerGetTimerID), (44 bytes).
    Removing timers.o(i.vTimerSetTimerID), (44 bytes).
    Removing timers.o(i.xTimerCreate), (54 bytes).
    Removing timers.o(i.xTimerGetExpiryTime), (34 bytes).
    Removing timers.o(i.xTimerGetPeriod), (32 bytes).
    Removing timers.o(i.xTimerGetTimerDaemonTaskHandle), (48 bytes).
    Removing timers.o(i.xTimerIsTimerActive), (56 bytes).
    Removing ext_master.o(.rev16_text), (4 bytes).
    Removing ext_master.o(.revsh_text), (4 bytes).
    Removing ext_master.o(.rrx_text), (6 bytes).
    Removing ext_master.o(.ARM.exidx), (8 bytes).
    Removing ext_master.o(.ARM.exidx), (8 bytes).
    Removing ext_master.o(.ARM.exidx), (8 bytes).
    Removing ext_master.o(.ARM.exidx), (8 bytes).
    Removing ext_master.o(.ARM.exidx), (8 bytes).
    Removing ext_master.o(.ARM.exidx), (8 bytes).
    Removing ext_master.o(.ARM.exidx), (8 bytes).
    Removing ext_master.o(.ARM.exidx), (8 bytes).
    Removing ext_master.o(.ARM.exidx), (8 bytes).
    Removing settings.o(.rev16_text), (4 bytes).
    Removing settings.o(.revsh_text), (4 bytes).
    Removing settings.o(.rrx_text), (6 bytes).
    Removing settings.o(i._ZN9TSettings7chk_devER10MySettings), (24 bytes).
    Removing settings.o(i._ZNK9TSettings11chk_mb_addrEs), (20 bytes).
    Removing settings.o(i._ZNK9TSettings15chk_axis_rotateEs), (20 bytes).
    Removing settings.o(i._ZNK9TSettings15chk_u_baud_rateEs), (20 bytes).
    Removing settings.o(i._ZNK9TSettings19chk_roll_bias_angleEs), (20 bytes).
    Removing settings.o(i._ZNK9TSettings20chk_pitch_bias_angleEs), (20 bytes).
    Removing settings.o(i._ZNK9TSettings7chk_thrEs), (18 bytes).
    Removing settings.o(i._ZNK9TSettings8chk_biasEs), (20 bytes).
    Removing settings.o(i._ZNK9TSettings8chk_hystEs), (18 bytes).
    Removing settings.o(i._ZNK9TSettings9chk_u_parEs), (20 bytes).
    Removing settings.o(.ARM.exidx), (8 bytes).
    Removing settings.o(.ARM.exidx), (8 bytes).
    Removing settings.o(.ARM.exidx), (8 bytes).
    Removing settings.o(.ARM.exidx), (8 bytes).
    Removing settings.o(.ARM.exidx), (8 bytes).
    Removing settings.o(.ARM.exidx), (8 bytes).
    Removing settings.o(.ARM.exidx), (8 bytes).
    Removing settings.o(.ARM.exidx), (8 bytes).
    Removing settings.o(.ARM.exidx), (8 bytes).
    Removing settings.o(.ARM.exidx), (8 bytes).
    Removing settings.o(.ARM.exidx), (8 bytes).
    Removing settings.o(.ARM.exidx), (8 bytes).
    Removing settings.o(.ARM.exidx), (8 bytes).
    Removing settings.o(.ARM.exidx), (8 bytes).
    Removing settings.o(.ARM.exidx), (8 bytes).
    Removing lev_gauge_to_pc.o(.rev16_text), (4 bytes).
    Removing lev_gauge_to_pc.o(.revsh_text), (4 bytes).
    Removing lev_gauge_to_pc.o(.rrx_text), (6 bytes).
    Removing lev_gauge_to_pc.o(.ARM.exidx), (8 bytes).
    Removing lev_gauge_to_pc.o(.ARM.exidx), (8 bytes).
    Removing lev_gauge_to_pc.o(.ARM.exidx), (8 bytes).
    Removing lev_gauge_to_pc.o(.ARM.exidx), (8 bytes).
    Removing lev_gauge_to_pc.o(.ARM.exidx), (8 bytes).
    Removing lev_gauge_to_pc.o(.ARM.exidx), (8 bytes).
    Removing lev_gauge_to_pc.o(.ARM.exidx), (8 bytes).
    Removing lev_gauge_to_pc.o(.ARM.exidx), (8 bytes).
    Removing lev_gauge_to_pc.o(.ARM.exidx), (8 bytes).
    Removing lev_gauge_to_pc.o(.ARM.exidx), (8 bytes).
    Removing lev_gauge_to_pc.o(.ARM.exidx), (8 bytes).
    Removing lev_gauge_to_pc.o(.ARM.exidx), (8 bytes).
    Removing lev_gauge_to_pc.o(.ARM.exidx), (8 bytes).
    Removing lev_gauge_to_pc.o(.ARM.exidx), (8 bytes).
    Removing lev_gauge_to_pc.o(.ARM.exidx), (8 bytes).
    Removing lev_gauge_to_pc.o(.ARM.exidx), (8 bytes).
    Removing lev_gauge_to_pc.o(.ARM.exidx), (8 bytes).
    Removing lev_gauge_to_pc.o(.ARM.exidx), (8 bytes).
    Removing lev_gauge_to_pc.o(.ARM.exidx), (8 bytes).
    Removing lev_gauge_to_pc.o(.ARM.exidx), (8 bytes).
    Removing lev_gauge_to_pc.o(.ARM.exidx), (8 bytes).
    Removing lev_gauge_to_pc.o(.ARM.exidx), (8 bytes).
    Removing lev_gauge_to_pc.o(.ARM.exidx), (8 bytes).
    Removing lev_gauge_to_pc.o(.ARM.exidx), (8 bytes).
    Removing lev_gauge_to_pc.o(.ARM.exidx), (8 bytes).
    Removing lev_gauge_to_pc.o(.ARM.exidx), (8 bytes).
    Removing lev_gauge_to_pc.o(.ARM.exidx), (8 bytes).
    Removing lev_gauge_to_pc.o(.ARM.exidx), (8 bytes).
    Removing lev_gauge_to_pc.o(.ARM.exidx), (8 bytes).
    Removing lev_gauge_to_pc.o(.ARM.exidx), (8 bytes).
    Removing lev_gauge_to_pc.o(.ARM.exidx), (8 bytes).
    Removing lev_gauge_to_pc.o(.ARM.exidx), (8 bytes).
    Removing lev_gauge_to_pc.o(.ARM.exidx), (8 bytes).
    Removing lev_gauge_to_pc.o(.ARM.exidx), (8 bytes).
    Removing lev_gauge_to_pc.o(.ARM.exidx), (8 bytes).
    Removing lev_gauge_to_pc.o(.ARM.exidx), (8 bytes).
    Removing lev_gauge_to_pc.o(.ARM.exidx), (8 bytes).
    Removing lev_gauge_to_pc.o(.ARM.exidx), (8 bytes).
    Removing lev_gauge_to_pc.o(.ARM.exidx), (8 bytes).
    Removing lev_gauge_to_pc.o(.ARM.exidx), (8 bytes).
    Removing lev_gauge_to_pc.o(.ARM.exidx), (8 bytes).
    Removing lev_gauge_to_pc.o(.ARM.exidx), (8 bytes).
    Removing lev_gauge_to_pc.o(.ARM.exidx), (8 bytes).
    Removing lev_gauge_to_pc.o(.ARM.exidx), (8 bytes).
    Removing lev_gauge_to_pc.o(.ARM.exidx), (8 bytes).
    Removing lev_gauge_to_pc.o(.ARM.exidx), (8 bytes).
    Removing lev_gauge_to_pc.o(.ARM.exidx), (8 bytes).
    Removing lev_gauge_to_pc.o(.ARM.exidx), (8 bytes).
    Removing lev_gauge_to_pc.o(.ARM.exidx), (8 bytes).
    Removing lev_gauge_to_pc.o(.ARM.exidx), (8 bytes).
    Removing lev_gauge_to_pc.o(.ARM.exidx), (8 bytes).
    Removing lev_gauge_to_pc.o(.ARM.exidx), (8 bytes).
    Removing lev_gauge_to_pc.o(.ARM.exidx), (8 bytes).
    Removing lev_gauge_to_pc.o(.ARM.exidx), (8 bytes).
    Removing lev_gauge_to_pc.o(.ARM.exidx), (8 bytes).
    Removing lev_gauge_to_pc.o(.ARM.exidx), (8 bytes).
    Removing lev_gauge_to_pc.o(.ARM.exidx), (8 bytes).
    Removing lev_gauge_to_pc.o(.ARM.exidx), (8 bytes).
    Removing lev_gauge_to_pc.o(.ARM.exidx), (8 bytes).
    Removing lev_gauge_to_pc.o(.ARM.exidx), (8 bytes).
    Removing lev_gauge_to_pc.o(.ARM.exidx), (8 bytes).
    Removing lev_gauge_to_pc.o(.ARM.exidx), (8 bytes).
    Removing lev_gauge_to_pc.o(.ARM.exidx), (8 bytes).
    Removing lev_gauge_to_pc.o(.ARM.exidx), (8 bytes).
    Removing lev_gauge_to_pc.o(.ARM.exidx), (8 bytes).
    Removing lev_gauge_to_pc.o(.ARM.exidx), (8 bytes).
    Removing lev_gauge_to_pc.o(.ARM.exidx), (8 bytes).
    Removing lev_gauge_to_pc.o(.ARM.exidx), (8 bytes).
    Removing lev_gauge_to_pc.o(.ARM.exidx), (8 bytes).
    Removing lev_gauge_to_pc.o(.ARM.exidx), (8 bytes).
    Removing lev_gauge_to_pc.o(.ARM.exidx), (8 bytes).
    Removing lev_gauge_to_pc.o(.ARM.exidx), (8 bytes).
    Removing lev_gauge_to_pc.o(.ARM.exidx), (8 bytes).
    Removing lev_gauge_to_pc.o(.ARM.exidx), (8 bytes).
    Removing system_stm32l4xx.o(.rev16_text), (4 bytes).
    Removing system_stm32l4xx.o(.revsh_text), (4 bytes).
    Removing system_stm32l4xx.o(.rrx_text), (6 bytes).
    Removing system_stm32l4xx.o(i.SystemCoreClockUpdate), (236 bytes).
    Removing stm32l4xx_ll_exti.o(.rev16_text), (4 bytes).
    Removing stm32l4xx_ll_exti.o(.revsh_text), (4 bytes).
    Removing stm32l4xx_ll_exti.o(.rrx_text), (6 bytes).
    Removing stm32l4xx_ll_exti.o(i.LL_EXTI_StructInit), (16 bytes).
    Removing stm32l4xx_ll_gpio.o(.rev16_text), (4 bytes).
    Removing stm32l4xx_ll_gpio.o(.revsh_text), (4 bytes).
    Removing stm32l4xx_ll_gpio.o(.rrx_text), (6 bytes).
    Removing stm32l4xx_ll_gpio.o(i.LL_AHB2_GRP1_ForceReset), (16 bytes).
    Removing stm32l4xx_ll_gpio.o(i.LL_AHB2_GRP1_ReleaseReset), (16 bytes).
    Removing stm32l4xx_ll_gpio.o(i.LL_GPIO_DeInit), (152 bytes).
    Removing stm32l4xx_ll_gpio.o(i.LL_GPIO_StructInit), (22 bytes).
    Removing stm32l4xx_ll_i2c.o(.rev16_text), (4 bytes).
    Removing stm32l4xx_ll_i2c.o(.revsh_text), (4 bytes).
    Removing stm32l4xx_ll_i2c.o(.rrx_text), (6 bytes).
    Removing stm32l4xx_ll_i2c.o(i.LL_APB1_GRP1_ForceReset), (16 bytes).
    Removing stm32l4xx_ll_i2c.o(i.LL_APB1_GRP1_ReleaseReset), (16 bytes).
    Removing stm32l4xx_ll_i2c.o(i.LL_I2C_DeInit), (96 bytes).
    Removing stm32l4xx_ll_i2c.o(i.LL_I2C_Init), (136 bytes).
    Removing stm32l4xx_ll_i2c.o(i.LL_I2C_StructInit), (24 bytes).
    Removing stm32l4xx_ll_rcc.o(.rev16_text), (4 bytes).
    Removing stm32l4xx_ll_rcc.o(.revsh_text), (4 bytes).
    Removing stm32l4xx_ll_rcc.o(.rrx_text), (6 bytes).
    Removing stm32l4xx_ll_rcc.o(i.LL_RCC_DeInit), (188 bytes).
    Removing stm32l4xx_ll_rcc.o(i.LL_RCC_GetADCClockFreq), (72 bytes).
    Removing stm32l4xx_ll_rcc.o(i.LL_RCC_GetI2CClockFreq), (252 bytes).
    Removing stm32l4xx_ll_rcc.o(i.LL_RCC_GetI2CClockSource), (36 bytes).
    Removing stm32l4xx_ll_rcc.o(i.LL_RCC_GetLPTIMClockFreq), (208 bytes).
    Removing stm32l4xx_ll_rcc.o(i.LL_RCC_GetLPTIMClockSource), (20 bytes).
    Removing stm32l4xx_ll_rcc.o(i.LL_RCC_GetLPUARTClockFreq), (108 bytes).
    Removing stm32l4xx_ll_rcc.o(i.LL_RCC_GetRNGClockFreq), (168 bytes).
    Removing stm32l4xx_ll_rcc.o(i.LL_RCC_GetSAIClockFreq), (92 bytes).
    Removing stm32l4xx_ll_rcc.o(i.LL_RCC_GetSDMMCClockFreq), (168 bytes).
    Removing stm32l4xx_ll_rcc.o(i.LL_RCC_GetSWPMIClockFreq), (72 bytes).
    Removing stm32l4xx_ll_rcc.o(i.LL_RCC_HSI48_IsReady), (16 bytes).
    Removing stm32l4xx_ll_rcc.o(i.LL_RCC_LSI_IsReady), (16 bytes).
    Removing stm32l4xx_ll_rcc.o(i.LL_RCC_MSI_IsReady), (16 bytes).
    Removing stm32l4xx_ll_rcc.o(i.LL_RCC_PLLSAI1_GetN), (16 bytes).
    Removing stm32l4xx_ll_rcc.o(i.LL_RCC_PLLSAI1_IsReady), (16 bytes).
    Removing stm32l4xx_ll_rcc.o(i.LL_RCC_PLL_IsReady), (16 bytes).
    Removing stm32l4xx_ll_rcc.o(i.RCC_PLLSAI1_GetFreqDomain_48M), (216 bytes).
    Removing stm32l4xx_ll_rcc.o(i.RCC_PLLSAI1_GetFreqDomain_ADC), (216 bytes).
    Removing stm32l4xx_ll_rcc.o(i.RCC_PLLSAI1_GetFreqDomain_SAI), (204 bytes).
    Removing stm32l4xx_ll_rcc.o(i.RCC_PLL_GetFreqDomain_48M), (216 bytes).
    Removing stm32l4xx_ll_rcc.o(i.RCC_PLL_GetFreqDomain_SAI), (204 bytes).
    Removing stm32l4xx_ll_spi.o(.rev16_text), (4 bytes).
    Removing stm32l4xx_ll_spi.o(.revsh_text), (4 bytes).
    Removing stm32l4xx_ll_spi.o(.rrx_text), (6 bytes).
    Removing stm32l4xx_ll_spi.o(i.LL_APB1_GRP1_ForceReset), (16 bytes).
    Removing stm32l4xx_ll_spi.o(i.LL_APB1_GRP1_ReleaseReset), (16 bytes).
    Removing stm32l4xx_ll_spi.o(i.LL_SPI_DeInit), (100 bytes).
    Removing stm32l4xx_ll_spi.o(i.LL_SPI_Init), (102 bytes).
    Removing stm32l4xx_ll_spi.o(i.LL_SPI_StructInit), (32 bytes).
    Removing stm32l4xx_ll_tim.o(.rev16_text), (4 bytes).
    Removing stm32l4xx_ll_tim.o(.revsh_text), (4 bytes).
    Removing stm32l4xx_ll_tim.o(.rrx_text), (6 bytes).
    Removing stm32l4xx_ll_tim.o(i.IC1Config), (52 bytes).
    Removing stm32l4xx_ll_tim.o(i.IC2Config), (56 bytes).
    Removing stm32l4xx_ll_tim.o(i.IC3Config), (58 bytes).
    Removing stm32l4xx_ll_tim.o(i.IC4Config), (58 bytes).
    Removing stm32l4xx_ll_tim.o(i.LL_APB1_GRP1_ForceReset), (16 bytes).
    Removing stm32l4xx_ll_tim.o(i.LL_APB1_GRP1_ReleaseReset), (16 bytes).
    Removing stm32l4xx_ll_tim.o(i.LL_APB2_GRP1_ForceReset), (16 bytes).
    Removing stm32l4xx_ll_tim.o(i.LL_APB2_GRP1_ReleaseReset), (16 bytes).
    Removing stm32l4xx_ll_tim.o(i.LL_TIM_BDTR_Init), (140 bytes).
    Removing stm32l4xx_ll_tim.o(i.LL_TIM_BDTR_StructInit), (26 bytes).
    Removing stm32l4xx_ll_tim.o(i.LL_TIM_DeInit), (160 bytes).
    Removing stm32l4xx_ll_tim.o(i.LL_TIM_ENCODER_Init), (104 bytes).
    Removing stm32l4xx_ll_tim.o(i.LL_TIM_ENCODER_StructInit), (36 bytes).
    Removing stm32l4xx_ll_tim.o(i.LL_TIM_HALLSENSOR_Init), (124 bytes).
    Removing stm32l4xx_ll_tim.o(i.LL_TIM_HALLSENSOR_StructInit), (12 bytes).
    Removing stm32l4xx_ll_tim.o(i.LL_TIM_IC_Init), (92 bytes).
    Removing stm32l4xx_ll_tim.o(i.LL_TIM_IC_StructInit), (18 bytes).
    Removing stm32l4xx_ll_tim.o(i.LL_TIM_OC_Init), (132 bytes).
    Removing stm32l4xx_ll_tim.o(i.LL_TIM_OC_SetCompareCH2), (4 bytes).
    Removing stm32l4xx_ll_tim.o(i.LL_TIM_OC_StructInit), (20 bytes).
    Removing stm32l4xx_ll_tim.o(i.LL_TIM_StructInit), (18 bytes).
    Removing stm32l4xx_ll_tim.o(i.OC1Config), (144 bytes).
    Removing stm32l4xx_ll_tim.o(i.OC2Config), (156 bytes).
    Removing stm32l4xx_ll_tim.o(i.OC3Config), (144 bytes).
    Removing stm32l4xx_ll_tim.o(i.OC4Config), (112 bytes).
    Removing stm32l4xx_ll_tim.o(i.OC5Config), (112 bytes).
    Removing stm32l4xx_ll_tim.o(i.OC6Config), (108 bytes).
    Removing stm32l4xx_ll_tim.o(.constdata), (45 bytes).
    Removing stm32l4xx_ll_usart.o(.rev16_text), (4 bytes).
    Removing stm32l4xx_ll_usart.o(.revsh_text), (4 bytes).
    Removing stm32l4xx_ll_usart.o(.rrx_text), (6 bytes).
    Removing stm32l4xx_ll_usart.o(i.LL_APB1_GRP1_ForceReset), (16 bytes).
    Removing stm32l4xx_ll_usart.o(i.LL_APB1_GRP1_ReleaseReset), (16 bytes).
    Removing stm32l4xx_ll_usart.o(i.LL_USART_ClockInit), (66 bytes).
    Removing stm32l4xx_ll_usart.o(i.LL_USART_ClockStructInit), (12 bytes).
    Removing stm32l4xx_ll_usart.o(i.LL_USART_DeInit), (112 bytes).
    Removing stm32l4xx_ll_usart.o(i.LL_USART_StructInit), (26 bytes).
    Removing stm32l4xx_ll_utils.o(.rev16_text), (4 bytes).
    Removing stm32l4xx_ll_utils.o(.revsh_text), (4 bytes).
    Removing stm32l4xx_ll_utils.o(.rrx_text), (6 bytes).
    Removing stm32l4xx_ll_utils.o(i.LL_PLL_ConfigSystemClock_HSE), (148 bytes).
    Removing stm32l4xx_ll_utils.o(i.LL_PLL_ConfigSystemClock_HSI), (100 bytes).
    Removing stm32l4xx_ll_utils.o(i.LL_PLL_ConfigSystemClock_MSI), (264 bytes).
    Removing stm32l4xx_ll_utils.o(i.LL_RCC_HSE_IsReady), (16 bytes).
    Removing stm32l4xx_ll_utils.o(i.LL_RCC_HSI_IsReady), (16 bytes).
    Removing stm32l4xx_ll_utils.o(i.LL_RCC_MSI_IsEnabledRangeSelect), (16 bytes).
    Removing stm32l4xx_ll_utils.o(i.LL_RCC_MSI_IsReady), (16 bytes).
    Removing stm32l4xx_ll_utils.o(i.LL_RCC_PLL_ConfigDomain_SYS), (36 bytes).
    Removing stm32l4xx_ll_utils.o(i.LL_RCC_PLL_IsReady), (16 bytes).
    Removing stm32l4xx_ll_utils.o(i.LL_mDelay), (40 bytes).
    Removing stm32l4xx_ll_utils.o(i.UTILS_EnablePLLAndSwitchSystem), (216 bytes).
    Removing stm32l4xx_ll_utils.o(i.UTILS_GetPLLOutputFrequency), (40 bytes).
    Removing stm32l4xx_ll_utils.o(i.UTILS_PLL_IsBusy), (36 bytes).
    Removing stm32l4xx_ll_utils.o(i.UTILS_SetFlashLatency), (172 bytes).
    Removing model.o(t._ZN6TModel11access_protIhU8__packedhEEvRT_RKT0_), (46 bytes).
    Removing model.o(.ARM.exidx), (8 bytes).
    Removing model.o(t._ZN6TModel11access_protIU8__packedhhEEvRT_RKT0_), (46 bytes).
    Removing model.o(.ARM.exidx), (8 bytes).
    Removing model.o(.ARM.exidx), (8 bytes).
    Removing model.o(t._ZN6TModel11access_protIU8__packedffEEvRT_RKT0_), (46 bytes).
    Removing model.o(.ARM.exidx), (8 bytes).
    Removing model.o(t._ZN6TModel11access_protIN9TSettings6TStateES2_EEvRT_RKT0_), (46 bytes).
    Removing model.o(.ARM.exidx), (8 bytes).
    Removing model.o(t._ZN6TModel11access_protIsU8__packedsEEvRT_RKT0_), (46 bytes).
    Removing model.o(.ARM.exidx), (8 bytes).
    Removing model.o(t._ZN6TModel11access_protIU8__packedssEEvRT_RKT0_), (46 bytes).
    Removing model.o(.ARM.exidx), (8 bytes).
    Removing model.o(t._ZN6TModel11access_protIN9TSettings10TFlashDataES2_EEvRT_RKT0_), (52 bytes).
    Removing model.o(.ARM.exidx), (8 bytes).
    Removing model.o(t._ZN6TModel11access_protIaU8__packedaEEvRT_RKT0_), (46 bytes).
    Removing model.o(.ARM.exidx), (8 bytes).
    Removing model.o(t._ZN6TModel11access_protIU8__packedaaEEvRT_RKT0_), (46 bytes).
    Removing model.o(.ARM.exidx), (8 bytes).
    Removing model.o(t._ZN6TModel11access_protIU8__packedjjEEvRT_RKT0_), (46 bytes).
    Removing model.o(.ARM.exidx), (8 bytes).
    Removing model.o(t._ZN6TModel11access_protIN9TSettings12TCommunicateES2_EEvRT_RKT0_), (46 bytes).
    Removing model.o(.ARM.exidx), (8 bytes).
    Removing model.o(t._ZN6TModel11access_protI5TBitsS1_EEvRT_RKT0_), (46 bytes).
    Removing model.o(.ARM.exidx), (8 bytes).
    Removing model.o(t._ZN6TModel11access_protI10MySettingsS1_EEvRT_RKT0_), (52 bytes).
    Removing model.o(.ARM.exidx), (8 bytes).
    Removing model.o(t._ZN6TModel11access_protI3TIfS1_EEvRT_RKT0_), (50 bytes).
    Removing model.o(.ARM.exidx), (8 bytes).
    Removing model.o(t._ZN6TModel11access_protIN9TSettings11TAccCalDataES2_EEvRT_RKT0_), (52 bytes).
    Removing model.o(.ARM.exidx), (8 bytes).
    Removing settings.o(.ARM.exidx), (8 bytes).

805 unused section(s) (total 23675 bytes) removed from the image.

==============================================================================

Image Stack Usage Information.

Maximum stack usage for Image.

Maximum Stack Usage for lev_gauge_to_pc(void*) 0x170 bytes.
Call chain for maximum stack usage:
lev_gauge_to_pc(void*) => TUsart::hw_init(unsigned char) => LL_USART_Init => LL_RCC_GetUSARTClockFreq => RCC_GetSystemClockFreq => RCC_PLL_GetFreqDomain_SYS

Maximum stack usage per global function.

Maximum Stack Usage for PendSV_Handler 0x8 bytes.
Call chain for maximum stack usage:
PendSV_Handler => vTaskSwitchContext

Maximum Stack Usage for EXTI15_10_IRQHandler 0x38 bytes.
Call chain for maximum stack usage:
EXTI15_10_IRQHandler => xQueueGiveFromISR => xTaskRemoveFromEventList

Maximum Stack Usage for I2C1_EV_IRQHandler 0x40 bytes.
Call chain for maximum stack usage:
I2C1_EV_IRQHandler => [local to I2C_driver_cpp]::dks_stop_active() => xQueueGiveFromISR => xTaskRemoveFromEventList

Maximum Stack Usage for LL_EXTI_Init 0x10 bytes.
Call chain for maximum stack usage:
LL_EXTI_Init

Maximum Stack Usage for LL_GPIO_Init 0x14 bytes.
Call chain for maximum stack usage:
LL_GPIO_Init

Maximum Stack Usage for LL_RCC_GetSystemClocksFreq 0x20 bytes.
Call chain for maximum stack usage:
LL_RCC_GetSystemClocksFreq => RCC_GetSystemClockFreq => RCC_PLL_GetFreqDomain_SYS

Maximum Stack Usage for LL_RCC_GetUSARTClockFreq 0x30 bytes.
Call chain for maximum stack usage:
LL_RCC_GetUSARTClockFreq => RCC_GetSystemClockFreq => RCC_PLL_GetFreqDomain_SYS

Maximum Stack Usage for LL_TIM_Init 0x8 bytes.
Call chain for maximum stack usage:
LL_TIM_Init

Maximum Stack Usage for LL_USART_Init 0x48 bytes.
Call chain for maximum stack usage:
LL_USART_Init => LL_RCC_GetUSARTClockFreq => RCC_GetSystemClockFreq => RCC_PLL_GetFreqDomain_SYS

Maximum Stack Usage for RCC_GetSystemClockFreq 0x18 bytes.
Call chain for maximum stack usage:
RCC_GetSystemClockFreq => RCC_PLL_GetFreqDomain_SYS

Maximum Stack Usage for RCC_PLL_GetFreqDomain_SYS 0x10 bytes.
Call chain for maximum stack usage:
RCC_PLL_GetFreqDomain_SYS

Maximum Stack Usage for SysTick_Handler 0x20 bytes.
Call chain for maximum stack usage:
SysTick_Handler => xTaskIncrementTick

Maximum Stack Usage for TIM1_BRK_TIM15_IRQHandler 0x38 bytes.
Call chain for maximum stack usage:
TIM1_BRK_TIM15_IRQHandler => xQueueGiveFromISR => xTaskRemoveFromEventList

Maximum Stack Usage for cfg_sys_clk() 0x94 bytes.
Call chain for maximum stack usage:
cfg_sys_clk() => [local to main_cpp]::NVIC_EncodePriority(unsigned, unsigned, unsigned)

Maximum Stack Usage for lev_gauge_to_pc(void*) 0x170 bytes.
Call chain for maximum stack usage:
lev_gauge_to_pc(void*) => TUsart::hw_init(unsigned char) => LL_USART_Init => LL_RCC_GetUSARTClockFreq => RCC_GetSystemClockFreq => RCC_PLL_GetFreqDomain_SYS

Maximum Stack Usage for TExtMaster::all_pkt_tx(const unsigned char*, unsigned short) 0x34 bytes.
Call chain for maximum stack usage:
TExtMaster::all_pkt_tx(const unsigned char*, unsigned short) => TExtMaster::start_wrap_tx(const unsigned char*, unsigned short)

Maximum Stack Usage for TExtMaster::start_wrap_tx(const unsigned char*, unsigned short) 0x24 bytes.
Call chain for maximum stack usage:
TExtMaster::start_wrap_tx(const unsigned char*, unsigned short)

Maximum Stack Usage for TExtMaster::tx_data(const unsigned char*, unsigned short, TExtMaster::TWrapTxSign) 0x88 bytes.
Call chain for maximum stack usage:
TExtMaster::tx_data(const unsigned char*, unsigned short, TExtMaster::TWrapTxSign) => TUsart::write_burst(const unsigned char*, unsigned short)

Maximum Stack Usage for TExtMaster::parse_pkt() 0x20 bytes.
Call chain for maximum stack usage:
TExtMaster::parse_pkt() => TUsart::read_byte()

Maximum Stack Usage for TExtMaster::TExtMaster(const TUsart_HW&) 0x30 bytes.
Call chain for maximum stack usage:
TExtMaster::TExtMaster(const TUsart_HW&) => TUsart::TUsart(const TUsart_HW&, const TUsart::TSets&, TUsart::TMode)

Maximum Stack Usage for TExtMaster::~TExtMaster() 0x10 bytes.
Call chain for maximum stack usage:
TExtMaster::~TExtMaster() => TUsart::~TUsart()

Maximum Stack Usage for TExchngToPC::rx_set_freg(TExchngToPC::TParamHandle*) 0x90 bytes.
Call chain for maximum stack usage:
TExchngToPC::rx_set_freg(TExchngToPC::TParamHandle*) => TExchngToPC::ctrl_pwm(TExchngToPC::TParamHandle*) => xQueueGenericReceive => vTaskPlaceOnEventList => prvAddCurrentTaskToDelayedList => vListInsert

Maximum Stack Usage for TExchngToPC::tx_set_freg(TExchngToPC::TParamHandle*) 0x98 bytes.
Call chain for maximum stack usage:
TExchngToPC::tx_set_freg(TExchngToPC::TParamHandle*) => TExtMaster::tx_data(const unsigned char*, unsigned short, TExtMaster::TWrapTxSign) => TUsart::write_burst(const unsigned char*, unsigned short)

Maximum Stack Usage for TExchngToPC::rx_start_adc(TExchngToPC::TParamHandle*) 0x80 bytes.
Call chain for maximum stack usage:
TExchngToPC::rx_start_adc(TExchngToPC::TParamHandle*) => xQueueGenericReceive => vTaskPlaceOnEventList => prvAddCurrentTaskToDelayedList => vListInsert

Maximum Stack Usage for TExchngToPC::tmr_cmp_init() 0x1c bytes.
Call chain for maximum stack usage:
TExchngToPC::tmr_cmp_init() => [local to lev_gauge_to_pc_cpp]::LL_TIM_IC_SetActiveInput(TIM_TypeDef*, unsigned, unsigned)

Maximum Stack Usage for TExchngToPC::set_diff_freq(unsigned short) 0x10 bytes.
Call chain for maximum stack usage:
TExchngToPC::set_diff_freq(unsigned short)

Maximum Stack Usage for TExchngToPC::tmr_diff_init() 0x1c bytes.
Call chain for maximum stack usage:
TExchngToPC::tmr_diff_init() => [local to lev_gauge_to_pc_cpp]::LL_TIM_IC_SetActiveInput(TIM_TypeDef*, unsigned, unsigned)

Maximum Stack Usage for TExchngToPC::tmr_freg_init() 0x70 bytes.
Call chain for maximum stack usage:
TExchngToPC::tmr_freg_init() => TExchngToPC::cnt_pwm() => LL_RCC_GetSystemClocksFreq => RCC_GetSystemClockFreq => RCC_PLL_GetFreqDomain_SYS

Maximum Stack Usage for TExchngToPC::init_diff_exti(unsigned) 0x4c bytes.
Call chain for maximum stack usage:
TExchngToPC::init_diff_exti(unsigned) => LL_GPIO_Init

Maximum Stack Usage for TExchngToPC::rx_cmp_capture(TExchngToPC::TParamHandle*) 0x80 bytes.
Call chain for maximum stack usage:
TExchngToPC::rx_cmp_capture(TExchngToPC::TParamHandle*) => xQueueGenericReceive => vTaskPlaceOnEventList => prvAddCurrentTaskToDelayedList => vListInsert

Maximum Stack Usage for TExchngToPC::tx_cmp_capture(TExchngToPC::TParamHandle*) 0x98 bytes.
Call chain for maximum stack usage:
TExchngToPC::tx_cmp_capture(TExchngToPC::TParamHandle*) => TExtMaster::tx_data(const unsigned char*, unsigned short, TExtMaster::TWrapTxSign) => TUsart::write_burst(const unsigned char*, unsigned short)

Maximum Stack Usage for TExchngToPC::rx_diff_capture(TExchngToPC::TParamHandle*) 0x28 bytes.
Call chain for maximum stack usage:
TExchngToPC::rx_diff_capture(TExchngToPC::TParamHandle*) => TExchngToPC::set_diff_freq(unsigned short)

Maximum Stack Usage for TExchngToPC::tx_diff_capture(TExchngToPC::TParamHandle*) 0x98 bytes.
Call chain for maximum stack usage:
TExchngToPC::tx_diff_capture(TExchngToPC::TParamHandle*) => TExtMaster::tx_data(const unsigned char*, unsigned short, TExtMaster::TWrapTxSign) => TUsart::write_burst(const unsigned char*, unsigned short)

Maximum Stack Usage for TExchngToPC::deinit_diff_exti() 0x8 bytes.
Call chain for maximum stack usage:
TExchngToPC::deinit_diff_exti()

Maximum Stack Usage for TExchngToPC::rx_set_pos_pot_1(TExchngToPC::TParamHandle*) 0x78 bytes.
Call chain for maximum stack usage:
TExchngToPC::rx_set_pos_pot_1(TExchngToPC::TParamHandle*) => T_AD8402::set_code(unsigned char, T_AD8402::TChannel) => T_AD8402::data_bit_ctrl(unsigned char*)

Maximum Stack Usage for TExchngToPC::rx_set_pos_pot_2(TExchngToPC::TParamHandle*) 0x78 bytes.
Call chain for maximum stack usage:
TExchngToPC::rx_set_pos_pot_2(TExchngToPC::TParamHandle*) => T_AD8402::set_code(unsigned char, T_AD8402::TChannel) => T_AD8402::data_bit_ctrl(unsigned char*)

Maximum Stack Usage for TExchngToPC::tx_set_pos_pot_1(TExchngToPC::TParamHandle*) 0x98 bytes.
Call chain for maximum stack usage:
TExchngToPC::tx_set_pos_pot_1(TExchngToPC::TParamHandle*) => TExtMaster::tx_data(const unsigned char*, unsigned short, TExtMaster::TWrapTxSign) => TUsart::write_burst(const unsigned char*, unsigned short)

Maximum Stack Usage for TExchngToPC::tx_set_pos_pot_2(TExchngToPC::TParamHandle*) 0x98 bytes.
Call chain for maximum stack usage:
TExchngToPC::tx_set_pos_pot_2(TExchngToPC::TParamHandle*) => TExtMaster::tx_data(const unsigned char*, unsigned short, TExtMaster::TWrapTxSign) => TUsart::write_burst(const unsigned char*, unsigned short)

Maximum Stack Usage for TExchngToPC::rx_set_duty_cycle(TExchngToPC::TParamHandle*) 0x90 bytes.
Call chain for maximum stack usage:
TExchngToPC::rx_set_duty_cycle(TExchngToPC::TParamHandle*) => TExchngToPC::ctrl_pwm(TExchngToPC::TParamHandle*) => xQueueGenericReceive => vTaskPlaceOnEventList => prvAddCurrentTaskToDelayedList => vListInsert

Maximum Stack Usage for TExchngToPC::tx_set_duty_cycle(TExchngToPC::TParamHandle*) 0x98 bytes.
Call chain for maximum stack usage:
TExchngToPC::tx_set_duty_cycle(TExchngToPC::TParamHandle*) => TExtMaster::tx_data(const unsigned char*, unsigned short, TExtMaster::TWrapTxSign) => TUsart::write_burst(const unsigned char*, unsigned short)

Maximum Stack Usage for TExchngToPC::iserr(float) 0x10 bytes.
Call chain for maximum stack usage:
TExchngToPC::iserr(float)

Maximum Stack Usage for TExchngToPC::en_adc() 0x8 bytes.
Call chain for maximum stack usage:
TExchngToPC::en_adc()

Maximum Stack Usage for TExchngToPC::tx_adc(TExchngToPC::TParamHandle*) 0x98 bytes.
Call chain for maximum stack usage:
TExchngToPC::tx_adc(TExchngToPC::TParamHandle*) => TExtMaster::tx_data(const unsigned char*, unsigned short, TExtMaster::TWrapTxSign) => TUsart::write_burst(const unsigned char*, unsigned short)

Maximum Stack Usage for TExchngToPC::adc_cal() 0x8 bytes.
Call chain for maximum stack usage:
TExchngToPC::adc_cal()

Maximum Stack Usage for TExchngToPC::cnt_pwm() 0x58 bytes.
Call chain for maximum stack usage:
TExchngToPC::cnt_pwm() => LL_RCC_GetSystemClocksFreq => RCC_GetSystemClockFreq => RCC_PLL_GetFreqDomain_SYS

Maximum Stack Usage for TExchngToPC::dis_adc() 0x8 bytes.
Call chain for maximum stack usage:
TExchngToPC::dis_adc()

Maximum Stack Usage for TExchngToPC::set_pwm(const TExchngToPC::TPwm&) 0x10 bytes.
Call chain for maximum stack usage:
TExchngToPC::set_pwm(const TExchngToPC::TPwm&)

Maximum Stack Usage for TExchngToPC::tx_test(TExchngToPC::TParamHandle*) 0x98 bytes.
Call chain for maximum stack usage:
TExchngToPC::tx_test(TExchngToPC::TParamHandle*) => TExtMaster::tx_data(const unsigned char*, unsigned short, TExtMaster::TWrapTxSign) => TUsart::write_burst(const unsigned char*, unsigned short)

Maximum Stack Usage for TExchngToPC::adc_init() 0x50 bytes.
Call chain for maximum stack usage:
TExchngToPC::adc_init() => vTaskDelay => xTaskResumeAll => xTaskIncrementTick

Maximum Stack Usage for TExchngToPC::ctrl_pwm(TExchngToPC::TParamHandle*) 0x80 bytes.
Call chain for maximum stack usage:
TExchngToPC::ctrl_pwm(TExchngToPC::TParamHandle*) => xQueueGenericReceive => vTaskPlaceOnEventList => prvAddCurrentTaskToDelayedList => vListInsert

Maximum Stack Usage for TExchngToPC::chk_range(float, const TExchngToPC::TRange&) 0x1c bytes.
Call chain for maximum stack usage:
TExchngToPC::chk_range(float, const TExchngToPC::TRange&) => TExchngToPC::iserr(float)

Maximum Stack Usage for TExchngToPC::TExchngToPC(const TUsart_HW&, const TTmr_HW&, const TTmr_HW&, const TTmr_HW&, const TAdc_HW&) 0x50 bytes.
Call chain for maximum stack usage:
TExchngToPC::TExchngToPC(const TUsart_HW&, const TTmr_HW&, const TTmr_HW&, const TTmr_HW&, const TAdc_HW&) => TExtMaster::TExtMaster(const TUsart_HW&) => TUsart::TUsart(const TUsart_HW&, const TUsart::TSets&, TUsart::TMode)

Maximum Stack Usage for TExchngToPC::~TExchngToPC() 0x18 bytes.
Call chain for maximum stack usage:
TExchngToPC::~TExchngToPC() => TExtMaster::~TExtMaster() => TUsart::~TUsart()

Maximum Stack Usage for TLed::off() 0x8 bytes.
Call chain for maximum stack usage:
TLed::off()

Maximum Stack Usage for TLed::init() 0x34 bytes.
Call chain for maximum stack usage:
TLed::init() => LL_GPIO_Init

Maximum Stack Usage for TLed::TLed(const TPin&, void**) 0x8 bytes.
Call chain for maximum stack usage:
TLed::TLed(const TPin&, void**)

Maximum Stack Usage for TFlash::write_sets(const unsigned char*, unsigned short) 0x50 bytes.
Call chain for maximum stack usage:
TFlash::write_sets(const unsigned char*, unsigned short) => TFlash::write_page(const unsigned char*, unsigned short, unsigned) const => TFlash::prog(const unsigned*, unsigned, unsigned) const

Maximum Stack Usage for TFlash::get_sets(unsigned char*, unsigned short) 0x14 bytes.
Call chain for maximum stack usage:
TFlash::get_sets(unsigned char*, unsigned short)

Maximum Stack Usage for TFlash::init_tmr() 0x78 bytes.
Call chain for maximum stack usage:
TFlash::init_tmr() => LL_RCC_GetSystemClocksFreq => RCC_GetSystemClockFreq => RCC_PLL_GetFreqDomain_SYS

Maximum Stack Usage for TFlash::TFlash() 0x80 bytes.
Call chain for maximum stack usage:
TFlash::TFlash() => TFlash::init_tmr() => LL_RCC_GetSystemClocksFreq => RCC_GetSystemClockFreq => RCC_PLL_GetFreqDomain_SYS

Maximum Stack Usage for TModel::set_access(TSettings::TAccess) 0x80 bytes.
Call chain for maximum stack usage:
TModel::set_access(TSettings::TAccess) => xQueueGenericSend => vTaskPlaceOnEventList => prvAddCurrentTaskToDelayedList => vListInsert

Maximum Stack Usage for TModel::get_psw_admin() 0x88 bytes.
Call chain for maximum stack usage:
TModel::get_psw_admin() => _ZN6TModel11access_protIfU8__packedfEEvRT_RKT0_ => xQueueGenericSend => vTaskPlaceOnEventList => prvAddCurrentTaskToDelayedList => vListInsert

Maximum Stack Usage for TModel::get_psw_super() 0x88 bytes.
Call chain for maximum stack usage:
TModel::get_psw_super() => _ZN6TModel11access_protIfU8__packedfEEvRT_RKT0_ => xQueueGenericSend => vTaskPlaceOnEventList => prvAddCurrentTaskToDelayedList => vListInsert

Maximum Stack Usage for TModel::handler_calib(short, bool*) 0x88 bytes.
Call chain for maximum stack usage:
TModel::handler_calib(short, bool*) => TModel::get_calib_process() => xQueueGenericSend => vTaskPlaceOnEventList => prvAddCurrentTaskToDelayedList => vListInsert

Maximum Stack Usage for TModel::handler_access(short, bool*) 0x98 bytes.
Call chain for maximum stack usage:
TModel::handler_access(short, bool*) => TModel::set_calib_process(TSettings::TCalibProcess) => xQueueGenericSend => vTaskPlaceOnEventList => prvAddCurrentTaskToDelayedList => vListInsert

Maximum Stack Usage for TModel::get_calib_process() 0x78 bytes.
Call chain for maximum stack usage:
TModel::get_calib_process() => xQueueGenericSend => vTaskPlaceOnEventList => prvAddCurrentTaskToDelayedList => vListInsert

Maximum Stack Usage for TModel::set_calib_process(TSettings::TCalibProcess) 0x80 bytes.
Call chain for maximum stack usage:
TModel::set_calib_process(TSettings::TCalibProcess) => xQueueGenericSend => vTaskPlaceOnEventList => prvAddCurrentTaskToDelayedList => vListInsert

Maximum Stack Usage for TModel::TModel(void*&) 0xb0 bytes.
Call chain for maximum stack usage:
TModel::TModel(void*&) => TFlash::write_sets(const unsigned char*, unsigned short) => TFlash::write_page(const unsigned char*, unsigned short, unsigned) const => TFlash::prog(const unsigned*, unsigned, unsigned) const

Maximum Stack Usage for TModel::~TModel() 0x8 bytes.
Call chain for maximum stack usage:
TModel::~TModel()

Maximum Stack Usage for TUsart::set_485_hd(unsigned, unsigned) 0x20 bytes.
Call chain for maximum stack usage:
TUsart::set_485_hd(unsigned, unsigned) => [local to usart_driver__cpp]::LL_USART_SetBaudRate(USART_TypeDef*, unsigned, unsigned, unsigned)

Maximum Stack Usage for TUsart::write_burst(const unsigned char*, unsigned short) 0x10 bytes.
Call chain for maximum stack usage:
TUsart::write_burst(const unsigned char*, unsigned short)

Maximum Stack Usage for TUsart::pin_clk_config() 0x34 bytes.
Call chain for maximum stack usage:
TUsart::pin_clk_config() => LL_GPIO_Init

Maximum Stack Usage for TUsart::hw_init(unsigned char) 0xc0 bytes.
Call chain for maximum stack usage:
TUsart::hw_init(unsigned char) => LL_USART_Init => LL_RCC_GetUSARTClockFreq => RCC_GetSystemClockFreq => RCC_PLL_GetFreqDomain_SYS

Maximum Stack Usage for TUsart::set_232(unsigned, unsigned) 0x20 bytes.
Call chain for maximum stack usage:
TUsart::set_232(unsigned, unsigned) => [local to usart_driver__cpp]::LL_USART_SetBaudRate(USART_TypeDef*, unsigned, unsigned, unsigned)

Maximum Stack Usage for TUsart::read_byte() 0x8 bytes.
Call chain for maximum stack usage:
TUsart::read_byte()

Maximum Stack Usage for TUsart::TUsart(const TUsart_HW&, const TUsart::TSets&, TUsart::TMode) 0x18 bytes.
Call chain for maximum stack usage:
TUsart::TUsart(const TUsart_HW&, const TUsart::TSets&, TUsart::TMode)

Maximum Stack Usage for TUsart::~TUsart() 0x8 bytes.
Call chain for maximum stack usage:
TUsart::~TUsart()

Maximum Stack Usage for T_AD8402::data_bit_ctrl(unsigned char*) 0x50 bytes.
Call chain for maximum stack usage:
T_AD8402::data_bit_ctrl(unsigned char*)

Maximum Stack Usage for T_AD8402::init() 0x34 bytes.
Call chain for maximum stack usage:
T_AD8402::init() => LL_GPIO_Init

Maximum Stack Usage for T_AD8402::rs_set() 0x8 bytes.
Call chain for maximum stack usage:
T_AD8402::rs_set()

Maximum Stack Usage for T_AD8402::clk_clr() 0x8 bytes.
Call chain for maximum stack usage:
T_AD8402::clk_clr()

Maximum Stack Usage for T_AD8402::clk_set() 0x8 bytes.
Call chain for maximum stack usage:
T_AD8402::clk_set()

Maximum Stack Usage for T_AD8402::sdi_clr() 0x8 bytes.
Call chain for maximum stack usage:
T_AD8402::sdi_clr()

Maximum Stack Usage for T_AD8402::sdi_set() 0x8 bytes.
Call chain for maximum stack usage:
T_AD8402::sdi_set()

Maximum Stack Usage for T_AD8402::set_code(unsigned char, T_AD8402::TChannel) 0x68 bytes.
Call chain for maximum stack usage:
T_AD8402::set_code(unsigned char, T_AD8402::TChannel) => T_AD8402::data_bit_ctrl(unsigned char*)

Maximum Stack Usage for T_AD8402::shdn_clr() 0x8 bytes.
Call chain for maximum stack usage:
T_AD8402::shdn_clr()

Maximum Stack Usage for T_AD8402::shdn_set() 0x8 bytes.
Call chain for maximum stack usage:
T_AD8402::shdn_set()

Maximum Stack Usage for T_AD8402::latch_clr() 0x8 bytes.
Call chain for maximum stack usage:
T_AD8402::latch_clr()

Maximum Stack Usage for T_AD8402::latch_set() 0x8 bytes.
Call chain for maximum stack usage:
T_AD8402::latch_set()

Maximum Stack Usage for T_AD8402::T_AD8402(const TPot_HW&) 0x10 bytes.
Call chain for maximum stack usage:
T_AD8402::T_AD8402(const TPot_HW&)

Maximum Stack Usage for TFlash::erase_page(unsigned) const 0x10 bytes.
Call chain for maximum stack usage:
TFlash::erase_page(unsigned) const

Maximum Stack Usage for TFlash::write_page(const unsigned char*, unsigned short, unsigned) const 0x38 bytes.
Call chain for maximum stack usage:
TFlash::write_page(const unsigned char*, unsigned short, unsigned) const => TFlash::prog(const unsigned*, unsigned, unsigned) const

Maximum Stack Usage for TFlash::prog(const unsigned*, unsigned, unsigned) const 0x18 bytes.
Call chain for maximum stack usage:
TFlash::prog(const unsigned*, unsigned, unsigned) const

Maximum Stack Usage for TSettings::chk_access(short) const 0x10 bytes.
Call chain for maximum stack usage:
TSettings::chk_access(short) const

Maximum Stack Usage for TSettings::chk_calib(short) const 0x10 bytes.
Call chain for maximum stack usage:
TSettings::chk_calib(short) const

Maximum Stack Usage for main 0xa8 bytes.
Call chain for maximum stack usage:
main => vTaskStartScheduler => xTimerCreateTimerTask => xTaskCreate => pvPortMalloc => xTaskResumeAll => xTaskIncrementTick

Maximum Stack Usage for pvPortMalloc 0x40 bytes.
Call chain for maximum stack usage:
pvPortMalloc => xTaskResumeAll => xTaskIncrementTick

Maximum Stack Usage for vListInsert 0x8 bytes.
Call chain for maximum stack usage:
vListInsert

Maximum Stack Usage for vPortFree 0x38 bytes.
Call chain for maximum stack usage:
vPortFree => xTaskResumeAll => xTaskIncrementTick

Maximum Stack Usage for vPortValidateInterruptPriority 0x10 bytes.
Call chain for maximum stack usage:
vPortValidateInterruptPriority

Maximum Stack Usage for vQueueWaitForMessageRestricted 0x48 bytes.
Call chain for maximum stack usage:
vQueueWaitForMessageRestricted => vTaskPlaceOnEventListRestricted => prvAddCurrentTaskToDelayedList => vListInsert

Maximum Stack Usage for vTaskDelay 0x38 bytes.
Call chain for maximum stack usage:
vTaskDelay => xTaskResumeAll => xTaskIncrementTick

Maximum Stack Usage for vTaskPlaceOnEventList 0x30 bytes.
Call chain for maximum stack usage:
vTaskPlaceOnEventList => prvAddCurrentTaskToDelayedList => vListInsert

Maximum Stack Usage for vTaskPlaceOnEventListRestricted 0x30 bytes.
Call chain for maximum stack usage:
vTaskPlaceOnEventListRestricted => prvAddCurrentTaskToDelayedList => vListInsert

Maximum Stack Usage for vTaskPriorityInherit 0x10 bytes.
Call chain for maximum stack usage:
vTaskPriorityInherit

Maximum Stack Usage for vTaskStartScheduler 0xa8 bytes.
Call chain for maximum stack usage:
vTaskStartScheduler => xTimerCreateTimerTask => xTaskCreate => pvPortMalloc => xTaskResumeAll => xTaskIncrementTick

Maximum Stack Usage for vTaskSwitchContext 0x8 bytes.
Call chain for maximum stack usage:
vTaskSwitchContext

Maximum Stack Usage for xPortStartScheduler 0x10 bytes.
Call chain for maximum stack usage:
xPortStartScheduler

Maximum Stack Usage for xQueueCreateMutex 0x88 bytes.
Call chain for maximum stack usage:
xQueueCreateMutex => prvInitialiseMutex => xQueueGenericSend => vTaskPlaceOnEventList => prvAddCurrentTaskToDelayedList => vListInsert

Maximum Stack Usage for xQueueGenericCreate 0x60 bytes.
Call chain for maximum stack usage:
xQueueGenericCreate => pvPortMalloc => xTaskResumeAll => xTaskIncrementTick

Maximum Stack Usage for xQueueGenericReceive 0x68 bytes.
Call chain for maximum stack usage:
xQueueGenericReceive => vTaskPlaceOnEventList => prvAddCurrentTaskToDelayedList => vListInsert

Maximum Stack Usage for xQueueGenericReset 0x20 bytes.
Call chain for maximum stack usage:
xQueueGenericReset => xTaskRemoveFromEventList

Maximum Stack Usage for xQueueGenericSend 0x68 bytes.
Call chain for maximum stack usage:
xQueueGenericSend => vTaskPlaceOnEventList => prvAddCurrentTaskToDelayedList => vListInsert

Maximum Stack Usage for xQueueGenericSendFromISR 0x50 bytes.
Call chain for maximum stack usage:
xQueueGenericSendFromISR => prvCopyDataToQueue => xTaskPriorityDisinherit

Maximum Stack Usage for xQueueGiveFromISR 0x30 bytes.
Call chain for maximum stack usage:
xQueueGiveFromISR => xTaskRemoveFromEventList

Maximum Stack Usage for xTaskCheckForTimeOut 0x10 bytes.
Call chain for maximum stack usage:
xTaskCheckForTimeOut

Maximum Stack Usage for xTaskCreate 0x88 bytes.
Call chain for maximum stack usage:
xTaskCreate => pvPortMalloc => xTaskResumeAll => xTaskIncrementTick

Maximum Stack Usage for xTaskIncrementTick 0x18 bytes.
Call chain for maximum stack usage:
xTaskIncrementTick

Maximum Stack Usage for xTaskPriorityDisinherit 0x10 bytes.
Call chain for maximum stack usage:
xTaskPriorityDisinherit

Maximum Stack Usage for xTaskRemoveFromEventList 0x10 bytes.
Call chain for maximum stack usage:
xTaskRemoveFromEventList

Maximum Stack Usage for xTaskResumeAll 0x28 bytes.
Call chain for maximum stack usage:
xTaskResumeAll => xTaskIncrementTick

Maximum Stack Usage for xTimerCreateTimerTask 0x98 bytes.
Call chain for maximum stack usage:
xTimerCreateTimerTask => xTaskCreate => pvPortMalloc => xTaskResumeAll => xTaskIncrementTick

Maximum Stack Usage for xTimerGenericCommand 0x90 bytes.
Call chain for maximum stack usage:
xTimerGenericCommand => xQueueGenericSend => vTaskPlaceOnEventList => prvAddCurrentTaskToDelayedList => vListInsert

Maximum Stack Usage for _ZN6TModel11access_protIfU8__packedfEEvRT_RKT0_ 0x78 bytes.
Call chain for maximum stack usage:
_ZN6TModel11access_protIfU8__packedfEEvRT_RKT0_ => xQueueGenericSend => vTaskPlaceOnEventList => prvAddCurrentTaskToDelayedList => vListInsert


Potential Stack Usage Inaccuracies.

Mutually recursive functions.

 * NMI_Handler => NMI_Handler
 * HardFault_Handler => HardFault_Handler
 * MemManage_Handler => MemManage_Handler
 * BusFault_Handler => BusFault_Handler
 * UsageFault_Handler => UsageFault_Handler
 * DebugMon_Handler => DebugMon_Handler
 * ADC1_IRQHandler => ADC1_IRQHandler

Untraceable function pointers.

 * ADC1_IRQHandler from startup_stm32l431xx.o(.text) referenced from startup_stm32l431xx.o(RESET)
 * BusFault_Handler from startup_stm32l431xx.o(.text) referenced from startup_stm32l431xx.o(RESET)
 * CAN1_RX0_IRQHandler from startup_stm32l431xx.o(.text) referenced from startup_stm32l431xx.o(RESET)
 * CAN1_RX1_IRQHandler from startup_stm32l431xx.o(.text) referenced from startup_stm32l431xx.o(RESET)
 * CAN1_SCE_IRQHandler from startup_stm32l431xx.o(.text) referenced from startup_stm32l431xx.o(RESET)
 * CAN1_TX_IRQHandler from startup_stm32l431xx.o(.text) referenced from startup_stm32l431xx.o(RESET)
 * COMP_IRQHandler from startup_stm32l431xx.o(.text) referenced from startup_stm32l431xx.o(RESET)
 * CRS_IRQHandler from startup_stm32l431xx.o(.text) referenced from startup_stm32l431xx.o(RESET)
 * DMA1_Channel1_IRQHandler from startup_stm32l431xx.o(.text) referenced from startup_stm32l431xx.o(RESET)
 * DMA1_Channel2_IRQHandler from startup_stm32l431xx.o(.text) referenced from startup_stm32l431xx.o(RESET)
 * DMA1_Channel3_IRQHandler from startup_stm32l431xx.o(.text) referenced from startup_stm32l431xx.o(RESET)
 * DMA1_Channel4_IRQHandler from startup_stm32l431xx.o(.text) referenced from startup_stm32l431xx.o(RESET)
 * DMA1_Channel5_IRQHandler from startup_stm32l431xx.o(.text) referenced from startup_stm32l431xx.o(RESET)
 * DMA1_Channel6_IRQHandler from startup_stm32l431xx.o(.text) referenced from startup_stm32l431xx.o(RESET)
 * DMA1_Channel7_IRQHandler from startup_stm32l431xx.o(.text) referenced from startup_stm32l431xx.o(RESET)
 * DMA2_Channel1_IRQHandler from startup_stm32l431xx.o(.text) referenced from startup_stm32l431xx.o(RESET)
 * DMA2_Channel2_IRQHandler from startup_stm32l431xx.o(.text) referenced from startup_stm32l431xx.o(RESET)
 * DMA2_Channel3_IRQHandler from startup_stm32l431xx.o(.text) referenced from startup_stm32l431xx.o(RESET)
 * DMA2_Channel4_IRQHandler from startup_stm32l431xx.o(.text) referenced from startup_stm32l431xx.o(RESET)
 * DMA2_Channel5_IRQHandler from startup_stm32l431xx.o(.text) referenced from startup_stm32l431xx.o(RESET)
 * DMA2_Channel6_IRQHandler from startup_stm32l431xx.o(.text) referenced from startup_stm32l431xx.o(RESET)
 * DMA2_Channel7_IRQHandler from startup_stm32l431xx.o(.text) referenced from startup_stm32l431xx.o(RESET)
 * DebugMon_Handler from startup_stm32l431xx.o(.text) referenced from startup_stm32l431xx.o(RESET)
 * EXTI0_IRQHandler from startup_stm32l431xx.o(.text) referenced from startup_stm32l431xx.o(RESET)
 * EXTI15_10_IRQHandler from lev_gauge_to_pc.o(i.EXTI15_10_IRQHandler) referenced from startup_stm32l431xx.o(RESET)
 * EXTI1_IRQHandler from startup_stm32l431xx.o(.text) referenced from startup_stm32l431xx.o(RESET)
 * EXTI2_IRQHandler from startup_stm32l431xx.o(.text) referenced from startup_stm32l431xx.o(RESET)
 * EXTI3_IRQHandler from startup_stm32l431xx.o(.text) referenced from startup_stm32l431xx.o(RESET)
 * EXTI4_IRQHandler from startup_stm32l431xx.o(.text) referenced from startup_stm32l431xx.o(RESET)
 * EXTI9_5_IRQHandler from startup_stm32l431xx.o(.text) referenced from startup_stm32l431xx.o(RESET)
 * FLASH_IRQHandler from flash_driver.o(i.FLASH_IRQHandler) referenced from startup_stm32l431xx.o(RESET)
 * FPU_IRQHandler from startup_stm32l431xx.o(.text) referenced from startup_stm32l431xx.o(RESET)
 * HardFault_Handler from startup_stm32l431xx.o(.text) referenced from startup_stm32l431xx.o(RESET)
 * I2C1_ER_IRQHandler from i2c_driver.o(i.I2C1_ER_IRQHandler) referenced from startup_stm32l431xx.o(RESET)
 * I2C1_EV_IRQHandler from i2c_driver.o(i.I2C1_EV_IRQHandler) referenced from startup_stm32l431xx.o(RESET)
 * I2C2_ER_IRQHandler from i2c_driver.o(i.I2C2_ER_IRQHandler) referenced from startup_stm32l431xx.o(RESET)
 * I2C2_EV_IRQHandler from i2c_driver.o(i.I2C2_EV_IRQHandler) referenced from startup_stm32l431xx.o(RESET)
 * I2C3_ER_IRQHandler from startup_stm32l431xx.o(.text) referenced from startup_stm32l431xx.o(RESET)
 * I2C3_EV_IRQHandler from startup_stm32l431xx.o(.text) referenced from startup_stm32l431xx.o(RESET)
 * LPTIM1_IRQHandler from startup_stm32l431xx.o(.text) referenced from startup_stm32l431xx.o(RESET)
 * LPTIM2_IRQHandler from startup_stm32l431xx.o(.text) referenced from startup_stm32l431xx.o(RESET)
 * LPUART1_IRQHandler from startup_stm32l431xx.o(.text) referenced from startup_stm32l431xx.o(RESET)
 * MemManage_Handler from startup_stm32l431xx.o(.text) referenced from startup_stm32l431xx.o(RESET)
 * NMI_Handler from startup_stm32l431xx.o(.text) referenced from startup_stm32l431xx.o(RESET)
 * PVD_PVM_IRQHandler from startup_stm32l431xx.o(.text) referenced from startup_stm32l431xx.o(RESET)
 * PendSV_Handler from port.o(.emb_text) referenced from startup_stm32l431xx.o(RESET)
 * QUADSPI_IRQHandler from startup_stm32l431xx.o(.text) referenced from startup_stm32l431xx.o(RESET)
 * RCC_IRQHandler from startup_stm32l431xx.o(.text) referenced from startup_stm32l431xx.o(RESET)
 * RNG_IRQHandler from startup_stm32l431xx.o(.text) referenced from startup_stm32l431xx.o(RESET)
 * RTC_Alarm_IRQHandler from startup_stm32l431xx.o(.text) referenced from startup_stm32l431xx.o(RESET)
 * RTC_WKUP_IRQHandler from startup_stm32l431xx.o(.text) referenced from startup_stm32l431xx.o(RESET)
 * Reset_Handler from startup_stm32l431xx.o(.text) referenced from startup_stm32l431xx.o(RESET)
 * SAI1_IRQHandler from startup_stm32l431xx.o(.text) referenced from startup_stm32l431xx.o(RESET)
 * SDMMC1_IRQHandler from startup_stm32l431xx.o(.text) referenced from startup_stm32l431xx.o(RESET)
 * SPI1_IRQHandler from startup_stm32l431xx.o(.text) referenced from startup_stm32l431xx.o(RESET)
 * SPI2_IRQHandler from startup_stm32l431xx.o(.text) referenced from startup_stm32l431xx.o(RESET)
 * SPI3_IRQHandler from startup_stm32l431xx.o(.text) referenced from startup_stm32l431xx.o(RESET)
 * SVC_Handler from port.o(.emb_text) referenced from startup_stm32l431xx.o(RESET)
 * SWPMI1_IRQHandler from startup_stm32l431xx.o(.text) referenced from startup_stm32l431xx.o(RESET)
 * SysTick_Handler from port.o(i.SysTick_Handler) referenced from startup_stm32l431xx.o(RESET)
 * SystemInit from system_stm32l4xx.o(i.SystemInit) referenced from startup_stm32l431xx.o(.text)
 * TAMP_STAMP_IRQHandler from startup_stm32l431xx.o(.text) referenced from startup_stm32l431xx.o(RESET)
 * TIM1_BRK_TIM15_IRQHandler from lev_gauge_to_pc.o(i.TIM1_BRK_TIM15_IRQHandler) referenced from startup_stm32l431xx.o(RESET)
 * TIM1_CC_IRQHandler from startup_stm32l431xx.o(.text) referenced from startup_stm32l431xx.o(RESET)
 * TIM1_TRG_COM_IRQHandler from startup_stm32l431xx.o(.text) referenced from startup_stm32l431xx.o(RESET)
 * TIM1_UP_TIM16_IRQHandler from startup_stm32l431xx.o(.text) referenced from startup_stm32l431xx.o(RESET)
 * TIM2_IRQHandler from startup_stm32l431xx.o(.text) referenced from startup_stm32l431xx.o(RESET)
 * TIM6_DAC_IRQHandler from flash_driver.o(i.TIM6_DAC_IRQHandler) referenced from startup_stm32l431xx.o(RESET)
 * TIM7_IRQHandler from startup_stm32l431xx.o(.text) referenced from startup_stm32l431xx.o(RESET)
 * TSC_IRQHandler from startup_stm32l431xx.o(.text) referenced from startup_stm32l431xx.o(RESET)
 * USART1_IRQHandler from startup_stm32l431xx.o(.text) referenced from startup_stm32l431xx.o(RESET)
 * USART2_IRQHandler from startup_stm32l431xx.o(.text) referenced from startup_stm32l431xx.o(RESET)
 * USART3_IRQHandler from startup_stm32l431xx.o(.text) referenced from startup_stm32l431xx.o(RESET)
 * UsageFault_Handler from startup_stm32l431xx.o(.text) referenced from startup_stm32l431xx.o(RESET)
 * WWDG_IRQHandler from startup_stm32l431xx.o(.text) referenced from startup_stm32l431xx.o(RESET)
 * lev_gauge_to_pc(void*) from lev_gauge_to_pc.o(i._Z15lev_gauge_to_pcPv) referenced from main.o(i._ZN29_INTERNAL_8_main_cpp_6396510212create_tasksEv)
 * TExtMaster::all_pkt_tx(const unsigned char*, unsigned short) from ext_master.o(i._ZN10TExtMaster10all_pkt_txEPKht) referenced from ext_master.o(.constdata)
 * TExtMaster::no_wrap_tx(const unsigned char*, unsigned short) from ext_master.o(i._ZN10TExtMaster10no_wrap_txEPKht) referenced from ext_master.o(.constdata)
 * TExtMaster::start_wrap_tx(const unsigned char*, unsigned short) from ext_master.o(i._ZN10TExtMaster13start_wrap_txEPKht) referenced from ext_master.o(.constdata)
 * TExtMaster::finish_wrap_tx(const unsigned char*, unsigned short) from ext_master.o(i._ZN10TExtMaster14finish_wrap_txEPKht) referenced from ext_master.o(.constdata)
 * TExchngToPC::rx_set_freg(TExchngToPC::TParamHandle*) from lev_gauge_to_pc.o(i._ZN11TExchngToPC11rx_set_fregEPNS_12TParamHandleE) referenced from lev_gauge_to_pc.o(.constdata)
 * TExchngToPC::tx_set_freg(TExchngToPC::TParamHandle*) from lev_gauge_to_pc.o(i._ZN11TExchngToPC11tx_set_fregEPNS_12TParamHandleE) referenced from lev_gauge_to_pc.o(.constdata)
 * TExchngToPC::rx_start_adc(TExchngToPC::TParamHandle*) from lev_gauge_to_pc.o(i._ZN11TExchngToPC12rx_start_adcEPNS_12TParamHandleE) referenced from lev_gauge_to_pc.o(.constdata)
 * TExchngToPC::rx_cmp_capture(TExchngToPC::TParamHandle*) from lev_gauge_to_pc.o(i._ZN11TExchngToPC14rx_cmp_captureEPNS_12TParamHandleE) referenced from lev_gauge_to_pc.o(.constdata)
 * TExchngToPC::tx_cmp_capture(TExchngToPC::TParamHandle*) from lev_gauge_to_pc.o(i._ZN11TExchngToPC14tx_cmp_captureEPNS_12TParamHandleE) referenced from lev_gauge_to_pc.o(.constdata)
 * TExchngToPC::rx_diff_capture(TExchngToPC::TParamHandle*) from lev_gauge_to_pc.o(i._ZN11TExchngToPC15rx_diff_captureEPNS_12TParamHandleE) referenced from lev_gauge_to_pc.o(.constdata)
 * TExchngToPC::tx_diff_capture(TExchngToPC::TParamHandle*) from lev_gauge_to_pc.o(i._ZN11TExchngToPC15tx_diff_captureEPNS_12TParamHandleE) referenced from lev_gauge_to_pc.o(.constdata)
 * TExchngToPC::rx_set_pos_pot_1(TExchngToPC::TParamHandle*) from lev_gauge_to_pc.o(i._ZN11TExchngToPC16rx_set_pos_pot_1EPNS_12TParamHandleE) referenced from lev_gauge_to_pc.o(.constdata)
 * TExchngToPC::rx_set_pos_pot_2(TExchngToPC::TParamHandle*) from lev_gauge_to_pc.o(i._ZN11TExchngToPC16rx_set_pos_pot_2EPNS_12TParamHandleE) referenced from lev_gauge_to_pc.o(.constdata)
 * TExchngToPC::tx_set_pos_pot_1(TExchngToPC::TParamHandle*) from lev_gauge_to_pc.o(i._ZN11TExchngToPC16tx_set_pos_pot_1EPNS_12TParamHandleE) referenced from lev_gauge_to_pc.o(.constdata)
 * TExchngToPC::tx_set_pos_pot_2(TExchngToPC::TParamHandle*) from lev_gauge_to_pc.o(i._ZN11TExchngToPC16tx_set_pos_pot_2EPNS_12TParamHandleE) referenced from lev_gauge_to_pc.o(.constdata)
 * TExchngToPC::rx_set_duty_cycle(TExchngToPC::TParamHandle*) from lev_gauge_to_pc.o(i._ZN11TExchngToPC17rx_set_duty_cycleEPNS_12TParamHandleE) referenced from lev_gauge_to_pc.o(.constdata)
 * TExchngToPC::tx_set_duty_cycle(TExchngToPC::TParamHandle*) from lev_gauge_to_pc.o(i._ZN11TExchngToPC17tx_set_duty_cycleEPNS_12TParamHandleE) referenced from lev_gauge_to_pc.o(.constdata)
 * TExchngToPC::tx_adc(TExchngToPC::TParamHandle*) from lev_gauge_to_pc.o(i._ZN11TExchngToPC6tx_adcEPNS_12TParamHandleE) referenced from lev_gauge_to_pc.o(.constdata)
 * TExchngToPC::tx_test(TExchngToPC::TParamHandle*) from lev_gauge_to_pc.o(i._ZN11TExchngToPC7tx_testEPNS_12TParamHandleE) referenced from lev_gauge_to_pc.o(.constdata)
 * TExchngToPC::~TExchngToPC() from lev_gauge_to_pc.o(i._ZN11TExchngToPCD1Ev) referenced from lev_gauge_to_pc.o(i.__sti___19_lev_gauge_to_pc_cpp_UIF)
 * [local to hard_config_cpp]::LL_AHB2_GRP1_EnableClock(unsigned) from hard_config.o(i._ZN35_INTERNAL_15_hard_config_cpp_Pot_HW24LL_AHB2_GRP1_EnableClockEj) referenced 54 times from hard_config.o(.data)
 * [local to hard_config_cpp]::LL_APB1_GRP1_EnableClock(unsigned) from hard_config.o(i._ZN35_INTERNAL_15_hard_config_cpp_Pot_HW24LL_APB1_GRP1_EnableClockEj) referenced 2 times from hard_config.o(.data)
 * [local to hard_config_cpp]::LL_APB2_GRP1_EnableClock(unsigned) from hard_config.o(i._ZN35_INTERNAL_15_hard_config_cpp_Pot_HW24LL_APB2_GRP1_EnableClockEj) referenced 10 times from hard_config.o(.data)
 * [local to hard_config_cpp]::LL_RCC_SetADCClockSource(unsigned) from hard_config.o(i._ZN35_INTERNAL_15_hard_config_cpp_Pot_HW24LL_RCC_SetADCClockSourceEj) referenced 2 times from hard_config.o(.data)
 * TLed::~TLed() from led.o(i._ZN4TLedD1Ev) referenced from led.o(i.__sti___7_Led_cpp_Led)
 * TFlash::~TFlash() from flash_driver.o(i._ZN6TFlashD1Ev) referenced from flash_driver.o(i.__sti___16_Flash_driver_cpp_d50a58b4)
 * TModel::get_psw_admin() from model.o(i._ZN6TModel13get_psw_adminEv) referenced from model.o(.constdata)
 * TModel::get_psw_super() from model.o(i._ZN6TModel13get_psw_superEv) referenced from model.o(.constdata)
 * TModel::handler_calib(short, bool*) from model.o(i._ZN6TModel13handler_calibEsPb) referenced from model.o(.constdata)
 * TModel::handler_access(short, bool*) from model.o(i._ZN6TModel14handler_accessEsPb) referenced from model.o(.constdata)
 * TModel::~TModel() from model.o(i._ZN6TModelD1Ev) referenced from model.o(i.__sti___9_model_cpp_Model)
 * TButton::~TButton() from button.o(i._ZN7TButtonD1Ev) referenced from button.o(i.__sti___10_Button_cpp_Btn)
 * T_AD8402::sdi_clr() from ad8402.o(i._ZN8T_AD84027sdi_clrEv) referenced from ad8402.o(.constdata)
 * T_AD8402::sdi_set() from ad8402.o(i._ZN8T_AD84027sdi_setEv) referenced from ad8402.o(.constdata)
 * T_AD8402::~T_AD8402() from ad8402.o(i._ZN8T_AD8402D1Ev) referenced from ad8402.o(i.__sti___10_AD8402_cpp_AD8402)
 * TSettings::~TSettings() from settings.o(i._ZN9TSettingsD1Ev) referenced from settings.o(i.__sti___12_settings_cpp_Settings)
 * TSettings::chk_access(short) const from settings.o(i._ZNK9TSettings10chk_accessEs) referenced from model.o(.constdata)
 * TSettings::chk_calib(short) const from settings.o(i._ZNK9TSettings9chk_calibEs) referenced from model.o(.constdata)
 * __main from entry.o(.ARM.Collect$$$$00000000) referenced from startup_stm32l431xx.o(.text)
 * __sti___10_AD8402_cpp_AD8402 from ad8402.o(i.__sti___10_AD8402_cpp_AD8402) referenced from ad8402.o(.init_array)
 * __sti___10_Button_cpp_Btn from button.o(i.__sti___10_Button_cpp_Btn) referenced from button.o(.init_array)
 * __sti___12_settings_cpp_Settings from settings.o(i.__sti___12_settings_cpp_Settings) referenced from settings.o(.init_array)
 * __sti___16_Flash_driver_cpp_d50a58b4 from flash_driver.o(i.__sti___16_Flash_driver_cpp_d50a58b4) referenced from flash_driver.o(.init_array)
 * __sti___19_lev_gauge_to_pc_cpp_UIF from lev_gauge_to_pc.o(i.__sti___19_lev_gauge_to_pc_cpp_UIF) referenced from lev_gauge_to_pc.o(.init_array)
 * __sti___7_Led_cpp_Led from led.o(i.__sti___7_Led_cpp_Led) referenced from led.o(.init_array)
 * __sti___8_main_cpp_63965102 from main.o(i.__sti___8_main_cpp_63965102) referenced from main.o(.init_array)
 * __sti___9_model_cpp_Model from model.o(i.__sti___9_model_cpp_Model) referenced from model.o(.init_array)
 * main from main.o(i.main) referenced from entry9a.o(.ARM.Collect$$$$0000000B)
 * prvIdleTask from tasks.o(i.prvIdleTask) referenced from tasks.o(i.vTaskStartScheduler)
 * prvTaskExitError from port.o(i.prvTaskExitError) referenced from port.o(i.pxPortInitialiseStack)
 * prvTimerTask from timers.o(i.prvTimerTask) referenced from timers.o(i.xTimerCreateTimerTask)

==============================================================================

Image Symbol Table

    Local Symbols

    Symbol Name                              Value     Ov Type        Size  Object(Section)

    ../clib/../cmprslib/zerorunl2.c          0x00000000   Number         0  __dczerorl2.o ABSOLUTE
    ../clib/microlib/cpp/cpp_dtor.c          0x00000000   Number         0  cpp_dtor.o ABSOLUTE
    ../clib/microlib/cpp/cpp_final.c         0x00000000   Number         0  cpp_final.o ABSOLUTE
    ../clib/microlib/cpp/cpp_init.c          0x00000000   Number         0  cpp_init.o ABSOLUTE
    ../clib/microlib/cpp/cpp_init.c          0x00000000   Number         0  cpp_init.o ABSOLUTE
    ../clib/microlib/init/entry.s            0x00000000   Number         0  entry.o ABSOLUTE
    ../clib/microlib/init/entry.s            0x00000000   Number         0  entry2.o ABSOLUTE
    ../clib/microlib/init/entry.s            0x00000000   Number         0  entry8b.o ABSOLUTE
    ../clib/microlib/init/entry.s            0x00000000   Number         0  entry9b.o ABSOLUTE
    ../clib/microlib/init/entry.s            0x00000000   Number         0  entry5.o ABSOLUTE
    ../clib/microlib/init/entry.s            0x00000000   Number         0  entry7a.o ABSOLUTE
    ../clib/microlib/init/entry.s            0x00000000   Number         0  entry11b.o ABSOLUTE
    ../clib/microlib/init/entry.s            0x00000000   Number         0  entry11a.o ABSOLUTE
    ../clib/microlib/init/entry.s            0x00000000   Number         0  entry10b.o ABSOLUTE
    ../clib/microlib/init/entry.s            0x00000000   Number         0  entry10a.o ABSOLUTE
    ../clib/microlib/init/entry.s            0x00000000   Number         0  entry9a.o ABSOLUTE
    ../clib/microlib/init/entry.s            0x00000000   Number         0  entry8a.o ABSOLUTE
    ../clib/microlib/init/entry.s            0x00000000   Number         0  entry7b.o ABSOLUTE
    ../clib/microlib/malloc/malloc.c         0x00000000   Number         0  mallocra.o ABSOLUTE
    ../clib/microlib/malloc/malloc.c         0x00000000   Number         0  malloca.o ABSOLUTE
    ../clib/microlib/malloc/malloc.c         0x00000000   Number         0  mallocr.o ABSOLUTE
    ../clib/microlib/malloc/malloc.c         0x00000000   Number         0  malloc.o ABSOLUTE
    ../clib/microlib/malloc/mvars.c          0x00000000   Number         0  mvars.o ABSOLUTE
    ../clib/microlib/string/memcpy.c         0x00000000   Number         0  memcpyb.o ABSOLUTE
    ../clib/microlib/string/memcpy.c         0x00000000   Number         0  memcpya.o ABSOLUTE
    ../clib/microlib/string/memset.c         0x00000000   Number         0  memseta.o ABSOLUTE
    ../clib/stdlib.c                         0x00000000   Number         0  cxa_finalize.o ABSOLUTE
    ../clib/stdlib.c                         0x00000000   Number         0  aeabi_atexit.o ABSOLUTE
    STM32L4 Low Layer drivers\\src\\stm32l4xx_ll_exti.c 0x00000000   Number         0  stm32l4xx_ll_exti.o ABSOLUTE
    STM32L4 Low Layer drivers\\src\\stm32l4xx_ll_gpio.c 0x00000000   Number         0  stm32l4xx_ll_gpio.o ABSOLUTE
    STM32L4 Low Layer drivers\\src\\stm32l4xx_ll_i2c.c 0x00000000   Number         0  stm32l4xx_ll_i2c.o ABSOLUTE
    STM32L4 Low Layer drivers\\src\\stm32l4xx_ll_rcc.c 0x00000000   Number         0  stm32l4xx_ll_rcc.o ABSOLUTE
    STM32L4 Low Layer drivers\\src\\stm32l4xx_ll_spi.c 0x00000000   Number         0  stm32l4xx_ll_spi.o ABSOLUTE
    STM32L4 Low Layer drivers\\src\\stm32l4xx_ll_tim.c 0x00000000   Number         0  stm32l4xx_ll_tim.o ABSOLUTE
    STM32L4 Low Layer drivers\\src\\stm32l4xx_ll_usart.c 0x00000000   Number         0  stm32l4xx_ll_usart.o ABSOLUTE
    STM32L4 Low Layer drivers\\src\\stm32l4xx_ll_utils.c 0x00000000   Number         0  stm32l4xx_ll_utils.o ABSOLUTE
    STM32L4 Low Layer drivers\src\stm32l4xx_ll_exti.c 0x00000000   Number         0  stm32l4xx_ll_exti.o ABSOLUTE
    STM32L4 Low Layer drivers\src\stm32l4xx_ll_gpio.c 0x00000000   Number         0  stm32l4xx_ll_gpio.o ABSOLUTE
    STM32L4 Low Layer drivers\src\stm32l4xx_ll_i2c.c 0x00000000   Number         0  stm32l4xx_ll_i2c.o ABSOLUTE
    STM32L4 Low Layer drivers\src\stm32l4xx_ll_rcc.c 0x00000000   Number         0  stm32l4xx_ll_rcc.o ABSOLUTE
    STM32L4 Low Layer drivers\src\stm32l4xx_ll_spi.c 0x00000000   Number         0  stm32l4xx_ll_spi.o ABSOLUTE
    STM32L4 Low Layer drivers\src\stm32l4xx_ll_tim.c 0x00000000   Number         0  stm32l4xx_ll_tim.o ABSOLUTE
    STM32L4 Low Layer drivers\src\stm32l4xx_ll_usart.c 0x00000000   Number         0  stm32l4xx_ll_usart.o ABSOLUTE
    STM32L4 Low Layer drivers\src\stm32l4xx_ll_utils.c 0x00000000   Number         0  stm32l4xx_ll_utils.o ABSOLUTE
    Source\Core\src\system_stm32l4xx.c       0x00000000   Number         0  system_stm32l4xx.o ABSOLUTE
    Source\Ext_Dev\src\AD8402.cpp            0x00000000   Number         0  ad8402.o ABSOLUTE
    Source\Ext_Dev\src\Button.cpp            0x00000000   Number         0  button.o ABSOLUTE
    Source\Ext_Dev\src\Led.cpp               0x00000000   Number         0  led.o ABSOLUTE
    Source\Ext_Dev\src\RS-485_phy.cpp        0x00000000   Number         0  rs-485_phy.o ABSOLUTE
    Source\Ext_Dev\src\Relay.cpp             0x00000000   Number         0  relay.o ABSOLUTE
    Source\MCU_Drivers\src\Flash_driver.cpp  0x00000000   Number         0  flash_driver.o ABSOLUTE
    Source\MCU_Drivers\src\I2C_driver.cpp    0x00000000   Number         0  i2c_driver.o ABSOLUTE
    Source\MCU_Drivers\src\Interface.cpp     0x00000000   Number         0  interface.o ABSOLUTE
    Source\MCU_Drivers\src\SPI_dirver.cpp    0x00000000   Number         0  spi_dirver.o ABSOLUTE
    Source\MCU_Drivers\src\old_flash_lib.cpp 0x00000000   Number         0  old_flash_lib.o ABSOLUTE
    Source\MCU_Drivers\src\usart_driver_.cpp 0x00000000   Number         0  usart_driver_.o ABSOLUTE
    Source\Main\src\hard_config.cpp          0x00000000   Number         0  hard_config.o ABSOLUTE
    Source\Main\src\main.cpp                 0x00000000   Number         0  main.o ABSOLUTE
    Source\Main\src\model.cpp                0x00000000   Number         0  model.o ABSOLUTE
    Source\Protocols\src\ext_master.cpp      0x00000000   Number         0  ext_master.o ABSOLUTE
    Source\RTOS\src\heap_2.c                 0x00000000   Number         0  heap_2.o ABSOLUTE
    Source\RTOS\src\list.c                   0x00000000   Number         0  list.o ABSOLUTE
    Source\RTOS\src\port.c                   0x00000000   Number         0  port.o ABSOLUTE
    Source\RTOS\src\queue.c                  0x00000000   Number         0  queue.o ABSOLUTE
    Source\RTOS\src\tasks.c                  0x00000000   Number         0  tasks.o ABSOLUTE
    Source\RTOS\src\timers.c                 0x00000000   Number         0  timers.o ABSOLUTE
    Source\Tasks\src\lev_gauge_to_pc.cpp     0x00000000   Number         0  lev_gauge_to_pc.o ABSOLUTE
    Source\Tasks\src\settings.cpp            0x00000000   Number         0  settings.o ABSOLUTE
    Source\\Core\\src\\startup_stm32l431xx.s 0x00000000   Number         0  startup_stm32l431xx.o ABSOLUTE
    Source\\Core\\src\\system_stm32l4xx.c    0x00000000   Number         0  system_stm32l4xx.o ABSOLUTE
    Source\\Ext_Dev\\src\\AD8402.cpp         0x00000000   Number         0  ad8402.o ABSOLUTE
    Source\\Ext_Dev\\src\\Button.cpp         0x00000000   Number         0  button.o ABSOLUTE
    Source\\Ext_Dev\\src\\Led.cpp            0x00000000   Number         0  led.o ABSOLUTE
    Source\\Ext_Dev\\src\\Relay.cpp          0x00000000   Number         0  relay.o ABSOLUTE
    Source\\MCU_Drivers\\src\\Flash_driver.cpp 0x00000000   Number         0  flash_driver.o ABSOLUTE
    Source\\MCU_Drivers\\src\\I2C_driver.cpp 0x00000000   Number         0  i2c_driver.o ABSOLUTE
    Source\\MCU_Drivers\\src\\SPI_dirver.cpp 0x00000000   Number         0  spi_dirver.o ABSOLUTE
    Source\\MCU_Drivers\\src\\old_flash_lib.cpp 0x00000000   Number         0  old_flash_lib.o ABSOLUTE
    Source\\MCU_Drivers\\src\\usart_driver_.cpp 0x00000000   Number         0  usart_driver_.o ABSOLUTE
    Source\\Main\\src\\hard_config.cpp       0x00000000   Number         0  hard_config.o ABSOLUTE
    Source\\Main\\src\\main.cpp              0x00000000   Number         0  main.o ABSOLUTE
    Source\\Main\\src\\model.cpp             0x00000000   Number         0  model.o ABSOLUTE
    Source\\Protocols\\src\\ext_master.cpp   0x00000000   Number         0  ext_master.o ABSOLUTE
    Source\\RTOS\\src\\port.c                0x00000000   Number         0  port.o ABSOLUTE
    Source\\Tasks\\src\\lev_gauge_to_pc.cpp  0x00000000   Number         0  lev_gauge_to_pc.o ABSOLUTE
    Source\\Tasks\\src\\settings.cpp         0x00000000   Number         0  settings.o ABSOLUTE
    dc.s                                     0x00000000   Number         0  dc.o ABSOLUTE
    handlers.s                               0x00000000   Number         0  handlers.o ABSOLUTE
    init.s                                   0x00000000   Number         0  init.o ABSOLUTE
    RESET                                    0x08000000   Section      396  startup_stm32l431xx.o(RESET)
    .ARM.Collect$$$$00000000                 0x0800018c   Section        0  entry.o(.ARM.Collect$$$$00000000)
    .ARM.Collect$$$$00000001                 0x0800018c   Section        4  entry2.o(.ARM.Collect$$$$00000001)
    .ARM.Collect$$$$00000004                 0x08000190   Section        4  entry5.o(.ARM.Collect$$$$00000004)
    .ARM.Collect$$$$00000008                 0x08000194   Section        0  entry7b.o(.ARM.Collect$$$$00000008)
    .ARM.Collect$$$$00000009                 0x08000194   Section        4  entry8a.o(.ARM.Collect$$$$00000009)
    .ARM.Collect$$$$0000000A                 0x08000198   Section        0  entry8b.o(.ARM.Collect$$$$0000000A)
    .ARM.Collect$$$$0000000B                 0x08000198   Section        8  entry9a.o(.ARM.Collect$$$$0000000B)
    .ARM.Collect$$$$0000000D                 0x080001a0   Section        0  entry10a.o(.ARM.Collect$$$$0000000D)
    .ARM.Collect$$$$0000000E                 0x080001a0   Section        4  entry10b.o(.ARM.Collect$$$$0000000E)
    .ARM.Collect$$$$0000000F                 0x080001a4   Section        0  entry11a.o(.ARM.Collect$$$$0000000F)
    .ARM.Collect$$$$00002712                 0x080001a4   Section        4  entry2.o(.ARM.Collect$$$$00002712)
    __lit__00000000                          0x080001a4   Data           4  entry2.o(.ARM.Collect$$$$00002712)
    .emb_text                                0x080001a8   Section      190  port.o(.emb_text)
    $v0                                      0x080001a8   Number         0  port.o(.emb_text)
    .text                                    0x08000288   Section       36  startup_stm32l431xx.o(.text)
    $v0                                      0x08000288   Number         0  startup_stm32l431xx.o(.text)
    .text                                    0x080002ac   Section        0  memcpya.o(.text)
    .text                                    0x080002d0   Section        0  memseta.o(.text)
    .text                                    0x080002f4   Section        0  cpp_init.o(.text)
    .text                                    0x08000314   Section        0  aeabi_atexit.o(.text)
    .text                                    0x08000344   Section        0  cpp_dtor.o(.text)
    .text                                    0x0800034c   Section        0  cxa_finalize.o(.text)
    .text                                    0x08000390   Section       36  init.o(.text)
    .text                                    0x080003b4   Section        0  cpp_final.o(.text)
    .text                                    0x080003b6   Section        0  __dczerorl2.o(.text)
    i.EXTI15_10_IRQHandler                   0x0800040c   Section        0  lev_gauge_to_pc.o(i.EXTI15_10_IRQHandler)
    i.FLASH_IRQHandler                       0x08000474   Section        0  flash_driver.o(i.FLASH_IRQHandler)
    i.I2C1_ER_IRQHandler                     0x08000484   Section        0  i2c_driver.o(i.I2C1_ER_IRQHandler)
    i.I2C1_EV_IRQHandler                     0x08000488   Section        0  i2c_driver.o(i.I2C1_EV_IRQHandler)
    i.I2C2_ER_IRQHandler                     0x080004e0   Section        0  i2c_driver.o(i.I2C2_ER_IRQHandler)
    i.I2C2_EV_IRQHandler                     0x080004e2   Section        0  i2c_driver.o(i.I2C2_EV_IRQHandler)
    i.LL_EXTI_DeInit                         0x080004e4   Section        0  stm32l4xx_ll_exti.o(i.LL_EXTI_DeInit)
    i.LL_EXTI_DisableEvent_0_31              0x08000530   Section        0  stm32l4xx_ll_exti.o(i.LL_EXTI_DisableEvent_0_31)
    LL_EXTI_DisableEvent_0_31                0x08000531   Thumb Code    12  stm32l4xx_ll_exti.o(i.LL_EXTI_DisableEvent_0_31)
    i.LL_EXTI_DisableEvent_32_63             0x08000540   Section        0  stm32l4xx_ll_exti.o(i.LL_EXTI_DisableEvent_32_63)
    LL_EXTI_DisableEvent_32_63               0x08000541   Thumb Code    12  stm32l4xx_ll_exti.o(i.LL_EXTI_DisableEvent_32_63)
    i.LL_EXTI_DisableIT_0_31                 0x08000550   Section        0  stm32l4xx_ll_exti.o(i.LL_EXTI_DisableIT_0_31)
    LL_EXTI_DisableIT_0_31                   0x08000551   Thumb Code    12  stm32l4xx_ll_exti.o(i.LL_EXTI_DisableIT_0_31)
    i.LL_EXTI_DisableIT_32_63                0x08000560   Section        0  stm32l4xx_ll_exti.o(i.LL_EXTI_DisableIT_32_63)
    LL_EXTI_DisableIT_32_63                  0x08000561   Thumb Code    12  stm32l4xx_ll_exti.o(i.LL_EXTI_DisableIT_32_63)
    i.LL_EXTI_EnableEvent_0_31               0x08000570   Section        0  stm32l4xx_ll_exti.o(i.LL_EXTI_EnableEvent_0_31)
    LL_EXTI_EnableEvent_0_31                 0x08000571   Thumb Code    12  stm32l4xx_ll_exti.o(i.LL_EXTI_EnableEvent_0_31)
    i.LL_EXTI_EnableEvent_32_63              0x08000580   Section        0  stm32l4xx_ll_exti.o(i.LL_EXTI_EnableEvent_32_63)
    LL_EXTI_EnableEvent_32_63                0x08000581   Thumb Code    12  stm32l4xx_ll_exti.o(i.LL_EXTI_EnableEvent_32_63)
    i.LL_EXTI_EnableFallingTrig_0_31         0x08000590   Section        0  stm32l4xx_ll_exti.o(i.LL_EXTI_EnableFallingTrig_0_31)
    LL_EXTI_EnableFallingTrig_0_31           0x08000591   Thumb Code    12  stm32l4xx_ll_exti.o(i.LL_EXTI_EnableFallingTrig_0_31)
    i.LL_EXTI_EnableFallingTrig_32_63        0x080005a0   Section        0  stm32l4xx_ll_exti.o(i.LL_EXTI_EnableFallingTrig_32_63)
    LL_EXTI_EnableFallingTrig_32_63          0x080005a1   Thumb Code    12  stm32l4xx_ll_exti.o(i.LL_EXTI_EnableFallingTrig_32_63)
    i.LL_EXTI_EnableIT_0_31                  0x080005b0   Section        0  stm32l4xx_ll_exti.o(i.LL_EXTI_EnableIT_0_31)
    LL_EXTI_EnableIT_0_31                    0x080005b1   Thumb Code    12  stm32l4xx_ll_exti.o(i.LL_EXTI_EnableIT_0_31)
    i.LL_EXTI_EnableIT_32_63                 0x080005c0   Section        0  stm32l4xx_ll_exti.o(i.LL_EXTI_EnableIT_32_63)
    LL_EXTI_EnableIT_32_63                   0x080005c1   Thumb Code    12  stm32l4xx_ll_exti.o(i.LL_EXTI_EnableIT_32_63)
    i.LL_EXTI_EnableRisingTrig_0_31          0x080005d0   Section        0  stm32l4xx_ll_exti.o(i.LL_EXTI_EnableRisingTrig_0_31)
    LL_EXTI_EnableRisingTrig_0_31            0x080005d1   Thumb Code    12  stm32l4xx_ll_exti.o(i.LL_EXTI_EnableRisingTrig_0_31)
    i.LL_EXTI_EnableRisingTrig_32_63         0x080005e0   Section        0  stm32l4xx_ll_exti.o(i.LL_EXTI_EnableRisingTrig_32_63)
    LL_EXTI_EnableRisingTrig_32_63           0x080005e1   Thumb Code    12  stm32l4xx_ll_exti.o(i.LL_EXTI_EnableRisingTrig_32_63)
    i.LL_EXTI_Init                           0x080005f0   Section        0  stm32l4xx_ll_exti.o(i.LL_EXTI_Init)
    i.LL_GPIO_Init                           0x0800075c   Section        0  stm32l4xx_ll_gpio.o(i.LL_GPIO_Init)
    i.LL_Init1msTick                         0x080008a0   Section        0  stm32l4xx_ll_utils.o(i.LL_Init1msTick)
    i.LL_RCC_GetSystemClocksFreq             0x080008bc   Section        0  stm32l4xx_ll_rcc.o(i.LL_RCC_GetSystemClocksFreq)
    i.LL_RCC_GetUSARTClockFreq               0x080008e0   Section        0  stm32l4xx_ll_rcc.o(i.LL_RCC_GetUSARTClockFreq)
    i.LL_RCC_GetUSARTClockSource             0x080009fc   Section        0  stm32l4xx_ll_rcc.o(i.LL_RCC_GetUSARTClockSource)
    LL_RCC_GetUSARTClockSource               0x080009fd   Thumb Code    14  stm32l4xx_ll_rcc.o(i.LL_RCC_GetUSARTClockSource)
    i.LL_RCC_HSI_IsReady                     0x08000a10   Section        0  stm32l4xx_ll_rcc.o(i.LL_RCC_HSI_IsReady)
    LL_RCC_HSI_IsReady                       0x08000a11   Thumb Code    10  stm32l4xx_ll_rcc.o(i.LL_RCC_HSI_IsReady)
    i.LL_RCC_LSE_IsReady                     0x08000a20   Section        0  stm32l4xx_ll_rcc.o(i.LL_RCC_LSE_IsReady)
    LL_RCC_LSE_IsReady                       0x08000a21   Thumb Code    10  stm32l4xx_ll_rcc.o(i.LL_RCC_LSE_IsReady)
    i.LL_RCC_MSI_GetRange                    0x08000a30   Section        0  stm32l4xx_ll_rcc.o(i.LL_RCC_MSI_GetRange)
    LL_RCC_MSI_GetRange                      0x08000a31   Thumb Code    10  stm32l4xx_ll_rcc.o(i.LL_RCC_MSI_GetRange)
    i.LL_RCC_MSI_GetRangeAfterStandby        0x08000a40   Section        0  stm32l4xx_ll_rcc.o(i.LL_RCC_MSI_GetRangeAfterStandby)
    LL_RCC_MSI_GetRangeAfterStandby          0x08000a41   Thumb Code    10  stm32l4xx_ll_rcc.o(i.LL_RCC_MSI_GetRangeAfterStandby)
    i.LL_RCC_MSI_IsEnabledRangeSelect        0x08000a50   Section        0  stm32l4xx_ll_rcc.o(i.LL_RCC_MSI_IsEnabledRangeSelect)
    LL_RCC_MSI_IsEnabledRangeSelect          0x08000a51   Thumb Code    10  stm32l4xx_ll_rcc.o(i.LL_RCC_MSI_IsEnabledRangeSelect)
    i.LL_RCC_PLL_GetDivider                  0x08000a60   Section        0  stm32l4xx_ll_rcc.o(i.LL_RCC_PLL_GetDivider)
    LL_RCC_PLL_GetDivider                    0x08000a61   Thumb Code    10  stm32l4xx_ll_rcc.o(i.LL_RCC_PLL_GetDivider)
    i.LL_RCC_PLL_GetMainSource               0x08000a70   Section        0  stm32l4xx_ll_rcc.o(i.LL_RCC_PLL_GetMainSource)
    LL_RCC_PLL_GetMainSource                 0x08000a71   Thumb Code    10  stm32l4xx_ll_rcc.o(i.LL_RCC_PLL_GetMainSource)
    i.LL_RCC_PLL_GetN                        0x08000a80   Section        0  stm32l4xx_ll_rcc.o(i.LL_RCC_PLL_GetN)
    LL_RCC_PLL_GetN                          0x08000a81   Thumb Code    10  stm32l4xx_ll_rcc.o(i.LL_RCC_PLL_GetN)
    i.LL_SetSystemCoreClock                  0x08000a90   Section        0  stm32l4xx_ll_utils.o(i.LL_SetSystemCoreClock)
    i.LL_TIM_Init                            0x08000a9c   Section        0  stm32l4xx_ll_tim.o(i.LL_TIM_Init)
    i.LL_USART_Init                          0x08000b20   Section        0  stm32l4xx_ll_usart.o(i.LL_USART_Init)
    i.LL_USART_IsEnabled                     0x08000c00   Section        0  stm32l4xx_ll_usart.o(i.LL_USART_IsEnabled)
    LL_USART_IsEnabled                       0x08000c01   Thumb Code    10  stm32l4xx_ll_usart.o(i.LL_USART_IsEnabled)
    i.RCC_GetHCLKClockFreq                   0x08000c0c   Section        0  stm32l4xx_ll_rcc.o(i.RCC_GetHCLKClockFreq)
    i.RCC_GetPCLK1ClockFreq                  0x08000c2c   Section        0  stm32l4xx_ll_rcc.o(i.RCC_GetPCLK1ClockFreq)
    i.RCC_GetPCLK2ClockFreq                  0x08000c50   Section        0  stm32l4xx_ll_rcc.o(i.RCC_GetPCLK2ClockFreq)
    i.RCC_GetSystemClockFreq                 0x08000c74   Section        0  stm32l4xx_ll_rcc.o(i.RCC_GetSystemClockFreq)
    i.RCC_PLL_GetFreqDomain_SYS              0x08000d30   Section        0  stm32l4xx_ll_rcc.o(i.RCC_PLL_GetFreqDomain_SYS)
    i.SysTick_Handler                        0x08000e08   Section        0  port.o(i.SysTick_Handler)
    i.SystemInit                             0x08000e3c   Section        0  system_stm32l4xx.o(i.SystemInit)
    i.TIM1_BRK_TIM15_IRQHandler              0x08000e8c   Section        0  lev_gauge_to_pc.o(i.TIM1_BRK_TIM15_IRQHandler)
    i.TIM6_DAC_IRQHandler                    0x08000f04   Section        0  flash_driver.o(i.TIM6_DAC_IRQHandler)
    i._Z10FLASH_Lockv                        0x08000f3c   Section        0  old_flash_lib.o(i._Z10FLASH_Lockv)
    i._Z11cfg_sys_clkv                       0x08000f50   Section        0  main.o(i._Z11cfg_sys_clkv)
    i._Z12FLASH_Unlockv                      0x080011a4   Section        0  old_flash_lib.o(i._Z12FLASH_Unlockv)
    i._Z15FLASH_GetStatusv                   0x080011c8   Section        0  old_flash_lib.o(i._Z15FLASH_GetStatusv)
    i._Z15lev_gauge_to_pcPv                  0x08001200   Section        0  lev_gauge_to_pc.o(i._Z15lev_gauge_to_pcPv)
    i._ZN10TExtMaster10all_pkt_txEPKht       0x08001308   Section        0  ext_master.o(i._ZN10TExtMaster10all_pkt_txEPKht)
    i._ZN10TExtMaster10no_wrap_txEPKht       0x08001340   Section        0  ext_master.o(i._ZN10TExtMaster10no_wrap_txEPKht)
    i._ZN10TExtMaster13start_wrap_txEPKht    0x08001346   Section        0  ext_master.o(i._ZN10TExtMaster13start_wrap_txEPKht)
    i._ZN10TExtMaster14finish_wrap_txEPKht   0x08001374   Section        0  ext_master.o(i._ZN10TExtMaster14finish_wrap_txEPKht)
    i._ZN10TExtMaster7tx_dataEPKhtNS_11TWrapTxSignE 0x08001380   Section        0  ext_master.o(i._ZN10TExtMaster7tx_dataEPKhtNS_11TWrapTxSignE)
    i._ZN10TExtMaster8get_dataEv             0x0800140a   Section        0  ext_master.o(i._ZN10TExtMaster8get_dataEv)
    i._ZN10TExtMaster9parse_pktEv            0x08001418   Section        0  ext_master.o(i._ZN10TExtMaster9parse_pktEv)
    i._ZN10TExtMasterC1ERK9TUsart_HW         0x08001490   Section        0  ext_master.o(i._ZN10TExtMasterC1ERK9TUsart_HW)
    i._ZN10TExtMasterD1Ev                    0x080014bc   Section        0  ext_master.o(i._ZN10TExtMasterD1Ev)
    i._ZN11TExchngToPC11rx_set_fregEPNS_12TParamHandleE 0x080014cc   Section        0  lev_gauge_to_pc.o(i._ZN11TExchngToPC11rx_set_fregEPNS_12TParamHandleE)
    i._ZN11TExchngToPC11tx_set_fregEPNS_12TParamHandleE 0x080014dc   Section        0  lev_gauge_to_pc.o(i._ZN11TExchngToPC11tx_set_fregEPNS_12TParamHandleE)
    i._ZN11TExchngToPC12rx_start_adcEPNS_12TParamHandleE 0x080014f0   Section        0  lev_gauge_to_pc.o(i._ZN11TExchngToPC12rx_start_adcEPNS_12TParamHandleE)
    i._ZN11TExchngToPC12tmr_cmp_initEv       0x080016e8   Section        0  lev_gauge_to_pc.o(i._ZN11TExchngToPC12tmr_cmp_initEv)
    i._ZN11TExchngToPC13set_diff_freqEt      0x08001792   Section        0  lev_gauge_to_pc.o(i._ZN11TExchngToPC13set_diff_freqEt)
    i._ZN11TExchngToPC13tmr_diff_initEv      0x080017a6   Section        0  lev_gauge_to_pc.o(i._ZN11TExchngToPC13tmr_diff_initEv)
    i._ZN11TExchngToPC13tmr_freg_initEv      0x08001856   Section        0  lev_gauge_to_pc.o(i._ZN11TExchngToPC13tmr_freg_initEv)
    i._ZN11TExchngToPC14init_diff_extiEj     0x08001974   Section        0  lev_gauge_to_pc.o(i._ZN11TExchngToPC14init_diff_extiEj)
    i._ZN11TExchngToPC14rx_cmp_captureEPNS_12TParamHandleE 0x08001a50   Section        0  lev_gauge_to_pc.o(i._ZN11TExchngToPC14rx_cmp_captureEPNS_12TParamHandleE)
    i._ZN11TExchngToPC14tx_cmp_captureEPNS_12TParamHandleE 0x08001ad0   Section        0  lev_gauge_to_pc.o(i._ZN11TExchngToPC14tx_cmp_captureEPNS_12TParamHandleE)
    i._ZN11TExchngToPC15rx_diff_captureEPNS_12TParamHandleE 0x08001b08   Section        0  lev_gauge_to_pc.o(i._ZN11TExchngToPC15rx_diff_captureEPNS_12TParamHandleE)
    i._ZN11TExchngToPC15tx_diff_captureEPNS_12TParamHandleE 0x08001be4   Section        0  lev_gauge_to_pc.o(i._ZN11TExchngToPC15tx_diff_captureEPNS_12TParamHandleE)
    i._ZN11TExchngToPC16deinit_diff_extiEv   0x08001c1c   Section        0  lev_gauge_to_pc.o(i._ZN11TExchngToPC16deinit_diff_extiEv)
    i._ZN11TExchngToPC16rx_set_pos_pot_1EPNS_12TParamHandleE 0x08001c28   Section        0  lev_gauge_to_pc.o(i._ZN11TExchngToPC16rx_set_pos_pot_1EPNS_12TParamHandleE)
    i._ZN11TExchngToPC16rx_set_pos_pot_2EPNS_12TParamHandleE 0x08001c70   Section        0  lev_gauge_to_pc.o(i._ZN11TExchngToPC16rx_set_pos_pot_2EPNS_12TParamHandleE)
    i._ZN11TExchngToPC16tx_set_pos_pot_1EPNS_12TParamHandleE 0x08001cb8   Section        0  lev_gauge_to_pc.o(i._ZN11TExchngToPC16tx_set_pos_pot_1EPNS_12TParamHandleE)
    i._ZN11TExchngToPC16tx_set_pos_pot_2EPNS_12TParamHandleE 0x08001ccc   Section        0  lev_gauge_to_pc.o(i._ZN11TExchngToPC16tx_set_pos_pot_2EPNS_12TParamHandleE)
    i._ZN11TExchngToPC17rx_set_duty_cycleEPNS_12TParamHandleE 0x08001ce0   Section        0  lev_gauge_to_pc.o(i._ZN11TExchngToPC17rx_set_duty_cycleEPNS_12TParamHandleE)
    i._ZN11TExchngToPC17tx_set_duty_cycleEPNS_12TParamHandleE 0x08001cf0   Section        0  lev_gauge_to_pc.o(i._ZN11TExchngToPC17tx_set_duty_cycleEPNS_12TParamHandleE)
    i._ZN11TExchngToPC19get_upd_demand_flagEv 0x08001d04   Section        0  lev_gauge_to_pc.o(i._ZN11TExchngToPC19get_upd_demand_flagEv)
    i._ZN11TExchngToPC19set_upd_demand_flagEb 0x08001d12   Section        0  lev_gauge_to_pc.o(i._ZN11TExchngToPC19set_upd_demand_flagEb)
    i._ZN11TExchngToPC5iserrEf               0x08001d1c   Section        0  lev_gauge_to_pc.o(i._ZN11TExchngToPC5iserrEf)
    i._ZN11TExchngToPC6en_adcEv              0x08001d34   Section        0  lev_gauge_to_pc.o(i._ZN11TExchngToPC6en_adcEv)
    i._ZN11TExchngToPC6tx_adcEPNS_12TParamHandleE 0x08001d6c   Section        0  lev_gauge_to_pc.o(i._ZN11TExchngToPC6tx_adcEPNS_12TParamHandleE)
    i._ZN11TExchngToPC7adc_calEv             0x08001da4   Section        0  lev_gauge_to_pc.o(i._ZN11TExchngToPC7adc_calEv)
    i._ZN11TExchngToPC7cnt_pwmEv             0x08001e1c   Section        0  lev_gauge_to_pc.o(i._ZN11TExchngToPC7cnt_pwmEv)
    i._ZN11TExchngToPC7dis_adcEv             0x08001f78   Section        0  lev_gauge_to_pc.o(i._ZN11TExchngToPC7dis_adcEv)
    i._ZN11TExchngToPC7set_pwmERKNS_4TPwmE   0x08001ff4   Section        0  lev_gauge_to_pc.o(i._ZN11TExchngToPC7set_pwmERKNS_4TPwmE)
    i._ZN11TExchngToPC7tx_testEPNS_12TParamHandleE 0x0800201a   Section        0  lev_gauge_to_pc.o(i._ZN11TExchngToPC7tx_testEPNS_12TParamHandleE)
    i._ZN11TExchngToPC8adc_initEv            0x08002030   Section        0  lev_gauge_to_pc.o(i._ZN11TExchngToPC8adc_initEv)
    i._ZN11TExchngToPC8ctrl_pwmEPNS_12TParamHandleE 0x080020c0   Section        0  lev_gauge_to_pc.o(i._ZN11TExchngToPC8ctrl_pwmEPNS_12TParamHandleE)
    i._ZN11TExchngToPC9chk_rangeEfRKNS_6TRangeE 0x08002108   Section        0  lev_gauge_to_pc.o(i._ZN11TExchngToPC9chk_rangeEfRKNS_6TRangeE)
    i._ZN11TExchngToPCC1ERK9TUsart_HWRK7TTmr_HWS5_S5_RK7TAdc_HW 0x0800214c   Section        0  lev_gauge_to_pc.o(i._ZN11TExchngToPCC1ERK9TUsart_HWRK7TTmr_HWS5_S5_RK7TAdc_HW)
    i._ZN11TExchngToPCD1Ev                   0x080021a8   Section        0  lev_gauge_to_pc.o(i._ZN11TExchngToPCD1Ev)
    i._ZN12T_RS_485_phy10get_configEv        0x080021b8   Section        0  rs-485_phy.o(i._ZN12T_RS_485_phy10get_configEv)
    i._ZN12T_RS_485_phyC1Ev                  0x080021be   Section        0  rs-485_phy.o(i._ZN12T_RS_485_phyC1Ev)
    i._ZN12T_RS_485_phyD1Ev                  0x080021c6   Section        0  rs-485_phy.o(i._ZN12T_RS_485_phyD1Ev)
    i._ZN23_INTERNAL_7_Led_cpp_Led22LL_GPIO_ResetOutputPinEP12GPIO_TypeDefj 0x080021c8   Section        0  led.o(i._ZN23_INTERNAL_7_Led_cpp_Led22LL_GPIO_ResetOutputPinEP12GPIO_TypeDefj)
    [local to Led_cpp]::LL_GPIO_ResetOutputPin(GPIO_TypeDef*, unsigned) 0x080021c9   Thumb Code     4  led.o(i._ZN23_INTERNAL_7_Led_cpp_Led22LL_GPIO_ResetOutputPinEP12GPIO_TypeDefj)
    i._ZN29_INTERNAL_8_main_cpp_6396510212create_tasksEv 0x080021cc   Section        0  main.o(i._ZN29_INTERNAL_8_main_cpp_6396510212create_tasksEv)
    [local to main_cpp]::create_tasks()      0x080021cd   Thumb Code    44  main.o(i._ZN29_INTERNAL_8_main_cpp_6396510212create_tasksEv)
    i._ZN29_INTERNAL_8_main_cpp_6396510212init_mx_gpioEv 0x08002210   Section        0  main.o(i._ZN29_INTERNAL_8_main_cpp_6396510212init_mx_gpioEv)
    [local to main_cpp]::init_mx_gpio()      0x08002211   Thumb Code    80  main.o(i._ZN29_INTERNAL_8_main_cpp_6396510212init_mx_gpioEv)
    i._ZN29_INTERNAL_8_main_cpp_6396510213create_timersEv 0x08002264   Section        0  main.o(i._ZN29_INTERNAL_8_main_cpp_6396510213create_timersEv)
    [local to main_cpp]::create_timers()     0x08002265   Thumb Code     2  main.o(i._ZN29_INTERNAL_8_main_cpp_6396510213create_timersEv)
    i._ZN29_INTERNAL_8_main_cpp_6396510214create_mutexesEv 0x08002268   Section        0  main.o(i._ZN29_INTERNAL_8_main_cpp_6396510214create_mutexesEv)
    [local to main_cpp]::create_mutexes()    0x08002269   Thumb Code    40  main.o(i._ZN29_INTERNAL_8_main_cpp_6396510214create_mutexesEv)
    i._ZN29_INTERNAL_8_main_cpp_6396510214create_semphrsEv 0x08002298   Section        0  main.o(i._ZN29_INTERNAL_8_main_cpp_6396510214create_semphrsEv)
    [local to main_cpp]::create_semphrs()    0x08002299   Thumb Code   304  main.o(i._ZN29_INTERNAL_8_main_cpp_6396510214create_semphrsEv)
    i._ZN29_INTERNAL_8_main_cpp_6396510216NVIC_SetPriorityE9IRQn_Typej 0x08002404   Section        0  main.o(i._ZN29_INTERNAL_8_main_cpp_6396510216NVIC_SetPriorityE9IRQn_Typej)
    [local to main_cpp]::NVIC_SetPriority(IRQn_Type, unsigned) 0x08002405   Thumb Code    32  main.o(i._ZN29_INTERNAL_8_main_cpp_6396510216NVIC_SetPriorityE9IRQn_Typej)
    i._ZN29_INTERNAL_8_main_cpp_6396510217check_create_taskEl 0x0800242c   Section        0  main.o(i._ZN29_INTERNAL_8_main_cpp_6396510217check_create_taskEl)
    [local to main_cpp]::check_create_task(long) 0x0800242d   Thumb Code     2  main.o(i._ZN29_INTERNAL_8_main_cpp_6396510217check_create_taskEl)
    i._ZN29_INTERNAL_8_main_cpp_6396510218LL_RCC_MSI_IsReadyEv 0x08002430   Section        0  main.o(i._ZN29_INTERNAL_8_main_cpp_6396510218LL_RCC_MSI_IsReadyEv)
    [local to main_cpp]::LL_RCC_MSI_IsReady() 0x08002431   Thumb Code    10  main.o(i._ZN29_INTERNAL_8_main_cpp_6396510218LL_RCC_MSI_IsReadyEv)
    i._ZN29_INTERNAL_8_main_cpp_6396510218check_create_mutexEPv 0x08002440   Section        0  main.o(i._ZN29_INTERNAL_8_main_cpp_6396510218check_create_mutexEPv)
    [local to main_cpp]::check_create_mutex(void*) 0x08002441   Thumb Code     2  main.o(i._ZN29_INTERNAL_8_main_cpp_6396510218check_create_mutexEPv)
    i._ZN29_INTERNAL_8_main_cpp_6396510219NVIC_EncodePriorityEjjj 0x08002442   Section        0  main.o(i._ZN29_INTERNAL_8_main_cpp_6396510219NVIC_EncodePriorityEjjj)
    [local to main_cpp]::NVIC_EncodePriority(unsigned, unsigned, unsigned) 0x08002443   Thumb Code    64  main.o(i._ZN29_INTERNAL_8_main_cpp_6396510219NVIC_EncodePriorityEjjj)
    i._ZN29_INTERNAL_8_main_cpp_6396510219check_create_semphrEPv 0x08002482   Section        0  main.o(i._ZN29_INTERNAL_8_main_cpp_6396510219check_create_semphrEPv)
    [local to main_cpp]::check_create_semphr(void*) 0x08002483   Thumb Code     2  main.o(i._ZN29_INTERNAL_8_main_cpp_6396510219check_create_semphrEPv)
    i._ZN29_INTERNAL_8_main_cpp_6396510224NVIC_GetPriorityGroupingEv 0x08002484   Section        0  main.o(i._ZN29_INTERNAL_8_main_cpp_6396510224NVIC_GetPriorityGroupingEv)
    [local to main_cpp]::NVIC_GetPriorityGrouping() 0x08002485   Thumb Code    10  main.o(i._ZN29_INTERNAL_8_main_cpp_6396510224NVIC_GetPriorityGroupingEv)
    i._ZN29_INTERNAL_8_main_cpp_639651027init_llEv 0x08002494   Section        0  main.o(i._ZN29_INTERNAL_8_main_cpp_639651027init_llEv)
    [local to main_cpp]::init_ll()           0x08002495   Thumb Code   238  main.o(i._ZN29_INTERNAL_8_main_cpp_639651027init_llEv)
    i._ZN30_INTERNAL_10_AD8402_cpp_AD840220LL_GPIO_SetOutputPinEP12GPIO_TypeDefj 0x08002590   Section        0  ad8402.o(i._ZN30_INTERNAL_10_AD8402_cpp_AD840220LL_GPIO_SetOutputPinEP12GPIO_TypeDefj)
    [local to AD8402_cpp]::LL_GPIO_SetOutputPin(GPIO_TypeDef*, unsigned) 0x08002591   Thumb Code     4  ad8402.o(i._ZN30_INTERNAL_10_AD8402_cpp_AD840220LL_GPIO_SetOutputPinEP12GPIO_TypeDefj)
    i._ZN30_INTERNAL_10_AD8402_cpp_AD840222LL_GPIO_ResetOutputPinEP12GPIO_TypeDefj 0x08002594   Section        0  ad8402.o(i._ZN30_INTERNAL_10_AD8402_cpp_AD840222LL_GPIO_ResetOutputPinEP12GPIO_TypeDefj)
    [local to AD8402_cpp]::LL_GPIO_ResetOutputPin(GPIO_TypeDef*, unsigned) 0x08002595   Thumb Code     4  ad8402.o(i._ZN30_INTERNAL_10_AD8402_cpp_AD840222LL_GPIO_ResetOutputPinEP12GPIO_TypeDefj)
    i._ZN35_INTERNAL_15_hard_config_cpp_Pot_HW24LL_AHB2_GRP1_EnableClockEj 0x08002598   Section        0  hard_config.o(i._ZN35_INTERNAL_15_hard_config_cpp_Pot_HW24LL_AHB2_GRP1_EnableClockEj)
    [local to hard_config_cpp]::LL_AHB2_GRP1_EnableClock(unsigned) 0x08002599   Thumb Code    24  hard_config.o(i._ZN35_INTERNAL_15_hard_config_cpp_Pot_HW24LL_AHB2_GRP1_EnableClockEj)
    i._ZN35_INTERNAL_15_hard_config_cpp_Pot_HW24LL_APB1_GRP1_EnableClockEj 0x080025b4   Section        0  hard_config.o(i._ZN35_INTERNAL_15_hard_config_cpp_Pot_HW24LL_APB1_GRP1_EnableClockEj)
    [local to hard_config_cpp]::LL_APB1_GRP1_EnableClock(unsigned) 0x080025b5   Thumb Code    24  hard_config.o(i._ZN35_INTERNAL_15_hard_config_cpp_Pot_HW24LL_APB1_GRP1_EnableClockEj)
    i._ZN35_INTERNAL_15_hard_config_cpp_Pot_HW24LL_APB2_GRP1_EnableClockEj 0x080025d0   Section        0  hard_config.o(i._ZN35_INTERNAL_15_hard_config_cpp_Pot_HW24LL_APB2_GRP1_EnableClockEj)
    [local to hard_config_cpp]::LL_APB2_GRP1_EnableClock(unsigned) 0x080025d1   Thumb Code    24  hard_config.o(i._ZN35_INTERNAL_15_hard_config_cpp_Pot_HW24LL_APB2_GRP1_EnableClockEj)
    i._ZN35_INTERNAL_15_hard_config_cpp_Pot_HW24LL_RCC_SetADCClockSourceEj 0x080025ec   Section        0  hard_config.o(i._ZN35_INTERNAL_15_hard_config_cpp_Pot_HW24LL_RCC_SetADCClockSourceEj)
    [local to hard_config_cpp]::LL_RCC_SetADCClockSource(unsigned) 0x080025ed   Thumb Code    20  hard_config.o(i._ZN35_INTERNAL_15_hard_config_cpp_Pot_HW24LL_RCC_SetADCClockSourceEj)
    i._ZN36_INTERNAL_14_I2C_driver_cpp_0101a1c113dks_tc_activeEv 0x08002604   Section        0  i2c_driver.o(i._ZN36_INTERNAL_14_I2C_driver_cpp_0101a1c113dks_tc_activeEv)
    [local to I2C_driver_cpp]::dks_tc_active() 0x08002605   Thumb Code   170  i2c_driver.o(i._ZN36_INTERNAL_14_I2C_driver_cpp_0101a1c113dks_tc_activeEv)
    i._ZN36_INTERNAL_14_I2C_driver_cpp_0101a1c115dks_rxne_activeEv 0x080026cc   Section        0  i2c_driver.o(i._ZN36_INTERNAL_14_I2C_driver_cpp_0101a1c115dks_rxne_activeEv)
    [local to I2C_driver_cpp]::dks_rxne_active() 0x080026cd   Thumb Code    92  i2c_driver.o(i._ZN36_INTERNAL_14_I2C_driver_cpp_0101a1c115dks_rxne_activeEv)
    i._ZN36_INTERNAL_14_I2C_driver_cpp_0101a1c115dks_stop_activeEv 0x0800273c   Section        0  i2c_driver.o(i._ZN36_INTERNAL_14_I2C_driver_cpp_0101a1c115dks_stop_activeEv)
    [local to I2C_driver_cpp]::dks_stop_active() 0x0800273d   Thumb Code    90  i2c_driver.o(i._ZN36_INTERNAL_14_I2C_driver_cpp_0101a1c115dks_stop_activeEv)
    i._ZN36_INTERNAL_14_I2C_driver_cpp_0101a1c115dks_txis_activeEv 0x080027ac   Section        0  i2c_driver.o(i._ZN36_INTERNAL_14_I2C_driver_cpp_0101a1c115dks_txis_activeEv)
    [local to I2C_driver_cpp]::dks_txis_active() 0x080027ad   Thumb Code   104  i2c_driver.o(i._ZN36_INTERNAL_14_I2C_driver_cpp_0101a1c115dks_txis_activeEv)
    i._ZN36_INTERNAL_14_I2C_driver_cpp_0101a1c119LL_I2C_DisableIT_TCEP11I2C_TypeDef 0x0800282c   Section        0  i2c_driver.o(i._ZN36_INTERNAL_14_I2C_driver_cpp_0101a1c119LL_I2C_DisableIT_TCEP11I2C_TypeDef)
    [local to I2C_driver_cpp]::LL_I2C_DisableIT_TC(I2C_TypeDef*) 0x0800282d   Thumb Code    10  i2c_driver.o(i._ZN36_INTERNAL_14_I2C_driver_cpp_0101a1c119LL_I2C_DisableIT_TCEP11I2C_TypeDef)
    i._ZN36_INTERNAL_14_I2C_driver_cpp_0101a1c119LL_I2C_DisableIT_TXEP11I2C_TypeDef 0x08002836   Section        0  i2c_driver.o(i._ZN36_INTERNAL_14_I2C_driver_cpp_0101a1c119LL_I2C_DisableIT_TXEP11I2C_TypeDef)
    [local to I2C_driver_cpp]::LL_I2C_DisableIT_TX(I2C_TypeDef*) 0x08002837   Thumb Code    10  i2c_driver.o(i._ZN36_INTERNAL_14_I2C_driver_cpp_0101a1c119LL_I2C_DisableIT_TXEP11I2C_TypeDef)
    i._ZN36_INTERNAL_14_I2C_driver_cpp_0101a1c119LL_I2C_SetSlaveAddrEP11I2C_TypeDefj 0x08002840   Section        0  i2c_driver.o(i._ZN36_INTERNAL_14_I2C_driver_cpp_0101a1c119LL_I2C_SetSlaveAddrEP11I2C_TypeDefj)
    [local to I2C_driver_cpp]::LL_I2C_SetSlaveAddr(I2C_TypeDef*, unsigned) 0x08002841   Thumb Code    12  i2c_driver.o(i._ZN36_INTERNAL_14_I2C_driver_cpp_0101a1c119LL_I2C_SetSlaveAddrEP11I2C_TypeDefj)
    i._ZN36_INTERNAL_14_I2C_driver_cpp_0101a1c120LL_I2C_TransmitData8EP11I2C_TypeDefh 0x0800284c   Section        0  i2c_driver.o(i._ZN36_INTERNAL_14_I2C_driver_cpp_0101a1c120LL_I2C_TransmitData8EP11I2C_TypeDefh)
    [local to I2C_driver_cpp]::LL_I2C_TransmitData8(I2C_TypeDef*, unsigned char) 0x0800284d   Thumb Code     4  i2c_driver.o(i._ZN36_INTERNAL_14_I2C_driver_cpp_0101a1c120LL_I2C_TransmitData8EP11I2C_TypeDefh)
    i._ZN36_INTERNAL_14_I2C_driver_cpp_0101a1c121LL_I2C_ClearFlag_STOPEP11I2C_TypeDef 0x08002850   Section        0  i2c_driver.o(i._ZN36_INTERNAL_14_I2C_driver_cpp_0101a1c121LL_I2C_ClearFlag_STOPEP11I2C_TypeDef)
    [local to I2C_driver_cpp]::LL_I2C_ClearFlag_STOP(I2C_TypeDef*) 0x08002851   Thumb Code    10  i2c_driver.o(i._ZN36_INTERNAL_14_I2C_driver_cpp_0101a1c121LL_I2C_ClearFlag_STOPEP11I2C_TypeDef)
    i._ZN36_INTERNAL_14_I2C_driver_cpp_0101a1c122LL_I2C_SetTransferSizeEP11I2C_TypeDefj 0x0800285a   Section        0  i2c_driver.o(i._ZN36_INTERNAL_14_I2C_driver_cpp_0101a1c122LL_I2C_SetTransferSizeEP11I2C_TypeDefj)
    [local to I2C_driver_cpp]::LL_I2C_SetTransferSize(I2C_TypeDef*, unsigned) 0x0800285b   Thumb Code    14  i2c_driver.o(i._ZN36_INTERNAL_14_I2C_driver_cpp_0101a1c122LL_I2C_SetTransferSizeEP11I2C_TypeDefj)
    i._ZN36_INTERNAL_14_I2C_driver_cpp_0101a1c125LL_I2C_SetTransferRequestEP11I2C_TypeDefj 0x08002868   Section        0  i2c_driver.o(i._ZN36_INTERNAL_14_I2C_driver_cpp_0101a1c125LL_I2C_SetTransferRequestEP11I2C_TypeDefj)
    [local to I2C_driver_cpp]::LL_I2C_SetTransferRequest(I2C_TypeDef*, unsigned) 0x08002869   Thumb Code    12  i2c_driver.o(i._ZN36_INTERNAL_14_I2C_driver_cpp_0101a1c125LL_I2C_SetTransferRequestEP11I2C_TypeDefj)
    i._ZN36_INTERNAL_14_I2C_driver_cpp_0101a1c129LL_I2C_GenerateStartConditionEP11I2C_TypeDef 0x08002874   Section        0  i2c_driver.o(i._ZN36_INTERNAL_14_I2C_driver_cpp_0101a1c129LL_I2C_GenerateStartConditionEP11I2C_TypeDef)
    [local to I2C_driver_cpp]::LL_I2C_GenerateStartCondition(I2C_TypeDef*) 0x08002875   Thumb Code    10  i2c_driver.o(i._ZN36_INTERNAL_14_I2C_driver_cpp_0101a1c129LL_I2C_GenerateStartConditionEP11I2C_TypeDef)
    i._ZN36_INTERNAL_19_lev_gauge_to_pc_cpp_UIF14LL_ADC_DisableEP11ADC_TypeDef 0x08002880   Section        0  lev_gauge_to_pc.o(i._ZN36_INTERNAL_19_lev_gauge_to_pc_cpp_UIF14LL_ADC_DisableEP11ADC_TypeDef)
    [local to lev_gauge_to_pc_cpp]::LL_ADC_Disable(ADC_TypeDef*) 0x08002881   Thumb Code    12  lev_gauge_to_pc.o(i._ZN36_INTERNAL_19_lev_gauge_to_pc_cpp_UIF14LL_ADC_DisableEP11ADC_TypeDef)
    i._ZN36_INTERNAL_19_lev_gauge_to_pc_cpp_UIF14NVIC_EnableIRQE9IRQn_Type 0x08002890   Section        0  lev_gauge_to_pc.o(i._ZN36_INTERNAL_19_lev_gauge_to_pc_cpp_UIF14NVIC_EnableIRQE9IRQn_Type)
    [local to lev_gauge_to_pc_cpp]::NVIC_EnableIRQ(IRQn_Type) 0x08002891   Thumb Code    22  lev_gauge_to_pc.o(i._ZN36_INTERNAL_19_lev_gauge_to_pc_cpp_UIF14NVIC_EnableIRQE9IRQn_Type)
    i._ZN36_INTERNAL_19_lev_gauge_to_pc_cpp_UIF16LL_ADC_IsEnabledEP11ADC_TypeDef 0x080028a6   Section        0  lev_gauge_to_pc.o(i._ZN36_INTERNAL_19_lev_gauge_to_pc_cpp_UIF16LL_ADC_IsEnabledEP11ADC_TypeDef)
    [local to lev_gauge_to_pc_cpp]::LL_ADC_IsEnabled(ADC_TypeDef*) 0x080028a7   Thumb Code    10  lev_gauge_to_pc.o(i._ZN36_INTERNAL_19_lev_gauge_to_pc_cpp_UIF16LL_ADC_IsEnabledEP11ADC_TypeDef)
    i._ZN36_INTERNAL_19_lev_gauge_to_pc_cpp_UIF16NVIC_SetPriorityE9IRQn_Typej 0x080028b0   Section        0  lev_gauge_to_pc.o(i._ZN36_INTERNAL_19_lev_gauge_to_pc_cpp_UIF16NVIC_SetPriorityE9IRQn_Typej)
    [local to lev_gauge_to_pc_cpp]::NVIC_SetPriority(IRQn_Type, unsigned) 0x080028b1   Thumb Code    32  lev_gauge_to_pc.o(i._ZN36_INTERNAL_19_lev_gauge_to_pc_cpp_UIF16NVIC_SetPriorityE9IRQn_Typej)
    i._ZN36_INTERNAL_19_lev_gauge_to_pc_cpp_UIF17LL_TIM_OC_SetModeEP11TIM_TypeDefjj 0x080028d8   Section        0  lev_gauge_to_pc.o(i._ZN36_INTERNAL_19_lev_gauge_to_pc_cpp_UIF17LL_TIM_OC_SetModeEP11TIM_TypeDefjj)
    [local to lev_gauge_to_pc_cpp]::LL_TIM_OC_SetMode(TIM_TypeDef*, unsigned, unsigned) 0x080028d9   Thumb Code   118  lev_gauge_to_pc.o(i._ZN36_INTERNAL_19_lev_gauge_to_pc_cpp_UIF17LL_TIM_OC_SetModeEP11TIM_TypeDefjj)
    i._ZN36_INTERNAL_19_lev_gauge_to_pc_cpp_UIF17LL_TIM_SetCounterEP11TIM_TypeDefj 0x0800295c   Section        0  lev_gauge_to_pc.o(i._ZN36_INTERNAL_19_lev_gauge_to_pc_cpp_UIF17LL_TIM_SetCounterEP11TIM_TypeDefj)
    [local to lev_gauge_to_pc_cpp]::LL_TIM_SetCounter(TIM_TypeDef*, unsigned) 0x0800295d   Thumb Code     4  lev_gauge_to_pc.o(i._ZN36_INTERNAL_19_lev_gauge_to_pc_cpp_UIF17LL_TIM_SetCounterEP11TIM_TypeDefj)
    i._ZN36_INTERNAL_19_lev_gauge_to_pc_cpp_UIF18LL_GPIO_SetPinModeEP12GPIO_TypeDefjj 0x08002960   Section        0  lev_gauge_to_pc.o(i._ZN36_INTERNAL_19_lev_gauge_to_pc_cpp_UIF18LL_GPIO_SetPinModeEP12GPIO_TypeDefjj)
    [local to lev_gauge_to_pc_cpp]::LL_GPIO_SetPinMode(GPIO_TypeDef*, unsigned, unsigned) 0x08002961   Thumb Code    40  lev_gauge_to_pc.o(i._ZN36_INTERNAL_19_lev_gauge_to_pc_cpp_UIF18LL_GPIO_SetPinModeEP12GPIO_TypeDefjj)
    i._ZN36_INTERNAL_19_lev_gauge_to_pc_cpp_UIF18LL_GPIO_SetPinPullEP12GPIO_TypeDefjj 0x08002988   Section        0  lev_gauge_to_pc.o(i._ZN36_INTERNAL_19_lev_gauge_to_pc_cpp_UIF18LL_GPIO_SetPinPullEP12GPIO_TypeDefjj)
    [local to lev_gauge_to_pc_cpp]::LL_GPIO_SetPinPull(GPIO_TypeDef*, unsigned, unsigned) 0x08002989   Thumb Code    40  lev_gauge_to_pc.o(i._ZN36_INTERNAL_19_lev_gauge_to_pc_cpp_UIF18LL_GPIO_SetPinPullEP12GPIO_TypeDefjj)
    i._ZN36_INTERNAL_19_lev_gauge_to_pc_cpp_UIF19LL_GPIO_SetPinSpeedEP12GPIO_TypeDefjj 0x080029b0   Section        0  lev_gauge_to_pc.o(i._ZN36_INTERNAL_19_lev_gauge_to_pc_cpp_UIF19LL_GPIO_SetPinSpeedEP12GPIO_TypeDefjj)
    [local to lev_gauge_to_pc_cpp]::LL_GPIO_SetPinSpeed(GPIO_TypeDef*, unsigned, unsigned) 0x080029b1   Thumb Code    40  lev_gauge_to_pc.o(i._ZN36_INTERNAL_19_lev_gauge_to_pc_cpp_UIF19LL_GPIO_SetPinSpeedEP12GPIO_TypeDefjj)
    i._ZN36_INTERNAL_19_lev_gauge_to_pc_cpp_UIF19LL_TIM_IC_SetFilterEP11TIM_TypeDefjj 0x080029d8   Section        0  lev_gauge_to_pc.o(i._ZN36_INTERNAL_19_lev_gauge_to_pc_cpp_UIF19LL_TIM_IC_SetFilterEP11TIM_TypeDefjj)
    [local to lev_gauge_to_pc_cpp]::LL_TIM_IC_SetFilter(TIM_TypeDef*, unsigned, unsigned) 0x080029d9   Thumb Code   118  lev_gauge_to_pc.o(i._ZN36_INTERNAL_19_lev_gauge_to_pc_cpp_UIF19LL_TIM_IC_SetFilterEP11TIM_TypeDefjj)
    i._ZN36_INTERNAL_19_lev_gauge_to_pc_cpp_UIF19LL_TIM_SetPrescalerEP11TIM_TypeDefj 0x08002a58   Section        0  lev_gauge_to_pc.o(i._ZN36_INTERNAL_19_lev_gauge_to_pc_cpp_UIF19LL_TIM_SetPrescalerEP11TIM_TypeDefj)
    [local to lev_gauge_to_pc_cpp]::LL_TIM_SetPrescaler(TIM_TypeDef*, unsigned) 0x08002a59   Thumb Code     4  lev_gauge_to_pc.o(i._ZN36_INTERNAL_19_lev_gauge_to_pc_cpp_UIF19LL_TIM_SetPrescalerEP11TIM_TypeDefj)
    i._ZN36_INTERNAL_19_lev_gauge_to_pc_cpp_UIF19LL_TIM_SetSlaveModeEP11TIM_TypeDefj 0x08002a5c   Section        0  lev_gauge_to_pc.o(i._ZN36_INTERNAL_19_lev_gauge_to_pc_cpp_UIF19LL_TIM_SetSlaveModeEP11TIM_TypeDefj)
    [local to lev_gauge_to_pc_cpp]::LL_TIM_SetSlaveMode(TIM_TypeDef*, unsigned) 0x08002a5d   Thumb Code    12  lev_gauge_to_pc.o(i._ZN36_INTERNAL_19_lev_gauge_to_pc_cpp_UIF19LL_TIM_SetSlaveModeEP11TIM_TypeDefj)
    i._ZN36_INTERNAL_19_lev_gauge_to_pc_cpp_UIF19NVIC_EncodePriorityEjjj 0x08002a6c   Section        0  lev_gauge_to_pc.o(i._ZN36_INTERNAL_19_lev_gauge_to_pc_cpp_UIF19NVIC_EncodePriorityEjjj)
    [local to lev_gauge_to_pc_cpp]::NVIC_EncodePriority(unsigned, unsigned, unsigned) 0x08002a6d   Thumb Code    64  lev_gauge_to_pc.o(i._ZN36_INTERNAL_19_lev_gauge_to_pc_cpp_UIF19NVIC_EncodePriorityEjjj)
    i._ZN36_INTERNAL_19_lev_gauge_to_pc_cpp_UIF20LL_GPIO_SetAFPin_0_7EP12GPIO_TypeDefjj 0x08002aac   Section        0  lev_gauge_to_pc.o(i._ZN36_INTERNAL_19_lev_gauge_to_pc_cpp_UIF20LL_GPIO_SetAFPin_0_7EP12GPIO_TypeDefjj)
    [local to lev_gauge_to_pc_cpp]::LL_GPIO_SetAFPin_0_7(GPIO_TypeDef*, unsigned, unsigned) 0x08002aad   Thumb Code    40  lev_gauge_to_pc.o(i._ZN36_INTERNAL_19_lev_gauge_to_pc_cpp_UIF20LL_GPIO_SetAFPin_0_7EP12GPIO_TypeDefjj)
    i._ZN36_INTERNAL_19_lev_gauge_to_pc_cpp_UIF20LL_TIM_EnableCounterEP11TIM_TypeDef 0x08002ad4   Section        0  lev_gauge_to_pc.o(i._ZN36_INTERNAL_19_lev_gauge_to_pc_cpp_UIF20LL_TIM_EnableCounterEP11TIM_TypeDef)
    [local to lev_gauge_to_pc_cpp]::LL_TIM_EnableCounter(TIM_TypeDef*) 0x08002ad5   Thumb Code    10  lev_gauge_to_pc.o(i._ZN36_INTERNAL_19_lev_gauge_to_pc_cpp_UIF20LL_TIM_EnableCounterEP11TIM_TypeDef)
    i._ZN36_INTERNAL_19_lev_gauge_to_pc_cpp_UIF20LL_TIM_SetAutoReloadEP11TIM_TypeDefj 0x08002ade   Section        0  lev_gauge_to_pc.o(i._ZN36_INTERNAL_19_lev_gauge_to_pc_cpp_UIF20LL_TIM_SetAutoReloadEP11TIM_TypeDefj)
    [local to lev_gauge_to_pc_cpp]::LL_TIM_SetAutoReload(TIM_TypeDef*, unsigned) 0x08002adf   Thumb Code     4  lev_gauge_to_pc.o(i._ZN36_INTERNAL_19_lev_gauge_to_pc_cpp_UIF20LL_TIM_SetAutoReloadEP11TIM_TypeDefj)
    i._ZN36_INTERNAL_19_lev_gauge_to_pc_cpp_UIF21LL_TIM_DisableCounterEP11TIM_TypeDef 0x08002ae2   Section        0  lev_gauge_to_pc.o(i._ZN36_INTERNAL_19_lev_gauge_to_pc_cpp_UIF21LL_TIM_DisableCounterEP11TIM_TypeDef)
    [local to lev_gauge_to_pc_cpp]::LL_TIM_DisableCounter(TIM_TypeDef*) 0x08002ae3   Thumb Code    10  lev_gauge_to_pc.o(i._ZN36_INTERNAL_19_lev_gauge_to_pc_cpp_UIF21LL_TIM_DisableCounterEP11TIM_TypeDef)
    i._ZN36_INTERNAL_19_lev_gauge_to_pc_cpp_UIF21LL_TIM_IC_SetPolarityEP11TIM_TypeDefjj 0x08002aec   Section        0  lev_gauge_to_pc.o(i._ZN36_INTERNAL_19_lev_gauge_to_pc_cpp_UIF21LL_TIM_IC_SetPolarityEP11TIM_TypeDefjj)
    [local to lev_gauge_to_pc_cpp]::LL_TIM_IC_SetPolarity(TIM_TypeDef*, unsigned, unsigned) 0x08002aed   Thumb Code   104  lev_gauge_to_pc.o(i._ZN36_INTERNAL_19_lev_gauge_to_pc_cpp_UIF21LL_TIM_IC_SetPolarityEP11TIM_TypeDefjj)
    i._ZN36_INTERNAL_19_lev_gauge_to_pc_cpp_UIF22LL_ADC_ClearFlag_ADRDYEP11ADC_TypeDef 0x08002b58   Section        0  lev_gauge_to_pc.o(i._ZN36_INTERNAL_19_lev_gauge_to_pc_cpp_UIF22LL_ADC_ClearFlag_ADRDYEP11ADC_TypeDef)
    [local to lev_gauge_to_pc_cpp]::LL_ADC_ClearFlag_ADRDY(ADC_TypeDef*) 0x08002b59   Thumb Code     6  lev_gauge_to_pc.o(i._ZN36_INTERNAL_19_lev_gauge_to_pc_cpp_UIF22LL_ADC_ClearFlag_ADRDYEP11ADC_TypeDef)
    i._ZN36_INTERNAL_19_lev_gauge_to_pc_cpp_UIF22LL_TIM_IC_SetPrescalerEP11TIM_TypeDefjj 0x08002b60   Section        0  lev_gauge_to_pc.o(i._ZN36_INTERNAL_19_lev_gauge_to_pc_cpp_UIF22LL_TIM_IC_SetPrescalerEP11TIM_TypeDefjj)
    [local to lev_gauge_to_pc_cpp]::LL_TIM_IC_SetPrescaler(TIM_TypeDef*, unsigned, unsigned) 0x08002b61   Thumb Code   118  lev_gauge_to_pc.o(i._ZN36_INTERNAL_19_lev_gauge_to_pc_cpp_UIF22LL_TIM_IC_SetPrescalerEP11TIM_TypeDefjj)
    i._ZN36_INTERNAL_19_lev_gauge_to_pc_cpp_UIF22LL_TIM_OC_ConfigOutputEP11TIM_TypeDefjj 0x08002be0   Section        0  lev_gauge_to_pc.o(i._ZN36_INTERNAL_19_lev_gauge_to_pc_cpp_UIF22LL_TIM_OC_ConfigOutputEP11TIM_TypeDefjj)
    [local to lev_gauge_to_pc_cpp]::LL_TIM_OC_ConfigOutput(TIM_TypeDef*, unsigned, unsigned) 0x08002be1   Thumb Code   160  lev_gauge_to_pc.o(i._ZN36_INTERNAL_19_lev_gauge_to_pc_cpp_UIF22LL_TIM_OC_ConfigOutputEP11TIM_TypeDefjj)
    i._ZN36_INTERNAL_19_lev_gauge_to_pc_cpp_UIF23LL_ADC_IsDisableOngoingEP11ADC_TypeDef 0x08002c90   Section        0  lev_gauge_to_pc.o(i._ZN36_INTERNAL_19_lev_gauge_to_pc_cpp_UIF23LL_ADC_IsDisableOngoingEP11ADC_TypeDef)
    [local to lev_gauge_to_pc_cpp]::LL_ADC_IsDisableOngoing(ADC_TypeDef*) 0x08002c91   Thumb Code    10  lev_gauge_to_pc.o(i._ZN36_INTERNAL_19_lev_gauge_to_pc_cpp_UIF23LL_ADC_IsDisableOngoingEP11ADC_TypeDef)
    i._ZN36_INTERNAL_19_lev_gauge_to_pc_cpp_UIF23LL_TIM_CC_EnableChannelEP11TIM_TypeDefj 0x08002c9a   Section        0  lev_gauge_to_pc.o(i._ZN36_INTERNAL_19_lev_gauge_to_pc_cpp_UIF23LL_TIM_CC_EnableChannelEP11TIM_TypeDefj)
    [local to lev_gauge_to_pc_cpp]::LL_TIM_CC_EnableChannel(TIM_TypeDef*, unsigned) 0x08002c9b   Thumb Code     8  lev_gauge_to_pc.o(i._ZN36_INTERNAL_19_lev_gauge_to_pc_cpp_UIF23LL_TIM_CC_EnableChannelEP11TIM_TypeDefj)
    i._ZN36_INTERNAL_19_lev_gauge_to_pc_cpp_UIF23LL_TIM_ClearFlag_UPDATEEP11TIM_TypeDef 0x08002ca2   Section        0  lev_gauge_to_pc.o(i._ZN36_INTERNAL_19_lev_gauge_to_pc_cpp_UIF23LL_TIM_ClearFlag_UPDATEEP11TIM_TypeDef)
    [local to lev_gauge_to_pc_cpp]::LL_TIM_ClearFlag_UPDATE(TIM_TypeDef*) 0x08002ca3   Thumb Code     8  lev_gauge_to_pc.o(i._ZN36_INTERNAL_19_lev_gauge_to_pc_cpp_UIF23LL_TIM_ClearFlag_UPDATEEP11TIM_TypeDef)
    i._ZN36_INTERNAL_19_lev_gauge_to_pc_cpp_UIF23LL_TIM_EnableARRPreloadEP11TIM_TypeDef 0x08002caa   Section        0  lev_gauge_to_pc.o(i._ZN36_INTERNAL_19_lev_gauge_to_pc_cpp_UIF23LL_TIM_EnableARRPreloadEP11TIM_TypeDef)
    [local to lev_gauge_to_pc_cpp]::LL_TIM_EnableARRPreload(TIM_TypeDef*) 0x08002cab   Thumb Code    10  lev_gauge_to_pc.o(i._ZN36_INTERNAL_19_lev_gauge_to_pc_cpp_UIF23LL_TIM_EnableARRPreloadEP11TIM_TypeDef)
    i._ZN36_INTERNAL_19_lev_gauge_to_pc_cpp_UIF23LL_TIM_EnableAllOutputsEP11TIM_TypeDef 0x08002cb4   Section        0  lev_gauge_to_pc.o(i._ZN36_INTERNAL_19_lev_gauge_to_pc_cpp_UIF23LL_TIM_EnableAllOutputsEP11TIM_TypeDef)
    [local to lev_gauge_to_pc_cpp]::LL_TIM_EnableAllOutputs(TIM_TypeDef*) 0x08002cb5   Thumb Code    10  lev_gauge_to_pc.o(i._ZN36_INTERNAL_19_lev_gauge_to_pc_cpp_UIF23LL_TIM_EnableAllOutputsEP11TIM_TypeDef)
    i._ZN36_INTERNAL_19_lev_gauge_to_pc_cpp_UIF23LL_TIM_OC_EnablePreloadEP11TIM_TypeDefj 0x08002cc0   Section        0  lev_gauge_to_pc.o(i._ZN36_INTERNAL_19_lev_gauge_to_pc_cpp_UIF23LL_TIM_OC_EnablePreloadEP11TIM_TypeDefj)
    [local to lev_gauge_to_pc_cpp]::LL_TIM_OC_EnablePreload(TIM_TypeDef*, unsigned) 0x08002cc1   Thumb Code   106  lev_gauge_to_pc.o(i._ZN36_INTERNAL_19_lev_gauge_to_pc_cpp_UIF23LL_TIM_OC_EnablePreloadEP11TIM_TypeDefj)
    i._ZN36_INTERNAL_19_lev_gauge_to_pc_cpp_UIF23LL_TIM_OC_SetCompareCH1EP11TIM_TypeDefj 0x08002d34   Section        0  lev_gauge_to_pc.o(i._ZN36_INTERNAL_19_lev_gauge_to_pc_cpp_UIF23LL_TIM_OC_SetCompareCH1EP11TIM_TypeDefj)
    [local to lev_gauge_to_pc_cpp]::LL_TIM_OC_SetCompareCH1(TIM_TypeDef*, unsigned) 0x08002d35   Thumb Code     4  lev_gauge_to_pc.o(i._ZN36_INTERNAL_19_lev_gauge_to_pc_cpp_UIF23LL_TIM_OC_SetCompareCH1EP11TIM_TypeDefj)
    i._ZN36_INTERNAL_19_lev_gauge_to_pc_cpp_UIF24LL_TIM_IC_SetActiveInputEP11TIM_TypeDefjj 0x08002d38   Section        0  lev_gauge_to_pc.o(i._ZN36_INTERNAL_19_lev_gauge_to_pc_cpp_UIF24LL_TIM_IC_SetActiveInputEP11TIM_TypeDefjj)
    [local to lev_gauge_to_pc_cpp]::LL_TIM_IC_SetActiveInput(TIM_TypeDef*, unsigned, unsigned) 0x08002d39   Thumb Code   118  lev_gauge_to_pc.o(i._ZN36_INTERNAL_19_lev_gauge_to_pc_cpp_UIF24LL_TIM_IC_SetActiveInputEP11TIM_TypeDefjj)
    i._ZN36_INTERNAL_19_lev_gauge_to_pc_cpp_UIF24NVIC_GetPriorityGroupingEv 0x08002db8   Section        0  lev_gauge_to_pc.o(i._ZN36_INTERNAL_19_lev_gauge_to_pc_cpp_UIF24NVIC_GetPriorityGroupingEv)
    [local to lev_gauge_to_pc_cpp]::NVIC_GetPriorityGrouping() 0x08002db9   Thumb Code    10  lev_gauge_to_pc.o(i._ZN36_INTERNAL_19_lev_gauge_to_pc_cpp_UIF24NVIC_GetPriorityGroupingEv)
    i._ZN36_INTERNAL_19_lev_gauge_to_pc_cpp_UIF25LL_ADC_REG_StopConversionEP11ADC_TypeDef 0x08002dc8   Section        0  lev_gauge_to_pc.o(i._ZN36_INTERNAL_19_lev_gauge_to_pc_cpp_UIF25LL_ADC_REG_StopConversionEP11ADC_TypeDef)
    [local to lev_gauge_to_pc_cpp]::LL_ADC_REG_StopConversion(ADC_TypeDef*) 0x08002dc9   Thumb Code    14  lev_gauge_to_pc.o(i._ZN36_INTERNAL_19_lev_gauge_to_pc_cpp_UIF25LL_ADC_REG_StopConversionEP11ADC_TypeDef)
    i._ZN36_INTERNAL_19_lev_gauge_to_pc_cpp_UIF26LL_TIM_IsActiveFlag_UPDATEEP11TIM_TypeDef 0x08002ddc   Section        0  lev_gauge_to_pc.o(i._ZN36_INTERNAL_19_lev_gauge_to_pc_cpp_UIF26LL_TIM_IsActiveFlag_UPDATEEP11TIM_TypeDef)
    [local to lev_gauge_to_pc_cpp]::LL_TIM_IsActiveFlag_UPDATE(TIM_TypeDef*) 0x08002ddd   Thumb Code    10  lev_gauge_to_pc.o(i._ZN36_INTERNAL_19_lev_gauge_to_pc_cpp_UIF26LL_TIM_IsActiveFlag_UPDATEEP11TIM_TypeDef)
    i._ZN36_INTERNAL_19_lev_gauge_to_pc_cpp_UIF27LL_TIM_GenerateEvent_UPDATEEP11TIM_TypeDef 0x08002de6   Section        0  lev_gauge_to_pc.o(i._ZN36_INTERNAL_19_lev_gauge_to_pc_cpp_UIF27LL_TIM_GenerateEvent_UPDATEEP11TIM_TypeDef)
    [local to lev_gauge_to_pc_cpp]::LL_TIM_GenerateEvent_UPDATE(TIM_TypeDef*) 0x08002de7   Thumb Code    10  lev_gauge_to_pc.o(i._ZN36_INTERNAL_19_lev_gauge_to_pc_cpp_UIF27LL_TIM_GenerateEvent_UPDATEEP11TIM_TypeDef)
    i._ZN36_INTERNAL_19_lev_gauge_to_pc_cpp_UIF30LL_ADC_INJ_IsConversionOngoingEP11ADC_TypeDef 0x08002df0   Section        0  lev_gauge_to_pc.o(i._ZN36_INTERNAL_19_lev_gauge_to_pc_cpp_UIF30LL_ADC_INJ_IsConversionOngoingEP11ADC_TypeDef)
    [local to lev_gauge_to_pc_cpp]::LL_ADC_INJ_IsConversionOngoing(ADC_TypeDef*) 0x08002df1   Thumb Code    10  lev_gauge_to_pc.o(i._ZN36_INTERNAL_19_lev_gauge_to_pc_cpp_UIF30LL_ADC_INJ_IsConversionOngoingEP11ADC_TypeDef)
    i._ZN36_INTERNAL_19_lev_gauge_to_pc_cpp_UIF30LL_ADC_REG_IsConversionOngoingEP11ADC_TypeDef 0x08002dfa   Section        0  lev_gauge_to_pc.o(i._ZN36_INTERNAL_19_lev_gauge_to_pc_cpp_UIF30LL_ADC_REG_IsConversionOngoingEP11ADC_TypeDef)
    [local to lev_gauge_to_pc_cpp]::LL_ADC_REG_IsConversionOngoing(ADC_TypeDef*) 0x08002dfb   Thumb Code    10  lev_gauge_to_pc.o(i._ZN36_INTERNAL_19_lev_gauge_to_pc_cpp_UIF30LL_ADC_REG_IsConversionOngoingEP11ADC_TypeDef)
    i._ZN36_INTERNAL_19_lev_gauge_to_pc_cpp_UIF34LL_ADC_REG_IsStopConversionOngoingEP11ADC_TypeDef 0x08002e04   Section        0  lev_gauge_to_pc.o(i._ZN36_INTERNAL_19_lev_gauge_to_pc_cpp_UIF34LL_ADC_REG_IsStopConversionOngoingEP11ADC_TypeDef)
    [local to lev_gauge_to_pc_cpp]::LL_ADC_REG_IsStopConversionOngoing(ADC_TypeDef*) 0x08002e05   Thumb Code    10  lev_gauge_to_pc.o(i._ZN36_INTERNAL_19_lev_gauge_to_pc_cpp_UIF34LL_ADC_REG_IsStopConversionOngoingEP11ADC_TypeDef)
    i._ZN38_INTERNAL_16_Flash_driver_cpp_d50a58b423LL_TIM_ClearFlag_UPDATEEP11TIM_TypeDef 0x08002e0e   Section        0  flash_driver.o(i._ZN38_INTERNAL_16_Flash_driver_cpp_d50a58b423LL_TIM_ClearFlag_UPDATEEP11TIM_TypeDef)
    [local to Flash_driver_cpp]::LL_TIM_ClearFlag_UPDATE(TIM_TypeDef*) 0x08002e0f   Thumb Code     8  flash_driver.o(i._ZN38_INTERNAL_16_Flash_driver_cpp_d50a58b423LL_TIM_ClearFlag_UPDATEEP11TIM_TypeDef)
    i._ZN39_INTERNAL_17_usart_driver__cpp_b612a17520LL_USART_SetBaudRateEP13USART_TypeDefjjj 0x08002e16   Section        0  usart_driver_.o(i._ZN39_INTERNAL_17_usart_driver__cpp_b612a17520LL_USART_SetBaudRateEP13USART_TypeDefjjj)
    [local to usart_driver__cpp]::LL_USART_SetBaudRate(USART_TypeDef*, unsigned, unsigned, unsigned) 0x08002e17   Thumb Code    56  usart_driver_.o(i._ZN39_INTERNAL_17_usart_driver__cpp_b612a17520LL_USART_SetBaudRateEP13USART_TypeDefjjj)
    i._ZN39_INTERNAL_17_usart_driver__cpp_b612a17521LL_USART_ReceiveData8EP13USART_TypeDef 0x08002e4e   Section        0  usart_driver_.o(i._ZN39_INTERNAL_17_usart_driver__cpp_b612a17521LL_USART_ReceiveData8EP13USART_TypeDef)
    [local to usart_driver__cpp]::LL_USART_ReceiveData8(USART_TypeDef*) 0x08002e4f   Thumb Code     8  usart_driver_.o(i._ZN39_INTERNAL_17_usart_driver__cpp_b612a17521LL_USART_ReceiveData8EP13USART_TypeDef)
    i._ZN39_INTERNAL_17_usart_driver__cpp_b612a17526LL_USART_IsActiveFlag_RXNEEP13USART_TypeDef 0x08002e56   Section        0  usart_driver_.o(i._ZN39_INTERNAL_17_usart_driver__cpp_b612a17526LL_USART_IsActiveFlag_RXNEEP13USART_TypeDef)
    [local to usart_driver__cpp]::LL_USART_IsActiveFlag_RXNE(USART_TypeDef*) 0x08002e57   Thumb Code    10  usart_driver_.o(i._ZN39_INTERNAL_17_usart_driver__cpp_b612a17526LL_USART_IsActiveFlag_RXNEEP13USART_TypeDef)
    i._ZN4TLed2onEv                          0x08002e60   Section        0  led.o(i._ZN4TLed2onEv)
    i._ZN4TLed3offEv                         0x08002e6a   Section        0  led.o(i._ZN4TLed3offEv)
    i._ZN4TLed4initEv                        0x08002e78   Section        0  led.o(i._ZN4TLed4initEv)
    i._ZN4TLedC1ERK4TPinPPv                  0x08002eb0   Section        0  led.o(i._ZN4TLedC1ERK4TPinPPv)
    i._ZN4TLedD1Ev                           0x08002ebe   Section        0  led.o(i._ZN4TLedD1Ev)
    i._ZN6TFlash10write_setsEPKht            0x08002ec0   Section        0  flash_driver.o(i._ZN6TFlash10write_setsEPKht)
    i._ZN6TFlash8get_setsEPht                0x08002efc   Section        0  flash_driver.o(i._ZN6TFlash8get_setsEPht)
    i._ZN6TFlash8init_tmrEv                  0x08002f28   Section        0  flash_driver.o(i._ZN6TFlash8init_tmrEv)
    i._ZN6TFlashC1Ev                         0x0800308c   Section        0  flash_driver.o(i._ZN6TFlashC1Ev)
    i._ZN6TFlashD1Ev                         0x080030a8   Section        0  flash_driver.o(i._ZN6TFlashD1Ev)
    i._ZN6TModel10set_accessEN9TSettings7TAccessE 0x080030aa   Section        0  model.o(i._ZN6TModel10set_accessEN9TSettings7TAccessE)
    i._ZN6TModel13get_psw_adminEv            0x080030dc   Section        0  model.o(i._ZN6TModel13get_psw_adminEv)
    i._ZN6TModel13get_psw_superEv            0x080030f2   Section        0  model.o(i._ZN6TModel13get_psw_superEv)
    i._ZN6TModel13handler_calibEsPb          0x08003108   Section        0  model.o(i._ZN6TModel13handler_calibEsPb)
    i._ZN6TModel14handler_accessEsPb         0x08003118   Section        0  model.o(i._ZN6TModel14handler_accessEsPb)
    i._ZN6TModel17get_calib_processEv        0x080031c6   Section        0  model.o(i._ZN6TModel17get_calib_processEv)
    i._ZN6TModel17set_calib_processEN9TSettings13TCalibProcessE 0x080031fa   Section        0  model.o(i._ZN6TModel17set_calib_processEN9TSettings13TCalibProcessE)
    i._ZN6TModel22set_authorize_item_ptrEPKNS_10TAuthorizeE 0x0800322c   Section        0  model.o(i._ZN6TModel22set_authorize_item_ptrEPKNS_10TAuthorizeE)
    i._ZN6TModelC1ERPv                       0x08003234   Section        0  model.o(i._ZN6TModelC1ERPv)
    i._ZN6TModelD1Ev                         0x080032fc   Section        0  model.o(i._ZN6TModelD1Ev)
    i._ZN6TUsart10disable_rxEv               0x0800330c   Section        0  usart_driver_.o(i._ZN6TUsart10disable_rxEv)
    i._ZN6TUsart10set_485_hdEjj              0x0800331e   Section        0  usart_driver_.o(i._ZN6TUsart10set_485_hdEjj)
    i._ZN6TUsart11write_burstEPKht           0x0800337c   Section        0  usart_driver_.o(i._ZN6TUsart11write_burstEPKht)
    i._ZN6TUsart14pin_clk_configEv           0x080033e8   Section        0  usart_driver_.o(i._ZN6TUsart14pin_clk_configEv)
    i._ZN6TUsart15clr_error_flagsEv          0x08003484   Section        0  usart_driver_.o(i._ZN6TUsart15clr_error_flagsEv)
    i._ZN6TUsart7hw_initEh                   0x080034b0   Section        0  usart_driver_.o(i._ZN6TUsart7hw_initEh)
    i._ZN6TUsart7set_232Ejj                  0x080035e4   Section        0  usart_driver_.o(i._ZN6TUsart7set_232Ejj)
    i._ZN6TUsart9enable_rxEv                 0x080035fc   Section        0  usart_driver_.o(i._ZN6TUsart9enable_rxEv)
    i._ZN6TUsart9read_byteEv                 0x0800360e   Section        0  usart_driver_.o(i._ZN6TUsart9read_byteEv)
    i._ZN6TUsartC1ERK9TUsart_HWRKNS_5TSetsENS_5TModeE 0x08003630   Section        0  usart_driver_.o(i._ZN6TUsartC1ERK9TUsart_HWRKNS_5TSetsENS_5TModeE)
    i._ZN6TUsartD1Ev                         0x08003658   Section        0  usart_driver_.o(i._ZN6TUsartD1Ev)
    i._ZN7TButtonC1ERK4TPin                  0x08003668   Section        0  button.o(i._ZN7TButtonC1ERK4TPin)
    i._ZN7TButtonD1Ev                        0x0800366c   Section        0  button.o(i._ZN7TButtonD1Ev)
    i._ZN8T_AD840212reverse_bitsEh           0x0800366e   Section        0  ad8402.o(i._ZN8T_AD840212reverse_bitsEh)
    i._ZN8T_AD840213data_bit_ctrlEPh         0x08003698   Section        0  ad8402.o(i._ZN8T_AD840213data_bit_ctrlEPh)
    i._ZN8T_AD84024initEv                    0x08003722   Section        0  ad8402.o(i._ZN8T_AD84024initEv)
    i._ZN8T_AD84026rs_setEv                  0x080037d0   Section        0  ad8402.o(i._ZN8T_AD84026rs_setEv)
    i._ZN8T_AD84027clk_clrEv                 0x080037de   Section        0  ad8402.o(i._ZN8T_AD84027clk_clrEv)
    i._ZN8T_AD84027clk_setEv                 0x080037ec   Section        0  ad8402.o(i._ZN8T_AD84027clk_setEv)
    i._ZN8T_AD84027sdi_clrEv                 0x080037fa   Section        0  ad8402.o(i._ZN8T_AD84027sdi_clrEv)
    i._ZN8T_AD84027sdi_setEv                 0x08003808   Section        0  ad8402.o(i._ZN8T_AD84027sdi_setEv)
    i._ZN8T_AD84028set_codeEhNS_8TChannelE   0x08003818   Section        0  ad8402.o(i._ZN8T_AD84028set_codeEhNS_8TChannelE)
    i._ZN8T_AD84028shdn_clrEv                0x080038d8   Section        0  ad8402.o(i._ZN8T_AD84028shdn_clrEv)
    i._ZN8T_AD84028shdn_setEv                0x080038e6   Section        0  ad8402.o(i._ZN8T_AD84028shdn_setEv)
    i._ZN8T_AD84029latch_clrEv               0x080038f4   Section        0  ad8402.o(i._ZN8T_AD84029latch_clrEv)
    i._ZN8T_AD84029latch_setEv               0x08003902   Section        0  ad8402.o(i._ZN8T_AD84029latch_setEv)
    i._ZN8T_AD8402C1ERK7TPot_HW              0x08003910   Section        0  ad8402.o(i._ZN8T_AD8402C1ERK7TPot_HW)
    i._ZN8T_AD8402D1Ev                       0x08003930   Section        0  ad8402.o(i._ZN8T_AD8402D1Ev)
    i._ZN9TSettingsC1Ev                      0x08003934   Section        0  settings.o(i._ZN9TSettingsC1Ev)
    i._ZN9TSettingsD1Ev                      0x080039b8   Section        0  settings.o(i._ZN9TSettingsD1Ev)
    i._ZNK6TFlash10erase_pageEj              0x080039bc   Section        0  flash_driver.o(i._ZNK6TFlash10erase_pageEj)
    i._ZNK6TFlash10write_pageEPKhtj          0x08003a18   Section        0  flash_driver.o(i._ZNK6TFlash10write_pageEPKhtj)
    i._ZNK6TFlash15clear_all_errorEv         0x08003a4c   Section        0  flash_driver.o(i._ZNK6TFlash15clear_all_errorEv)
    i._ZNK6TFlash4progEPKjjj                 0x08003a60   Section        0  flash_driver.o(i._ZNK6TFlash4progEPKjjj)
    i._ZNK6TFlash8stop_tmrEv                 0x08003b08   Section        0  flash_driver.o(i._ZNK6TFlash8stop_tmrEv)
    i._ZNK6TFlash9start_tmrEv                0x08003b22   Section        0  flash_driver.o(i._ZNK6TFlash9start_tmrEv)
    i._ZNK9TSettings10chk_accessEs           0x08003b3c   Section        0  settings.o(i._ZNK9TSettings10chk_accessEs)
    i._ZNK9TSettings9chk_calibEs             0x08003b50   Section        0  settings.o(i._ZNK9TSettings9chk_calibEs)
    i.__scatterload_copy                     0x08003b64   Section       14  handlers.o(i.__scatterload_copy)
    i.__scatterload_null                     0x08003b72   Section        2  handlers.o(i.__scatterload_null)
    i.__scatterload_zeroinit                 0x08003b74   Section       14  handlers.o(i.__scatterload_zeroinit)
    i.__sti___10_AD8402_cpp_AD8402           0x08003b84   Section        0  ad8402.o(i.__sti___10_AD8402_cpp_AD8402)
    __sti___10_AD8402_cpp_AD8402             0x08003b85   Thumb Code    22  ad8402.o(i.__sti___10_AD8402_cpp_AD8402)
    i.__sti___10_Button_cpp_Btn              0x08003bac   Section        0  button.o(i.__sti___10_Button_cpp_Btn)
    __sti___10_Button_cpp_Btn                0x08003bad   Thumb Code    22  button.o(i.__sti___10_Button_cpp_Btn)
    i.__sti___12_settings_cpp_Settings       0x08003bd4   Section        0  settings.o(i.__sti___12_settings_cpp_Settings)
    __sti___12_settings_cpp_Settings         0x08003bd5   Thumb Code    20  settings.o(i.__sti___12_settings_cpp_Settings)
    i.__sti___16_Flash_driver_cpp_d50a58b4   0x08003bf4   Section        0  flash_driver.o(i.__sti___16_Flash_driver_cpp_d50a58b4)
    __sti___16_Flash_driver_cpp_d50a58b4     0x08003bf5   Thumb Code    20  flash_driver.o(i.__sti___16_Flash_driver_cpp_d50a58b4)
    i.__sti___19_lev_gauge_to_pc_cpp_UIF     0x08003c14   Section        0  lev_gauge_to_pc.o(i.__sti___19_lev_gauge_to_pc_cpp_UIF)
    __sti___19_lev_gauge_to_pc_cpp_UIF       0x08003c15   Thumb Code    34  lev_gauge_to_pc.o(i.__sti___19_lev_gauge_to_pc_cpp_UIF)
    i.__sti___7_Led_cpp_Led                  0x08003c58   Section        0  led.o(i.__sti___7_Led_cpp_Led)
    __sti___7_Led_cpp_Led                    0x08003c59   Thumb Code    44  led.o(i.__sti___7_Led_cpp_Led)
    i.__sti___8_main_cpp_63965102            0x08003ca0   Section        0  main.o(i.__sti___8_main_cpp_63965102)
    __sti___8_main_cpp_63965102              0x08003ca1   Thumb Code    12  main.o(i.__sti___8_main_cpp_63965102)
    i.__sti___9_model_cpp_Model              0x08003cb0   Section        0  model.o(i.__sti___9_model_cpp_Model)
    __sti___9_model_cpp_Model                0x08003cb1   Thumb Code    22  model.o(i.__sti___9_model_cpp_Model)
    i.free                                   0x08003cd8   Section        0  malloc.o(i.free)
    i.main                                   0x08003d28   Section        0  main.o(i.main)
    i.malloc                                 0x08003d78   Section        0  malloc.o(i.malloc)
    i.prvAddCurrentTaskToDelayedList         0x08003de4   Section        0  tasks.o(i.prvAddCurrentTaskToDelayedList)
    prvAddCurrentTaskToDelayedList           0x08003de5   Thumb Code   124  tasks.o(i.prvAddCurrentTaskToDelayedList)
    i.prvAddNewTaskToReadyList               0x08003e7c   Section        0  tasks.o(i.prvAddNewTaskToReadyList)
    prvAddNewTaskToReadyList                 0x08003e7d   Thumb Code   156  tasks.o(i.prvAddNewTaskToReadyList)
    i.prvCheckForValidListAndQueue           0x08003f34   Section        0  timers.o(i.prvCheckForValidListAndQueue)
    prvCheckForValidListAndQueue             0x08003f35   Thumb Code    72  timers.o(i.prvCheckForValidListAndQueue)
    i.prvCheckTasksWaitingTermination        0x08003f98   Section        0  tasks.o(i.prvCheckTasksWaitingTermination)
    prvCheckTasksWaitingTermination          0x08003f99   Thumb Code    86  tasks.o(i.prvCheckTasksWaitingTermination)
    i.prvCopyDataFromQueue                   0x08003ffc   Section        0  queue.o(i.prvCopyDataFromQueue)
    prvCopyDataFromQueue                     0x08003ffd   Thumb Code    42  queue.o(i.prvCopyDataFromQueue)
    i.prvCopyDataToQueue                     0x08004026   Section        0  queue.o(i.prvCopyDataToQueue)
    prvCopyDataToQueue                       0x08004027   Thumb Code   124  queue.o(i.prvCopyDataToQueue)
    i.prvDeleteTCB                           0x080040a2   Section        0  tasks.o(i.prvDeleteTCB)
    prvDeleteTCB                             0x080040a3   Thumb Code    18  tasks.o(i.prvDeleteTCB)
    i.prvGetNextExpireTime                   0x080040b4   Section        0  timers.o(i.prvGetNextExpireTime)
    prvGetNextExpireTime                     0x080040b5   Thumb Code    36  timers.o(i.prvGetNextExpireTime)
    i.prvHeapInit                            0x080040dc   Section        0  heap_2.o(i.prvHeapInit)
    prvHeapInit                              0x080040dd   Thumb Code    42  heap_2.o(i.prvHeapInit)
    i.prvIdleTask                            0x08004114   Section        0  tasks.o(i.prvIdleTask)
    prvIdleTask                              0x08004115   Thumb Code    12  tasks.o(i.prvIdleTask)
    i.prvInitialiseMutex                     0x08004120   Section        0  queue.o(i.prvInitialiseMutex)
    prvInitialiseMutex                       0x08004121   Thumb Code    28  queue.o(i.prvInitialiseMutex)
    i.prvInitialiseNewQueue                  0x0800413c   Section        0  queue.o(i.prvInitialiseNewQueue)
    prvInitialiseNewQueue                    0x0800413d   Thumb Code    42  queue.o(i.prvInitialiseNewQueue)
    i.prvInitialiseNewTask                   0x08004166   Section        0  tasks.o(i.prvInitialiseNewTask)
    prvInitialiseNewTask                     0x08004167   Thumb Code   180  tasks.o(i.prvInitialiseNewTask)
    i.prvInitialiseTaskLists                 0x08004220   Section        0  tasks.o(i.prvInitialiseTaskLists)
    prvInitialiseTaskLists                   0x08004221   Thumb Code    70  tasks.o(i.prvInitialiseTaskLists)
    i.prvInsertTimerInActiveList             0x08004288   Section        0  timers.o(i.prvInsertTimerInActiveList)
    prvInsertTimerInActiveList               0x08004289   Thumb Code    80  timers.o(i.prvInsertTimerInActiveList)
    i.prvIsQueueEmpty                        0x080042e0   Section        0  queue.o(i.prvIsQueueEmpty)
    prvIsQueueEmpty                          0x080042e1   Thumb Code    26  queue.o(i.prvIsQueueEmpty)
    i.prvIsQueueFull                         0x080042fa   Section        0  queue.o(i.prvIsQueueFull)
    prvIsQueueFull                           0x080042fb   Thumb Code    30  queue.o(i.prvIsQueueFull)
    i.prvProcessExpiredTimer                 0x08004318   Section        0  timers.o(i.prvProcessExpiredTimer)
    prvProcessExpiredTimer                   0x08004319   Thumb Code    94  timers.o(i.prvProcessExpiredTimer)
    i.prvProcessReceivedCommands             0x0800437c   Section        0  timers.o(i.prvProcessReceivedCommands)
    prvProcessReceivedCommands               0x0800437d   Thumb Code   242  timers.o(i.prvProcessReceivedCommands)
    i.prvProcessTimerOrBlockTask             0x08004474   Section        0  timers.o(i.prvProcessTimerOrBlockTask)
    prvProcessTimerOrBlockTask               0x08004475   Thumb Code   102  timers.o(i.prvProcessTimerOrBlockTask)
    i.prvResetNextTaskUnblockTime            0x080044e8   Section        0  tasks.o(i.prvResetNextTaskUnblockTime)
    prvResetNextTaskUnblockTime              0x080044e9   Thumb Code    42  tasks.o(i.prvResetNextTaskUnblockTime)
    i.prvSampleTimeNow                       0x0800451c   Section        0  timers.o(i.prvSampleTimeNow)
    prvSampleTimeNow                         0x0800451d   Thumb Code    40  timers.o(i.prvSampleTimeNow)
    i.prvSwitchTimerLists                    0x08004548   Section        0  timers.o(i.prvSwitchTimerLists)
    prvSwitchTimerLists                      0x08004549   Thumb Code   150  timers.o(i.prvSwitchTimerLists)
    i.prvTaskExitError                       0x080045e8   Section        0  port.o(i.prvTaskExitError)
    prvTaskExitError                         0x080045e9   Thumb Code    60  port.o(i.prvTaskExitError)
    i.prvTimerTask                           0x08004628   Section        0  timers.o(i.prvTimerTask)
    prvTimerTask                             0x08004629   Thumb Code    26  timers.o(i.prvTimerTask)
    i.prvUnlockQueue                         0x08004642   Section        0  queue.o(i.prvUnlockQueue)
    prvUnlockQueue                           0x08004643   Thumb Code   126  queue.o(i.prvUnlockQueue)
    i.pvPortMalloc                           0x080046c0   Section        0  heap_2.o(i.pvPortMalloc)
    i.pvTaskIncrementMutexHeldCount          0x08004778   Section        0  tasks.o(i.pvTaskIncrementMutexHeldCount)
    i.pxPortInitialiseStack                  0x08004798   Section        0  port.o(i.pxPortInitialiseStack)
    i.uxListRemove                           0x080047c4   Section        0  list.o(i.uxListRemove)
    i.vApplicationIdleHook                   0x080047ec   Section        0  main.o(i.vApplicationIdleHook)
    i.vApplicationStackOverflowHook          0x080047f0   Section        0  main.o(i.vApplicationStackOverflowHook)
    i.vListInitialise                        0x08004800   Section        0  list.o(i.vListInitialise)
    i.vListInitialiseItem                    0x0800481a   Section        0  list.o(i.vListInitialiseItem)
    i.vListInsert                            0x08004820   Section        0  list.o(i.vListInsert)
    i.vListInsertEnd                         0x08004854   Section        0  list.o(i.vListInsertEnd)
    i.vPortEnterCritical                     0x0800486c   Section        0  port.o(i.vPortEnterCritical)
    i.vPortExitCritical                      0x080048c0   Section        0  port.o(i.vPortExitCritical)
    i.vPortFree                              0x080048fc   Section        0  heap_2.o(i.vPortFree)
    i.vPortSetupTimerInterrupt               0x0800493c   Section        0  port.o(i.vPortSetupTimerInterrupt)
    i.vPortValidateInterruptPriority         0x08004954   Section        0  port.o(i.vPortValidateInterruptPriority)
    i.vQueueAddToRegistry                    0x080049cc   Section        0  queue.o(i.vQueueAddToRegistry)
    i.vQueueWaitForMessageRestricted         0x080049f8   Section        0  queue.o(i.vQueueWaitForMessageRestricted)
    i.vTaskDelay                             0x08004a44   Section        0  tasks.o(i.vTaskDelay)
    i.vTaskMissedYield                       0x08004aa0   Section        0  tasks.o(i.vTaskMissedYield)
    i.vTaskPlaceOnEventList                  0x08004aac   Section        0  tasks.o(i.vTaskPlaceOnEventList)
    i.vTaskPlaceOnEventListRestricted        0x08004ae4   Section        0  tasks.o(i.vTaskPlaceOnEventListRestricted)
    i.vTaskPriorityInherit                   0x08004b24   Section        0  tasks.o(i.vTaskPriorityInherit)
    i.vTaskSetTimeOutState                   0x08004bd4   Section        0  tasks.o(i.vTaskSetTimeOutState)
    i.vTaskStartScheduler                    0x08004c04   Section        0  tasks.o(i.vTaskStartScheduler)
    i.vTaskSuspendAll                        0x08004c98   Section        0  tasks.o(i.vTaskSuspendAll)
    i.vTaskSwitchContext                     0x08004ca8   Section        0  tasks.o(i.vTaskSwitchContext)
    i.xPortGetFreeHeapSize                   0x08004d50   Section        0  heap_2.o(i.xPortGetFreeHeapSize)
    i.xPortStartScheduler                    0x08004d5c   Section        0  port.o(i.xPortStartScheduler)
    i.xQueueCreateMutex                      0x08004ec4   Section        0  queue.o(i.xQueueCreateMutex)
    i.xQueueGenericCreate                    0x08004ee6   Section        0  queue.o(i.xQueueGenericCreate)
    i.xQueueGenericReceive                   0x08004f40   Section        0  queue.o(i.xQueueGenericReceive)
    i.xQueueGenericReset                     0x08005104   Section        0  queue.o(i.xQueueGenericReset)
    i.xQueueGenericSend                      0x0800519c   Section        0  queue.o(i.xQueueGenericSend)
    i.xQueueGenericSendFromISR               0x08005344   Section        0  queue.o(i.xQueueGenericSendFromISR)
    i.xQueueGiveFromISR                      0x08005442   Section        0  queue.o(i.xQueueGiveFromISR)
    i.xTaskCheckForTimeOut                   0x08005524   Section        0  tasks.o(i.xTaskCheckForTimeOut)
    i.xTaskCreate                            0x080055b0   Section        0  tasks.o(i.xTaskCreate)
    i.xTaskGetSchedulerState                 0x08005618   Section        0  tasks.o(i.xTaskGetSchedulerState)
    i.xTaskGetTickCount                      0x08005638   Section        0  tasks.o(i.xTaskGetTickCount)
    i.xTaskIncrementTick                     0x08005644   Section        0  tasks.o(i.xTaskIncrementTick)
    i.xTaskPriorityDisinherit                0x0800578c   Section        0  tasks.o(i.xTaskPriorityDisinherit)
    i.xTaskRemoveFromEventList               0x08005854   Section        0  tasks.o(i.xTaskRemoveFromEventList)
    i.xTaskResumeAll                         0x080058ec   Section        0  tasks.o(i.xTaskResumeAll)
    i.xTimerCreateTimerTask                  0x080059f0   Section        0  timers.o(i.xTimerCreateTimerTask)
    i.xTimerGenericCommand                   0x08005a44   Section        0  timers.o(i.xTimerGenericCommand)
    t._ZN6TModel11access_protIfU8__packedfEEvRT_RKT0_ 0x08005ace   Section        0  model.o(t._ZN6TModel11access_protIfU8__packedfEEvRT_RKT0_)
    t._ZNK9TSettings9chk_paramIsEEbRKNS_6TRangeET_ 0x08005afc   Section        0  settings.o(t._ZNK9TSettings9chk_paramIsEEbRKNS_6TRangeET_)
    .constdata                               0x08005b18   Section       28  ad8402.o(.constdata)
    .constdata                               0x08005b34   Section       96  main.o(.constdata)
    .constdata                               0x08005b94   Section      156  model.o(.constdata)
    <Data1>                                  0x08005bac   Data          36  model.o(.constdata)
    .constdata                               0x08005c30   Section       84  usart_driver_.o(.constdata)
    .constdata                               0x08005c84   Section       60  ext_master.o(.constdata)
    .constdata                               0x08005cc0   Section       44  settings.o(.constdata)
    <Data1>                                  0x08005cc0   Data           4  settings.o(.constdata)
    <Data2>                                  0x08005cc4   Data           4  settings.o(.constdata)
    <Data3>                                  0x08005cc8   Data           4  settings.o(.constdata)
    <Data4>                                  0x08005ccc   Data           4  settings.o(.constdata)
    <Data5>                                  0x08005cd0   Data           4  settings.o(.constdata)
    <Data6>                                  0x08005cd4   Data           4  settings.o(.constdata)
    <Data7>                                  0x08005cd8   Data           4  settings.o(.constdata)
    <Data8>                                  0x08005cdc   Data           4  settings.o(.constdata)
    <Data9>                                  0x08005ce0   Data           4  settings.o(.constdata)
    <Data10>                                 0x08005ce4   Data           4  settings.o(.constdata)
    <Data11>                                 0x08005ce8   Data           4  settings.o(.constdata)
    .constdata                               0x08005cec   Section      208  lev_gauge_to_pc.o(.constdata)
    OFFSET_TAB_CCMRx                         0x08005cec   Data           9  lev_gauge_to_pc.o(.constdata)
    SHIFT_TAB_OCxx                           0x08005cf5   Data           9  lev_gauge_to_pc.o(.constdata)
    SHIFT_TAB_ICxx                           0x08005cfe   Data           9  lev_gauge_to_pc.o(.constdata)
    SHIFT_TAB_CCxP                           0x08005d07   Data           9  lev_gauge_to_pc.o(.constdata)
    SHIFT_TAB_OISx                           0x08005d10   Data           9  lev_gauge_to_pc.o(.constdata)
    .constdata                               0x08005dbc   Section       72  system_stm32l4xx.o(.constdata)
    .init_array                              0x08005e44   Section        4  button.o(.init_array)
    .init_array                              0x08005e48   Section        4  led.o(.init_array)
    .init_array                              0x08005e4c   Section        4  ad8402.o(.init_array)
    .init_array                              0x08005e50   Section        4  main.o(.init_array)
    .init_array                              0x08005e54   Section        4  model.o(.init_array)
    .init_array                              0x08005e58   Section        4  flash_driver.o(.init_array)
    .init_array                              0x08005e5c   Section        4  settings.o(.init_array)
    .init_array                              0x08005e60   Section        4  lev_gauge_to_pc.o(.init_array)
    .init_array                              0x08005e64   Section        0  cpp_init.o(.init_array)
    STACK                                    0x10000000   Section    12288  startup_stm32l431xx.o(STACK)
    HEAP                                     0x10003000   Section      512  startup_stm32l431xx.o(HEAP)
    .data                                    0x20000000   Section       16  ad8402.o(.data)
    .data                                    0x20000010   Section       93  main.o(.data)
    vApplicationStackOverflowHook::k         0x20000068   Data           4  main.o(.data)
    vApplicationStackOverflowHook(void**, signed char*)::Ctr 0x2000006c   Data           1  main.o(.data)
    .data                                    0x20000070   Section      752  hard_config.o(.data)
    .data                                    0x20000360   Section       13  flash_driver.o(.data)
    FlashTmrTrig                             0x20000361   Data           1  flash_driver.o(.data)
    FLASH_IRQHandler::Ctr                    0x2000036c   Data           1  flash_driver.o(.data)
    .data                                    0x20000370   Section       27  i2c_driver.o(.data)
    TxBufPtr                                 0x20000370   Data           4  i2c_driver.o(.data)
    TxBufSize                                0x20000374   Data           1  i2c_driver.o(.data)
    IsTxSlaveRegAddr                         0x20000375   Data           1  i2c_driver.o(.data)
    TxHigherPriorityTaskWoken                0x20000378   Data           4  i2c_driver.o(.data)
    RxBufPtr                                 0x2000037c   Data           4  i2c_driver.o(.data)
    RxBufSize                                0x20000380   Data           1  i2c_driver.o(.data)
    RxByteCtr                                0x20000381   Data           1  i2c_driver.o(.data)
    RxSlaveAddr                              0x20000382   Data           1  i2c_driver.o(.data)
    RxHigherPriorityTaskWoken                0x20000384   Data           4  i2c_driver.o(.data)
    OperationFlag                            0x20000388   Data           1  i2c_driver.o(.data)
    StartRegAddr                             0x20000389   Data           1  i2c_driver.o(.data)
    .data                                    0x2000038c   Section       24  heap_2.o(.data)
    xStart                                   0x2000038c   Data           8  heap_2.o(.data)
    xEnd                                     0x20000394   Data           8  heap_2.o(.data)
    xFreeBytesRemaining                      0x2000039c   Data           4  heap_2.o(.data)
    xHeapHasBeenInitialised                  0x200003a0   Data           4  heap_2.o(.data)
    .data                                    0x200003a4   Section       12  port.o(.data)
    uxCriticalNesting                        0x200003a4   Data           4  port.o(.data)
    ucMaxSysCallPriority                     0x200003a8   Data           1  port.o(.data)
    ulMaxPRIGROUPValue                       0x200003ac   Data           4  port.o(.data)
    .data                                    0x200003b0   Section       60  tasks.o(.data)
    pxDelayedTaskList                        0x200003b4   Data           4  tasks.o(.data)
    pxOverflowDelayedTaskList                0x200003b8   Data           4  tasks.o(.data)
    uxDeletedTasksWaitingCleanUp             0x200003bc   Data           4  tasks.o(.data)
    uxCurrentNumberOfTasks                   0x200003c0   Data           4  tasks.o(.data)
    xTickCount                               0x200003c4   Data           4  tasks.o(.data)
    uxTopReadyPriority                       0x200003c8   Data           4  tasks.o(.data)
    xSchedulerRunning                        0x200003cc   Data           4  tasks.o(.data)
    uxPendedTicks                            0x200003d0   Data           4  tasks.o(.data)
    xYieldPending                            0x200003d4   Data           4  tasks.o(.data)
    xNumOfOverflows                          0x200003d8   Data           4  tasks.o(.data)
    uxTaskNumber                             0x200003dc   Data           4  tasks.o(.data)
    xNextTaskUnblockTime                     0x200003e0   Data           4  tasks.o(.data)
    xIdleTaskHandle                          0x200003e4   Data           4  tasks.o(.data)
    uxSchedulerSuspended                     0x200003e8   Data           4  tasks.o(.data)
    .data                                    0x200003ec   Section       20  timers.o(.data)
    pxCurrentTimerList                       0x200003ec   Data           4  timers.o(.data)
    pxOverflowTimerList                      0x200003f0   Data           4  timers.o(.data)
    xTimerQueue                              0x200003f4   Data           4  timers.o(.data)
    xTimerTaskHandle                         0x200003f8   Data           4  timers.o(.data)
    xLastTime                                0x200003fc   Data           4  timers.o(.data)
    .data                                    0x20000400   Section      208  lev_gauge_to_pc.o(.data)
    TmrHigherPriorityTaskWoken               0x20000400   Data           4  lev_gauge_to_pc.o(.data)
    Int1HigherPriorityTaskWoken              0x20000404   Data           4  lev_gauge_to_pc.o(.data)
    .data                                    0x200004d0   Section        4  system_stm32l4xx.o(.data)
    .data                                    0x200004d4   Section        4  cpp_dtor.o(.data)
    ddtor_pointer                            0x200004d4   Data           4  cpp_dtor.o(.data)
    .data                                    0x200004d8   Section        4  mvars.o(.data)
    .data                                    0x200004dc   Section        4  mvars.o(.data)
    .bss                                     0x200004e0   Section       16  button.o(.bss)
    .bss                                     0x200004f0   Section       32  led.o(.bss)
    .bss                                     0x20000510   Section      104  ad8402.o(.bss)
    .bss                                     0x20000578   Section      184  model.o(.bss)
    .bss                                     0x20000630   Section     4096  heap_2.o(.bss)
    ucHeap                                   0x20000630   Data        4096  heap_2.o(.bss)
    .bss                                     0x20001630   Section       64  queue.o(.bss)
    .bss                                     0x20001670   Section      240  tasks.o(.bss)
    pxReadyTasksLists                        0x20001670   Data         140  tasks.o(.bss)
    xDelayedTaskList1                        0x200016fc   Data          20  tasks.o(.bss)
    xDelayedTaskList2                        0x20001710   Data          20  tasks.o(.bss)
    xPendingReadyList                        0x20001724   Data          20  tasks.o(.bss)
    xTasksWaitingTermination                 0x20001738   Data          20  tasks.o(.bss)
    xSuspendedTaskList                       0x2000174c   Data          20  tasks.o(.bss)
    .bss                                     0x20001760   Section       40  timers.o(.bss)
    xActiveTimerList1                        0x20001760   Data          20  timers.o(.bss)
    xActiveTimerList2                        0x20001774   Data          20  timers.o(.bss)
    .bss                                     0x20001788   Section       46  settings.o(.bss)
    .bss                                     0x200017b8   Section    30088  lev_gauge_to_pc.o(.bss)

    Global Symbols

    Symbol Name                              Value     Ov Type        Size  Object(Section)

    BuildAttributes$$THM_ISAv4$E$P$D$K$B$S$7EM$VFPi3$EXTD16$VFPS$VFMA$PE$A:L22UL41UL21$X:L11$S22US41US21$IEEE1$IW$USESV6$~STKCKD$USESV7$~SHL$OSPACE$EBA8$MICROLIB$REQ8$PRES8$EABIv2 0x00000000   Number         0  anon$$obj.o ABSOLUTE
    __ARM_use_no_argv                        0x00000000   Number         0  main.o ABSOLUTE
    _clock_init                               - Undefined Weak Reference
    _microlib_exit                            - Undefined Weak Reference
    __Vectors_Size                           0x0000018c   Number         0  startup_stm32l431xx.o ABSOLUTE
    Load$$LR$$LR_IROM1$$Length               0x00005fbc   Number         0  anon$$obj.o ABSOLUTE
    Load$$LR$$LR_IROM1$$Base                 0x08000000   Number         0  anon$$obj.o ABSOLUTE
    __Vectors                                0x08000000   Data           4  startup_stm32l431xx.o(RESET)
    __dso_handle                             0x08000000   Number         0  startup_stm32l431xx.o(RESET)
    __Vectors_End                            0x0800018c   Data           0  startup_stm32l431xx.o(RESET)
    __main                                   0x0800018d   Thumb Code     0  entry.o(.ARM.Collect$$$$00000000)
    _main_stk                                0x0800018d   Thumb Code     0  entry2.o(.ARM.Collect$$$$00000001)
    _main_scatterload                        0x08000191   Thumb Code     0  entry5.o(.ARM.Collect$$$$00000004)
    __main_after_scatterload                 0x08000195   Thumb Code     0  entry5.o(.ARM.Collect$$$$00000004)
    _main_clock                              0x08000195   Thumb Code     0  entry7b.o(.ARM.Collect$$$$00000008)
    _main_cpp_init$empty                     0x08000195   Thumb Code     0  entry8a.o(.ARM.Collect$$$$00000009)
    _main_cpp_init                           0x08000199   Thumb Code     0  entry8b.o(.ARM.Collect$$$$0000000A)
    _main_init                               0x08000199   Thumb Code     0  entry9a.o(.ARM.Collect$$$$0000000B)
    __rt_final_cpp                           0x080001a1   Thumb Code     0  entry10a.o(.ARM.Collect$$$$0000000D)
    __rt_final_cpp$nonempty                  0x080001a1   Thumb Code     0  entry10b.o(.ARM.Collect$$$$0000000E)
    __rt_final_exit                          0x080001a5   Thumb Code     0  entry11a.o(.ARM.Collect$$$$0000000F)
    SVC_Handler                              0x080001a9   Thumb Code    28  port.o(.emb_text)
    __asm___6_port_c_39a90d8d__prvStartFirstTask 0x080001c9   Thumb Code    36  port.o(.emb_text)
    __asm___6_port_c_39a90d8d__prvEnableVFP  0x080001f1   Thumb Code    16  port.o(.emb_text)
    PendSV_Handler                           0x08000205   Thumb Code    88  port.o(.emb_text)
    vPortGetIPSR                             0x08000261   Thumb Code     6  port.o(.emb_text)
    Reset_Handler                            0x08000289   Thumb Code     8  startup_stm32l431xx.o(.text)
    NMI_Handler                              0x08000291   Thumb Code     2  startup_stm32l431xx.o(.text)
    HardFault_Handler                        0x08000293   Thumb Code     2  startup_stm32l431xx.o(.text)
    MemManage_Handler                        0x08000295   Thumb Code     2  startup_stm32l431xx.o(.text)
    BusFault_Handler                         0x08000297   Thumb Code     2  startup_stm32l431xx.o(.text)
    UsageFault_Handler                       0x08000299   Thumb Code     2  startup_stm32l431xx.o(.text)
    DebugMon_Handler                         0x0800029d   Thumb Code     2  startup_stm32l431xx.o(.text)
    ADC1_IRQHandler                          0x080002a3   Thumb Code     0  startup_stm32l431xx.o(.text)
    CAN1_RX0_IRQHandler                      0x080002a3   Thumb Code     0  startup_stm32l431xx.o(.text)
    CAN1_RX1_IRQHandler                      0x080002a3   Thumb Code     0  startup_stm32l431xx.o(.text)
    CAN1_SCE_IRQHandler                      0x080002a3   Thumb Code     0  startup_stm32l431xx.o(.text)
    CAN1_TX_IRQHandler                       0x080002a3   Thumb Code     0  startup_stm32l431xx.o(.text)
    COMP_IRQHandler                          0x080002a3   Thumb Code     0  startup_stm32l431xx.o(.text)
    CRS_IRQHandler                           0x080002a3   Thumb Code     0  startup_stm32l431xx.o(.text)
    DMA1_Channel1_IRQHandler                 0x080002a3   Thumb Code     0  startup_stm32l431xx.o(.text)
    DMA1_Channel2_IRQHandler                 0x080002a3   Thumb Code     0  startup_stm32l431xx.o(.text)
    DMA1_Channel3_IRQHandler                 0x080002a3   Thumb Code     0  startup_stm32l431xx.o(.text)
    DMA1_Channel4_IRQHandler                 0x080002a3   Thumb Code     0  startup_stm32l431xx.o(.text)
    DMA1_Channel5_IRQHandler                 0x080002a3   Thumb Code     0  startup_stm32l431xx.o(.text)
    DMA1_Channel6_IRQHandler                 0x080002a3   Thumb Code     0  startup_stm32l431xx.o(.text)
    DMA1_Channel7_IRQHandler                 0x080002a3   Thumb Code     0  startup_stm32l431xx.o(.text)
    DMA2_Channel1_IRQHandler                 0x080002a3   Thumb Code     0  startup_stm32l431xx.o(.text)
    DMA2_Channel2_IRQHandler                 0x080002a3   Thumb Code     0  startup_stm32l431xx.o(.text)
    DMA2_Channel3_IRQHandler                 0x080002a3   Thumb Code     0  startup_stm32l431xx.o(.text)
    DMA2_Channel4_IRQHandler                 0x080002a3   Thumb Code     0  startup_stm32l431xx.o(.text)
    DMA2_Channel5_IRQHandler                 0x080002a3   Thumb Code     0  startup_stm32l431xx.o(.text)
    DMA2_Channel6_IRQHandler                 0x080002a3   Thumb Code     0  startup_stm32l431xx.o(.text)
    DMA2_Channel7_IRQHandler                 0x080002a3   Thumb Code     0  startup_stm32l431xx.o(.text)
    EXTI0_IRQHandler                         0x080002a3   Thumb Code     0  startup_stm32l431xx.o(.text)
    EXTI1_IRQHandler                         0x080002a3   Thumb Code     0  startup_stm32l431xx.o(.text)
    EXTI2_IRQHandler                         0x080002a3   Thumb Code     0  startup_stm32l431xx.o(.text)
    EXTI3_IRQHandler                         0x080002a3   Thumb Code     0  startup_stm32l431xx.o(.text)
    EXTI4_IRQHandler                         0x080002a3   Thumb Code     0  startup_stm32l431xx.o(.text)
    EXTI9_5_IRQHandler                       0x080002a3   Thumb Code     0  startup_stm32l431xx.o(.text)
    FPU_IRQHandler                           0x080002a3   Thumb Code     0  startup_stm32l431xx.o(.text)
    I2C3_ER_IRQHandler                       0x080002a3   Thumb Code     0  startup_stm32l431xx.o(.text)
    I2C3_EV_IRQHandler                       0x080002a3   Thumb Code     0  startup_stm32l431xx.o(.text)
    LPTIM1_IRQHandler                        0x080002a3   Thumb Code     0  startup_stm32l431xx.o(.text)
    LPTIM2_IRQHandler                        0x080002a3   Thumb Code     0  startup_stm32l431xx.o(.text)
    LPUART1_IRQHandler                       0x080002a3   Thumb Code     0  startup_stm32l431xx.o(.text)
    PVD_PVM_IRQHandler                       0x080002a3   Thumb Code     0  startup_stm32l431xx.o(.text)
    QUADSPI_IRQHandler                       0x080002a3   Thumb Code     0  startup_stm32l431xx.o(.text)
    RCC_IRQHandler                           0x080002a3   Thumb Code     0  startup_stm32l431xx.o(.text)
    RNG_IRQHandler                           0x080002a3   Thumb Code     0  startup_stm32l431xx.o(.text)
    RTC_Alarm_IRQHandler                     0x080002a3   Thumb Code     0  startup_stm32l431xx.o(.text)
    RTC_WKUP_IRQHandler                      0x080002a3   Thumb Code     0  startup_stm32l431xx.o(.text)
    SAI1_IRQHandler                          0x080002a3   Thumb Code     0  startup_stm32l431xx.o(.text)
    SDMMC1_IRQHandler                        0x080002a3   Thumb Code     0  startup_stm32l431xx.o(.text)
    SPI1_IRQHandler                          0x080002a3   Thumb Code     0  startup_stm32l431xx.o(.text)
    SPI2_IRQHandler                          0x080002a3   Thumb Code     0  startup_stm32l431xx.o(.text)
    SPI3_IRQHandler                          0x080002a3   Thumb Code     0  startup_stm32l431xx.o(.text)
    SWPMI1_IRQHandler                        0x080002a3   Thumb Code     0  startup_stm32l431xx.o(.text)
    TAMP_STAMP_IRQHandler                    0x080002a3   Thumb Code     0  startup_stm32l431xx.o(.text)
    TIM1_CC_IRQHandler                       0x080002a3   Thumb Code     0  startup_stm32l431xx.o(.text)
    TIM1_TRG_COM_IRQHandler                  0x080002a3   Thumb Code     0  startup_stm32l431xx.o(.text)
    TIM1_UP_TIM16_IRQHandler                 0x080002a3   Thumb Code     0  startup_stm32l431xx.o(.text)
    TIM2_IRQHandler                          0x080002a3   Thumb Code     0  startup_stm32l431xx.o(.text)
    TIM7_IRQHandler                          0x080002a3   Thumb Code     0  startup_stm32l431xx.o(.text)
    TSC_IRQHandler                           0x080002a3   Thumb Code     0  startup_stm32l431xx.o(.text)
    USART1_IRQHandler                        0x080002a3   Thumb Code     0  startup_stm32l431xx.o(.text)
    USART2_IRQHandler                        0x080002a3   Thumb Code     0  startup_stm32l431xx.o(.text)
    USART3_IRQHandler                        0x080002a3   Thumb Code     0  startup_stm32l431xx.o(.text)
    WWDG_IRQHandler                          0x080002a3   Thumb Code     0  startup_stm32l431xx.o(.text)
    __aeabi_memcpy                           0x080002ad   Thumb Code    36  memcpya.o(.text)
    __aeabi_memcpy4                          0x080002ad   Thumb Code     0  memcpya.o(.text)
    __aeabi_memcpy8                          0x080002ad   Thumb Code     0  memcpya.o(.text)
    __aeabi_memset                           0x080002d1   Thumb Code    14  memseta.o(.text)
    __aeabi_memset4                          0x080002d1   Thumb Code     0  memseta.o(.text)
    __aeabi_memset8                          0x080002d1   Thumb Code     0  memseta.o(.text)
    __aeabi_memclr                           0x080002df   Thumb Code     4  memseta.o(.text)
    __aeabi_memclr4                          0x080002df   Thumb Code     0  memseta.o(.text)
    __aeabi_memclr8                          0x080002df   Thumb Code     0  memseta.o(.text)
    _memset$wrapper                          0x080002e3   Thumb Code    18  memseta.o(.text)
    __cpp_initialize__aeabi_                 0x080002f5   Thumb Code    22  cpp_init.o(.text)
    __aeabi_atexit                           0x08000315   Thumb Code    46  aeabi_atexit.o(.text)
    __rt_ddtor_pointer_addr                  0x08000345   Thumb Code     4  cpp_dtor.o(.text)
    __cxa_finalize                           0x0800034d   Thumb Code    66  cxa_finalize.o(.text)
    __scatterload                            0x08000391   Thumb Code    28  init.o(.text)
    __scatterload_rt2                        0x08000391   Thumb Code     0  init.o(.text)
    __rt_lib_shutdown_cpp_2                  0x080003b5   Thumb Code     2  cpp_final.o(.text)
    __decompress                             0x080003b7   Thumb Code     0  __dczerorl2.o(.text)
    __decompress1                            0x080003b7   Thumb Code    86  __dczerorl2.o(.text)
    EXTI15_10_IRQHandler                     0x0800040d   Thumb Code    84  lev_gauge_to_pc.o(i.EXTI15_10_IRQHandler)
    FLASH_IRQHandler                         0x08000475   Thumb Code    12  flash_driver.o(i.FLASH_IRQHandler)
    I2C1_ER_IRQHandler                       0x08000485   Thumb Code     2  i2c_driver.o(i.I2C1_ER_IRQHandler)
    I2C1_EV_IRQHandler                       0x08000489   Thumb Code    80  i2c_driver.o(i.I2C1_EV_IRQHandler)
    I2C2_ER_IRQHandler                       0x080004e1   Thumb Code     2  i2c_driver.o(i.I2C2_ER_IRQHandler)
    I2C2_EV_IRQHandler                       0x080004e3   Thumb Code     2  i2c_driver.o(i.I2C2_EV_IRQHandler)
    LL_EXTI_DeInit                           0x080004e5   Thumb Code    68  stm32l4xx_ll_exti.o(i.LL_EXTI_DeInit)
    LL_EXTI_Init                             0x080005f1   Thumb Code   358  stm32l4xx_ll_exti.o(i.LL_EXTI_Init)
    LL_GPIO_Init                             0x0800075d   Thumb Code   324  stm32l4xx_ll_gpio.o(i.LL_GPIO_Init)
    LL_Init1msTick                           0x080008a1   Thumb Code    28  stm32l4xx_ll_utils.o(i.LL_Init1msTick)
    LL_RCC_GetSystemClocksFreq               0x080008bd   Thumb Code    36  stm32l4xx_ll_rcc.o(i.LL_RCC_GetSystemClocksFreq)
    LL_RCC_GetUSARTClockFreq                 0x080008e1   Thumb Code   278  stm32l4xx_ll_rcc.o(i.LL_RCC_GetUSARTClockFreq)
    LL_SetSystemCoreClock                    0x08000a91   Thumb Code     6  stm32l4xx_ll_utils.o(i.LL_SetSystemCoreClock)
    LL_TIM_Init                              0x08000a9d   Thumb Code   118  stm32l4xx_ll_tim.o(i.LL_TIM_Init)
    LL_USART_Init                            0x08000b21   Thumb Code   208  stm32l4xx_ll_usart.o(i.LL_USART_Init)
    RCC_GetHCLKClockFreq                     0x08000c0d   Thumb Code    24  stm32l4xx_ll_rcc.o(i.RCC_GetHCLKClockFreq)
    RCC_GetPCLK1ClockFreq                    0x08000c2d   Thumb Code    26  stm32l4xx_ll_rcc.o(i.RCC_GetPCLK1ClockFreq)
    RCC_GetPCLK2ClockFreq                    0x08000c51   Thumb Code    26  stm32l4xx_ll_rcc.o(i.RCC_GetPCLK2ClockFreq)
    RCC_GetSystemClockFreq                   0x08000c75   Thumb Code   172  stm32l4xx_ll_rcc.o(i.RCC_GetSystemClockFreq)
    RCC_PLL_GetFreqDomain_SYS                0x08000d31   Thumb Code   198  stm32l4xx_ll_rcc.o(i.RCC_PLL_GetFreqDomain_SYS)
    SysTick_Handler                          0x08000e09   Thumb Code    46  port.o(i.SysTick_Handler)
    SystemInit                               0x08000e3d   Thumb Code    68  system_stm32l4xx.o(i.SystemInit)
    TIM1_BRK_TIM15_IRQHandler                0x08000e8d   Thumb Code   100  lev_gauge_to_pc.o(i.TIM1_BRK_TIM15_IRQHandler)
    TIM6_DAC_IRQHandler                      0x08000f05   Thumb Code    44  flash_driver.o(i.TIM6_DAC_IRQHandler)
    FLASH_Lock()                             0x08000f3d   Thumb Code    14  old_flash_lib.o(i._Z10FLASH_Lockv)
    cfg_sys_clk()                            0x08000f51   Thumb Code   570  main.o(i._Z11cfg_sys_clkv)
    FLASH_Unlock()                           0x080011a5   Thumb Code    22  old_flash_lib.o(i._Z12FLASH_Unlockv)
    FLASH_GetStatus()                        0x080011c9   Thumb Code    52  old_flash_lib.o(i._Z15FLASH_GetStatusv)
    lev_gauge_to_pc(void*)                   0x08001201   Thumb Code   246  lev_gauge_to_pc.o(i._Z15lev_gauge_to_pcPv)
    TExtMaster::all_pkt_tx(const unsigned char*, unsigned short) 0x08001309   Thumb Code    56  ext_master.o(i._ZN10TExtMaster10all_pkt_txEPKht)
    TExtMaster::no_wrap_tx(const unsigned char*, unsigned short) 0x08001341   Thumb Code     6  ext_master.o(i._ZN10TExtMaster10no_wrap_txEPKht)
    TExtMaster::start_wrap_tx(const unsigned char*, unsigned short) 0x08001347   Thumb Code    46  ext_master.o(i._ZN10TExtMaster13start_wrap_txEPKht)
    TExtMaster::finish_wrap_tx(const unsigned char*, unsigned short) 0x08001375   Thumb Code    12  ext_master.o(i._ZN10TExtMaster14finish_wrap_txEPKht)
    TExtMaster::tx_data(const unsigned char*, unsigned short, TExtMaster::TWrapTxSign) 0x08001381   Thumb Code   128  ext_master.o(i._ZN10TExtMaster7tx_dataEPKhtNS_11TWrapTxSignE)
    TExtMaster::get_data()                   0x0800140b   Thumb Code    14  ext_master.o(i._ZN10TExtMaster8get_dataEv)
    TExtMaster::parse_pkt()                  0x08001419   Thumb Code   118  ext_master.o(i._ZN10TExtMaster9parse_pktEv)
    TExtMaster::TExtMaster(const TUsart_HW&) 0x08001491   Thumb Code    38  ext_master.o(i._ZN10TExtMasterC1ERK9TUsart_HW)
    TExtMaster::TExtMaster__sub_object(const TUsart_HW&) 0x08001491   Thumb Code     0  ext_master.o(i._ZN10TExtMasterC1ERK9TUsart_HW)
    TExtMaster::~TExtMaster()                0x080014bd   Thumb Code    16  ext_master.o(i._ZN10TExtMasterD1Ev)
    TExtMaster::~TExtMaster__sub_object()    0x080014bd   Thumb Code     0  ext_master.o(i._ZN10TExtMasterD1Ev)
    TExchngToPC::rx_set_freg(TExchngToPC::TParamHandle*) 0x080014cd   Thumb Code    16  lev_gauge_to_pc.o(i._ZN11TExchngToPC11rx_set_fregEPNS_12TParamHandleE)
    TExchngToPC::tx_set_freg(TExchngToPC::TParamHandle*) 0x080014dd   Thumb Code    20  lev_gauge_to_pc.o(i._ZN11TExchngToPC11tx_set_fregEPNS_12TParamHandleE)
    TExchngToPC::rx_start_adc(TExchngToPC::TParamHandle*) 0x080014f1   Thumb Code   488  lev_gauge_to_pc.o(i._ZN11TExchngToPC12rx_start_adcEPNS_12TParamHandleE)
    TExchngToPC::tmr_cmp_init()              0x080016e9   Thumb Code   170  lev_gauge_to_pc.o(i._ZN11TExchngToPC12tmr_cmp_initEv)
    TExchngToPC::set_diff_freq(unsigned short) 0x08001793   Thumb Code    20  lev_gauge_to_pc.o(i._ZN11TExchngToPC13set_diff_freqEt)
    TExchngToPC::tmr_diff_init()             0x080017a7   Thumb Code   176  lev_gauge_to_pc.o(i._ZN11TExchngToPC13tmr_diff_initEv)
    TExchngToPC::tmr_freg_init()             0x08001857   Thumb Code   286  lev_gauge_to_pc.o(i._ZN11TExchngToPC13tmr_freg_initEv)
    TExchngToPC::init_diff_exti(unsigned)    0x08001975   Thumb Code   216  lev_gauge_to_pc.o(i._ZN11TExchngToPC14init_diff_extiEj)
    TExchngToPC::rx_cmp_capture(TExchngToPC::TParamHandle*) 0x08001a51   Thumb Code   116  lev_gauge_to_pc.o(i._ZN11TExchngToPC14rx_cmp_captureEPNS_12TParamHandleE)
    TExchngToPC::tx_cmp_capture(TExchngToPC::TParamHandle*) 0x08001ad1   Thumb Code    56  lev_gauge_to_pc.o(i._ZN11TExchngToPC14tx_cmp_captureEPNS_12TParamHandleE)
    TExchngToPC::rx_diff_capture(TExchngToPC::TParamHandle*) 0x08001b09   Thumb Code   206  lev_gauge_to_pc.o(i._ZN11TExchngToPC15rx_diff_captureEPNS_12TParamHandleE)
    TExchngToPC::tx_diff_capture(TExchngToPC::TParamHandle*) 0x08001be5   Thumb Code    56  lev_gauge_to_pc.o(i._ZN11TExchngToPC15tx_diff_captureEPNS_12TParamHandleE)
    TExchngToPC::deinit_diff_exti()          0x08001c1d   Thumb Code    10  lev_gauge_to_pc.o(i._ZN11TExchngToPC16deinit_diff_extiEv)
    TExchngToPC::rx_set_pos_pot_1(TExchngToPC::TParamHandle*) 0x08001c29   Thumb Code    68  lev_gauge_to_pc.o(i._ZN11TExchngToPC16rx_set_pos_pot_1EPNS_12TParamHandleE)
    TExchngToPC::rx_set_pos_pot_2(TExchngToPC::TParamHandle*) 0x08001c71   Thumb Code    68  lev_gauge_to_pc.o(i._ZN11TExchngToPC16rx_set_pos_pot_2EPNS_12TParamHandleE)
    TExchngToPC::tx_set_pos_pot_1(TExchngToPC::TParamHandle*) 0x08001cb9   Thumb Code    20  lev_gauge_to_pc.o(i._ZN11TExchngToPC16tx_set_pos_pot_1EPNS_12TParamHandleE)
    TExchngToPC::tx_set_pos_pot_2(TExchngToPC::TParamHandle*) 0x08001ccd   Thumb Code    20  lev_gauge_to_pc.o(i._ZN11TExchngToPC16tx_set_pos_pot_2EPNS_12TParamHandleE)
    TExchngToPC::rx_set_duty_cycle(TExchngToPC::TParamHandle*) 0x08001ce1   Thumb Code    16  lev_gauge_to_pc.o(i._ZN11TExchngToPC17rx_set_duty_cycleEPNS_12TParamHandleE)
    TExchngToPC::tx_set_duty_cycle(TExchngToPC::TParamHandle*) 0x08001cf1   Thumb Code    20  lev_gauge_to_pc.o(i._ZN11TExchngToPC17tx_set_duty_cycleEPNS_12TParamHandleE)
    TExchngToPC::get_upd_demand_flag()       0x08001d05   Thumb Code    14  lev_gauge_to_pc.o(i._ZN11TExchngToPC19get_upd_demand_flagEv)
    TExchngToPC::set_upd_demand_flag(bool)   0x08001d13   Thumb Code    10  lev_gauge_to_pc.o(i._ZN11TExchngToPC19set_upd_demand_flagEb)
    TExchngToPC::iserr(float)                0x08001d1d   Thumb Code    22  lev_gauge_to_pc.o(i._ZN11TExchngToPC5iserrEf)
    TExchngToPC::en_adc()                    0x08001d35   Thumb Code    50  lev_gauge_to_pc.o(i._ZN11TExchngToPC6en_adcEv)
    TExchngToPC::tx_adc(TExchngToPC::TParamHandle*) 0x08001d6d   Thumb Code    56  lev_gauge_to_pc.o(i._ZN11TExchngToPC6tx_adcEPNS_12TParamHandleE)
    TExchngToPC::adc_cal()                   0x08001da5   Thumb Code   114  lev_gauge_to_pc.o(i._ZN11TExchngToPC7adc_calEv)
    TExchngToPC::cnt_pwm()                   0x08001e1d   Thumb Code   340  lev_gauge_to_pc.o(i._ZN11TExchngToPC7cnt_pwmEv)
    TExchngToPC::dis_adc()                   0x08001f79   Thumb Code   120  lev_gauge_to_pc.o(i._ZN11TExchngToPC7dis_adcEv)
    TExchngToPC::set_pwm(const TExchngToPC::TPwm&) 0x08001ff5   Thumb Code    38  lev_gauge_to_pc.o(i._ZN11TExchngToPC7set_pwmERKNS_4TPwmE)
    TExchngToPC::tx_test(TExchngToPC::TParamHandle*) 0x0800201b   Thumb Code    20  lev_gauge_to_pc.o(i._ZN11TExchngToPC7tx_testEPNS_12TParamHandleE)
    TExchngToPC::adc_init()                  0x08002031   Thumb Code   130  lev_gauge_to_pc.o(i._ZN11TExchngToPC8adc_initEv)
    TExchngToPC::ctrl_pwm(TExchngToPC::TParamHandle*) 0x080020c1   Thumb Code    68  lev_gauge_to_pc.o(i._ZN11TExchngToPC8ctrl_pwmEPNS_12TParamHandleE)
    TExchngToPC::chk_range(float, const TExchngToPC::TRange&) 0x08002109   Thumb Code    68  lev_gauge_to_pc.o(i._ZN11TExchngToPC9chk_rangeEfRKNS_6TRangeE)
    TExchngToPC::TExchngToPC(const TUsart_HW&, const TTmr_HW&, const TTmr_HW&, const TTmr_HW&, const TAdc_HW&) 0x0800214d   Thumb Code    82  lev_gauge_to_pc.o(i._ZN11TExchngToPCC1ERK9TUsart_HWRK7TTmr_HWS5_S5_RK7TAdc_HW)
    TExchngToPC::TExchngToPC__sub_object(const TUsart_HW&, const TTmr_HW&, const TTmr_HW&, const TTmr_HW&, const TAdc_HW&) 0x0800214d   Thumb Code     0  lev_gauge_to_pc.o(i._ZN11TExchngToPCC1ERK9TUsart_HWRK7TTmr_HWS5_S5_RK7TAdc_HW)
    TExchngToPC::~TExchngToPC()              0x080021a9   Thumb Code    16  lev_gauge_to_pc.o(i._ZN11TExchngToPCD1Ev)
    TExchngToPC::~TExchngToPC__sub_object()  0x080021a9   Thumb Code     0  lev_gauge_to_pc.o(i._ZN11TExchngToPCD1Ev)
    T_RS_485_phy::get_config()               0x080021b9   Thumb Code     6  rs-485_phy.o(i._ZN12T_RS_485_phy10get_configEv)
    T_RS_485_phy::T_RS_485_phy()             0x080021bf   Thumb Code     8  rs-485_phy.o(i._ZN12T_RS_485_phyC1Ev)
    T_RS_485_phy::T_RS_485_phy__sub_object() 0x080021bf   Thumb Code     0  rs-485_phy.o(i._ZN12T_RS_485_phyC1Ev)
    T_RS_485_phy::~T_RS_485_phy()            0x080021c7   Thumb Code     2  rs-485_phy.o(i._ZN12T_RS_485_phyD1Ev)
    T_RS_485_phy::~T_RS_485_phy__sub_object() 0x080021c7   Thumb Code     0  rs-485_phy.o(i._ZN12T_RS_485_phyD1Ev)
    TLed::on()                               0x08002e61   Thumb Code    10  led.o(i._ZN4TLed2onEv)
    TLed::off()                              0x08002e6b   Thumb Code    14  led.o(i._ZN4TLed3offEv)
    TLed::init()                             0x08002e79   Thumb Code    56  led.o(i._ZN4TLed4initEv)
    TLed::TLed(const TPin&, void**)          0x08002eb1   Thumb Code    14  led.o(i._ZN4TLedC1ERK4TPinPPv)
    TLed::TLed__sub_object(const TPin&, void**) 0x08002eb1   Thumb Code     0  led.o(i._ZN4TLedC1ERK4TPinPPv)
    TLed::~TLed()                            0x08002ebf   Thumb Code     2  led.o(i._ZN4TLedD1Ev)
    TLed::~TLed__sub_object()                0x08002ebf   Thumb Code     0  led.o(i._ZN4TLedD1Ev)
    TFlash::write_sets(const unsigned char*, unsigned short) 0x08002ec1   Thumb Code    54  flash_driver.o(i._ZN6TFlash10write_setsEPKht)
    TFlash::get_sets(unsigned char*, unsigned short) 0x08002efd   Thumb Code    40  flash_driver.o(i._ZN6TFlash8get_setsEPht)
    TFlash::init_tmr()                       0x08002f29   Thumb Code   334  flash_driver.o(i._ZN6TFlash8init_tmrEv)
    TFlash::TFlash()                         0x0800308d   Thumb Code    22  flash_driver.o(i._ZN6TFlashC1Ev)
    TFlash::TFlash__sub_object()             0x0800308d   Thumb Code     0  flash_driver.o(i._ZN6TFlashC1Ev)
    TFlash::~TFlash()                        0x080030a9   Thumb Code     2  flash_driver.o(i._ZN6TFlashD1Ev)
    TFlash::~TFlash__sub_object()            0x080030a9   Thumb Code     0  flash_driver.o(i._ZN6TFlashD1Ev)
    TModel::set_access(TSettings::TAccess)   0x080030ab   Thumb Code    50  model.o(i._ZN6TModel10set_accessEN9TSettings7TAccessE)
    TModel::get_psw_admin()                  0x080030dd   Thumb Code    22  model.o(i._ZN6TModel13get_psw_adminEv)
    TModel::get_psw_super()                  0x080030f3   Thumb Code    22  model.o(i._ZN6TModel13get_psw_superEv)
    TModel::handler_calib(short, bool*)      0x08003109   Thumb Code    16  model.o(i._ZN6TModel13handler_calibEsPb)
    TModel::handler_access(short, bool*)     0x08003119   Thumb Code   174  model.o(i._ZN6TModel14handler_accessEsPb)
    TModel::get_calib_process()              0x080031c7   Thumb Code    52  model.o(i._ZN6TModel17get_calib_processEv)
    TModel::set_calib_process(TSettings::TCalibProcess) 0x080031fb   Thumb Code    50  model.o(i._ZN6TModel17set_calib_processEN9TSettings13TCalibProcessE)
    TModel::set_authorize_item_ptr(const TModel::TAuthorize*) 0x0800322d   Thumb Code     6  model.o(i._ZN6TModel22set_authorize_item_ptrEPKNS_10TAuthorizeE)
    TModel::TModel(void*&)                   0x08003235   Thumb Code   182  model.o(i._ZN6TModelC1ERPv)
    TModel::TModel__sub_object(void*&)       0x08003235   Thumb Code     0  model.o(i._ZN6TModelC1ERPv)
    TModel::~TModel()                        0x080032fd   Thumb Code    16  model.o(i._ZN6TModelD1Ev)
    TModel::~TModel__sub_object()            0x080032fd   Thumb Code     0  model.o(i._ZN6TModelD1Ev)
    TUsart::disable_rx()                     0x0800330d   Thumb Code    18  usart_driver_.o(i._ZN6TUsart10disable_rxEv)
    TUsart::set_485_hd(unsigned, unsigned)   0x0800331f   Thumb Code    94  usart_driver_.o(i._ZN6TUsart10set_485_hdEjj)
    TUsart::write_burst(const unsigned char*, unsigned short) 0x0800337d   Thumb Code   108  usart_driver_.o(i._ZN6TUsart11write_burstEPKht)
    TUsart::pin_clk_config()                 0x080033e9   Thumb Code   150  usart_driver_.o(i._ZN6TUsart14pin_clk_configEv)
    TUsart::clr_error_flags()                0x08003485   Thumb Code    42  usart_driver_.o(i._ZN6TUsart15clr_error_flagsEv)
    TUsart::hw_init(unsigned char)           0x080034b1   Thumb Code   288  usart_driver_.o(i._ZN6TUsart7hw_initEh)
    TUsart::set_232(unsigned, unsigned)      0x080035e5   Thumb Code    24  usart_driver_.o(i._ZN6TUsart7set_232Ejj)
    TUsart::enable_rx()                      0x080035fd   Thumb Code    18  usart_driver_.o(i._ZN6TUsart9enable_rxEv)
    TUsart::read_byte()                      0x0800360f   Thumb Code    34  usart_driver_.o(i._ZN6TUsart9read_byteEv)
    TUsart::TUsart(const TUsart_HW&, const TUsart::TSets&, TUsart::TMode) 0x08003631   Thumb Code    40  usart_driver_.o(i._ZN6TUsartC1ERK9TUsart_HWRKNS_5TSetsENS_5TModeE)
    TUsart::TUsart__sub_object(const TUsart_HW&, const TUsart::TSets&, TUsart::TMode) 0x08003631   Thumb Code     0  usart_driver_.o(i._ZN6TUsartC1ERK9TUsart_HWRKNS_5TSetsENS_5TModeE)
    TUsart::~TUsart()                        0x08003659   Thumb Code    16  usart_driver_.o(i._ZN6TUsartD1Ev)
    TUsart::~TUsart__sub_object()            0x08003659   Thumb Code     0  usart_driver_.o(i._ZN6TUsartD1Ev)
    TButton::TButton(const TPin&)            0x08003669   Thumb Code     4  button.o(i._ZN7TButtonC1ERK4TPin)
    TButton::TButton__sub_object(const TPin&) 0x08003669   Thumb Code     0  button.o(i._ZN7TButtonC1ERK4TPin)
    TButton::~TButton()                      0x0800366d   Thumb Code     2  button.o(i._ZN7TButtonD1Ev)
    TButton::~TButton__sub_object()          0x0800366d   Thumb Code     0  button.o(i._ZN7TButtonD1Ev)
    T_AD8402::reverse_bits(unsigned char)    0x0800366f   Thumb Code    42  ad8402.o(i._ZN8T_AD840212reverse_bitsEh)
    T_AD8402::data_bit_ctrl(unsigned char*)  0x08003699   Thumb Code   126  ad8402.o(i._ZN8T_AD840213data_bit_ctrlEPh)
    T_AD8402::init()                         0x08003723   Thumb Code   174  ad8402.o(i._ZN8T_AD84024initEv)
    T_AD8402::rs_set()                       0x080037d1   Thumb Code    14  ad8402.o(i._ZN8T_AD84026rs_setEv)
    T_AD8402::clk_clr()                      0x080037df   Thumb Code    14  ad8402.o(i._ZN8T_AD84027clk_clrEv)
    T_AD8402::clk_set()                      0x080037ed   Thumb Code    14  ad8402.o(i._ZN8T_AD84027clk_setEv)
    T_AD8402::sdi_clr()                      0x080037fb   Thumb Code    14  ad8402.o(i._ZN8T_AD84027sdi_clrEv)
    T_AD8402::sdi_set()                      0x08003809   Thumb Code    14  ad8402.o(i._ZN8T_AD84027sdi_setEv)
    T_AD8402::set_code(unsigned char, T_AD8402::TChannel) 0x08003819   Thumb Code   176  ad8402.o(i._ZN8T_AD84028set_codeEhNS_8TChannelE)
    T_AD8402::shdn_clr()                     0x080038d9   Thumb Code    14  ad8402.o(i._ZN8T_AD84028shdn_clrEv)
    T_AD8402::shdn_set()                     0x080038e7   Thumb Code    14  ad8402.o(i._ZN8T_AD84028shdn_setEv)
    T_AD8402::latch_clr()                    0x080038f5   Thumb Code    14  ad8402.o(i._ZN8T_AD84029latch_clrEv)
    T_AD8402::latch_set()                    0x08003903   Thumb Code    14  ad8402.o(i._ZN8T_AD84029latch_setEv)
    T_AD8402::T_AD8402(const TPot_HW&)       0x08003911   Thumb Code    28  ad8402.o(i._ZN8T_AD8402C1ERK7TPot_HW)
    T_AD8402::T_AD8402__sub_object(const TPot_HW&) 0x08003911   Thumb Code     0  ad8402.o(i._ZN8T_AD8402C1ERK7TPot_HW)
    T_AD8402::~T_AD8402()                    0x08003931   Thumb Code     2  ad8402.o(i._ZN8T_AD8402D1Ev)
    T_AD8402::~T_AD8402__sub_object()        0x08003931   Thumb Code     0  ad8402.o(i._ZN8T_AD8402D1Ev)
    TSettings::TSettings()                   0x08003935   Thumb Code    88  settings.o(i._ZN9TSettingsC1Ev)
    TSettings::TSettings__sub_object()       0x08003935   Thumb Code     0  settings.o(i._ZN9TSettingsC1Ev)
    TSettings::~TSettings()                  0x080039b9   Thumb Code     2  settings.o(i._ZN9TSettingsD1Ev)
    TSettings::~TSettings__sub_object()      0x080039b9   Thumb Code     0  settings.o(i._ZN9TSettingsD1Ev)
    TFlash::erase_page(unsigned) const       0x080039bd   Thumb Code    86  flash_driver.o(i._ZNK6TFlash10erase_pageEj)
    TFlash::write_page(const unsigned char*, unsigned short, unsigned) const 0x08003a19   Thumb Code    50  flash_driver.o(i._ZNK6TFlash10write_pageEPKhtj)
    TFlash::clear_all_error() const          0x08003a4d   Thumb Code    16  flash_driver.o(i._ZNK6TFlash15clear_all_errorEv)
    TFlash::prog(const unsigned*, unsigned, unsigned) const 0x08003a61   Thumb Code   160  flash_driver.o(i._ZNK6TFlash4progEPKjjj)
    TFlash::stop_tmr() const                 0x08003b09   Thumb Code    26  flash_driver.o(i._ZNK6TFlash8stop_tmrEv)
    TFlash::start_tmr() const                0x08003b23   Thumb Code    26  flash_driver.o(i._ZNK6TFlash9start_tmrEv)
    TSettings::chk_access(short) const       0x08003b3d   Thumb Code    20  settings.o(i._ZNK9TSettings10chk_accessEs)
    TSettings::chk_calib(short) const        0x08003b51   Thumb Code    20  settings.o(i._ZNK9TSettings9chk_calibEs)
    __scatterload_copy                       0x08003b65   Thumb Code    14  handlers.o(i.__scatterload_copy)
    __scatterload_null                       0x08003b73   Thumb Code     2  handlers.o(i.__scatterload_null)
    __scatterload_zeroinit                   0x08003b75   Thumb Code    14  handlers.o(i.__scatterload_zeroinit)
    free                                     0x08003cd9   Thumb Code    76  malloc.o(i.free)
    main                                     0x08003d29   Thumb Code    76  main.o(i.main)
    malloc                                   0x08003d79   Thumb Code    92  malloc.o(i.malloc)
    pvPortMalloc                             0x080046c1   Thumb Code   166  heap_2.o(i.pvPortMalloc)
    pvTaskIncrementMutexHeldCount            0x08004779   Thumb Code    26  tasks.o(i.pvTaskIncrementMutexHeldCount)
    pxPortInitialiseStack                    0x08004799   Thumb Code    38  port.o(i.pxPortInitialiseStack)
    uxListRemove                             0x080047c5   Thumb Code    40  list.o(i.uxListRemove)
    vApplicationIdleHook                     0x080047ed   Thumb Code     2  main.o(i.vApplicationIdleHook)
    vApplicationStackOverflowHook            0x080047f1   Thumb Code    12  main.o(i.vApplicationStackOverflowHook)
    vListInitialise                          0x08004801   Thumb Code    26  list.o(i.vListInitialise)
    vListInitialiseItem                      0x0800481b   Thumb Code     6  list.o(i.vListInitialiseItem)
    vListInsert                              0x08004821   Thumb Code    52  list.o(i.vListInsert)
    vListInsertEnd                           0x08004855   Thumb Code    24  list.o(i.vListInsertEnd)
    vPortEnterCritical                       0x0800486d   Thumb Code    76  port.o(i.vPortEnterCritical)
    vPortExitCritical                        0x080048c1   Thumb Code    56  port.o(i.vPortExitCritical)
    vPortFree                                0x080048fd   Thumb Code    56  heap_2.o(i.vPortFree)
    vPortSetupTimerInterrupt                 0x0800493d   Thumb Code    22  port.o(i.vPortSetupTimerInterrupt)
    vPortValidateInterruptPriority           0x08004955   Thumb Code   106  port.o(i.vPortValidateInterruptPriority)
    vQueueAddToRegistry                      0x080049cd   Thumb Code    38  queue.o(i.vQueueAddToRegistry)
    vQueueWaitForMessageRestricted           0x080049f9   Thumb Code    74  queue.o(i.vQueueWaitForMessageRestricted)
    vTaskDelay                               0x08004a45   Thumb Code    82  tasks.o(i.vTaskDelay)
    vTaskMissedYield                         0x08004aa1   Thumb Code     8  tasks.o(i.vTaskMissedYield)
    vTaskPlaceOnEventList                    0x08004aad   Thumb Code    52  tasks.o(i.vTaskPlaceOnEventList)
    vTaskPlaceOnEventListRestricted          0x08004ae5   Thumb Code    60  tasks.o(i.vTaskPlaceOnEventListRestricted)
    vTaskPriorityInherit                     0x08004b25   Thumb Code   164  tasks.o(i.vTaskPriorityInherit)
    vTaskSetTimeOutState                     0x08004bd5   Thumb Code    38  tasks.o(i.vTaskSetTimeOutState)
    vTaskStartScheduler                      0x08004c05   Thumb Code   118  tasks.o(i.vTaskStartScheduler)
    vTaskSuspendAll                          0x08004c99   Thumb Code    12  tasks.o(i.vTaskSuspendAll)
    vTaskSwitchContext                       0x08004ca9   Thumb Code   148  tasks.o(i.vTaskSwitchContext)
    xPortGetFreeHeapSize                     0x08004d51   Thumb Code     6  heap_2.o(i.xPortGetFreeHeapSize)
    xPortStartScheduler                      0x08004d5d   Thumb Code   330  port.o(i.xPortStartScheduler)
    xQueueCreateMutex                        0x08004ec5   Thumb Code    34  queue.o(i.xQueueCreateMutex)
    xQueueGenericCreate                      0x08004ee7   Thumb Code    88  queue.o(i.xQueueGenericCreate)
    xQueueGenericReceive                     0x08004f41   Thumb Code   446  queue.o(i.xQueueGenericReceive)
    xQueueGenericReset                       0x08005105   Thumb Code   146  queue.o(i.xQueueGenericReset)
    xQueueGenericSend                        0x0800519d   Thumb Code   420  queue.o(i.xQueueGenericSend)
    xQueueGenericSendFromISR                 0x08005345   Thumb Code   248  queue.o(i.xQueueGenericSendFromISR)
    xQueueGiveFromISR                        0x08005443   Thumb Code   224  queue.o(i.xQueueGiveFromISR)
    xTaskCheckForTimeOut                     0x08005525   Thumb Code   132  tasks.o(i.xTaskCheckForTimeOut)
    xTaskCreate                              0x080055b1   Thumb Code    96  tasks.o(i.xTaskCreate)
    xTaskGetSchedulerState                   0x08005619   Thumb Code    24  tasks.o(i.xTaskGetSchedulerState)
    xTaskGetTickCount                        0x08005639   Thumb Code     6  tasks.o(i.xTaskGetTickCount)
    xTaskIncrementTick                       0x08005645   Thumb Code   282  tasks.o(i.xTaskIncrementTick)
    xTaskPriorityDisinherit                  0x0800578d   Thumb Code   188  tasks.o(i.xTaskPriorityDisinherit)
    xTaskRemoveFromEventList                 0x08005855   Thumb Code   128  tasks.o(i.xTaskRemoveFromEventList)
    xTaskResumeAll                           0x080058ed   Thumb Code   224  tasks.o(i.xTaskResumeAll)
    xTimerCreateTimerTask                    0x080059f1   Thumb Code    64  timers.o(i.xTimerCreateTimerTask)
    xTimerGenericCommand                     0x08005a45   Thumb Code   126  timers.o(i.xTimerGenericCommand)
    _ZN6TModel11access_protIfU8__packedfEEvRT_RKT0_ 0x08005acf   Thumb Code    46  model.o(t._ZN6TModel11access_protIfU8__packedfEEvRT_RKT0_)
    bool TSettings::chk_param<short>(const TSettings::TRange&, T1) const 0x08005afd   Thumb Code    26  settings.o(t._ZNK9TSettings9chk_paramIsEEbRKNS_6TRangeET_)
    DefDSt                                   0x08005b94   Data          22  model.o(.constdata)
    TUsart::DEF_SETS                         0x08005c30   Data          12  usart_driver_.o(.constdata)
    AHBPrescTable                            0x08005dbc   Data          16  system_stm32l4xx.o(.constdata)
    APBPrescTable                            0x08005dcc   Data           8  system_stm32l4xx.o(.constdata)
    MSIRangeTable                            0x08005dd4   Data          48  system_stm32l4xx.o(.constdata)
    Region$$Table$$Base                      0x08005e04   Number         0  anon$$obj.o(Region$$Table)
    Region$$Table$$Limit                     0x08005e44   Number         0  anon$$obj.o(Region$$Table)
    SHT$$INIT_ARRAY$$Base                    0x08005e44   Number         0  button.o(.init_array)
    SHT$$INIT_ARRAY$$Limit                   0x08005e64   Number         0  cpp_init.o(.init_array)
    Image$$SETS_ROM$$Base                    0x0803f800   Number         0  anon$$obj.o ABSOLUTE
    Load$$LR$$LR_IROM4$$Base                 0x0803f800   Number         0  anon$$obj.o ABSOLUTE
    __heap_base                              0x10003000   Data           0  startup_stm32l431xx.o(HEAP)
    __initial_sp                             0x10003000   Data           0  startup_stm32l431xx.o(STACK)
    __heap_limit                             0x10003200   Data           0  startup_stm32l431xx.o(HEAP)
    T_AD8402::Resist                         0x20000000   Data          16  ad8402.o(.data)
    RtosHeapSize                             0x20000010   Data           4  main.o(.data)
    I2C_RxSem                                0x20000014   Data           4  main.o(.data)
    I2C_TxSem                                0x20000018   Data           4  main.o(.data)
    CodeSwTmr_TrigSem                        0x2000001c   Data           4  main.o(.data)
    DoUncalibTmr_TrigSem                     0x20000020   Data           4  main.o(.data)
    RawDataMems_RdySem                       0x20000024   Data           4  main.o(.data)
    SlaveRtoTrigSem                          0x20000028   Data           4  main.o(.data)
    SlaveCommErrSem                          0x2000002c   Data           4  main.o(.data)
    MasterRtoTrigSem                         0x20000030   Data           4  main.o(.data)
    MasterCommErrSem                         0x20000034   Data           4  main.o(.data)
    PdSem                                    0x20000038   Data           4  main.o(.data)
    WrFlash                                  0x2000003c   Data           4  main.o(.data)
    BtnTimer_TrigSem                         0x20000040   Data           4  main.o(.data)
    LedTimer_TrigSem                         0x20000044   Data           4  main.o(.data)
    Tmr_TrigSem                              0x20000048   Data           4  main.o(.data)
    DiffExti_TrigSem                         0x2000004c   Data           4  main.o(.data)
    MainMut                                  0x20000050   Data           4  main.o(.data)
    SENSMut                                  0x20000054   Data           4  main.o(.data)
    CodeSwTmr                                0x20000058   Data           4  main.o(.data)
    DoUncalibTmr                             0x2000005c   Data           4  main.o(.data)
    PdTmr                                    0x20000060   Data           4  main.o(.data)
    BtnTimer                                 0x20000064   Data           4  main.o(.data)
    Pot_HW                                   0x20000070   Data         100  hard_config.o(.data)
    UsartExt_HW                              0x200000d4   Data          84  hard_config.o(.data)
    TmrFreg_HW                               0x20000128   Data          52  hard_config.o(.data)
    TmrCmp_HW                                0x2000015c   Data          52  hard_config.o(.data)
    TmrDiff_HW                               0x20000190   Data          52  hard_config.o(.data)
    Adc_HW                                   0x200001c4   Data         112  hard_config.o(.data)
    Spi_HW                                   0x20000234   Data         104  hard_config.o(.data)
    DevDetect_HW                             0x2000029c   Data          20  hard_config.o(.data)
    UCG1_HW                                  0x200002b0   Data          20  hard_config.o(.data)
    DevAddr_HW                               0x200002c4   Data          96  hard_config.o(.data)
    DO_HW                                    0x20000324   Data          20  hard_config.o(.data)
    Led_HW                                   0x20000338   Data          20  hard_config.o(.data)
    Button_HW                                0x2000034c   Data          20  hard_config.o(.data)
    FlashErrCtr                              0x20000360   Data           1  flash_driver.o(.data)
    Flash                                    0x20000364   Data           8  flash_driver.o(.data)
    I2C::TI2C::SlaveAddrFlag                 0x2000038a   Data           1  i2c_driver.o(.data)
    pxCurrentTCB                             0x200003b0   Data           4  tasks.o(.data)
    TmpParam                                 0x20000408   Data           4  lev_gauge_to_pc.o(.data)
    UIF                                      0x2000040c   Data           1  lev_gauge_to_pc.o(.data)
    nCapDiff                                 0x2000040e   Data           2  lev_gauge_to_pc.o(.data)
    ParamHandle                              0x20000410   Data         192  lev_gauge_to_pc.o(.data)
    SystemCoreClock                          0x200004d0   Data           4  system_stm32l4xx.o(.data)
    __microlib_freelist                      0x200004d8   Data           4  mvars.o(.data)
    __microlib_freelist_initialised          0x200004dc   Data           4  mvars.o(.data)
    Btn                                      0x200004e0   Data          16  button.o(.bss)
    Led                                      0x200004f0   Data          16  led.o(.bss)
    UCG1                                     0x20000500   Data          16  led.o(.bss)
    AD8402                                   0x20000510   Data         104  ad8402.o(.bss)
    Model                                    0x20000578   Data         184  model.o(.bss)
    xQueueRegistry                           0x20001630   Data          64  queue.o(.bss)
    Settings                                 0x20001788   Data          46  settings.o(.bss)
    Data                                     0x200017b8   Data       30000  lev_gauge_to_pc.o(.bss)
    ExchngToPC                               0x20008ce8   Data          88  lev_gauge_to_pc.o(.bss)



==============================================================================

Memory Map of the image

  Image Entry point : 0x0800018d

  Load Region LR_IROM1 (Base: 0x08000000, Size: 0x00006344, Max: 0x0001ec00, ABSOLUTE, COMPRESSED[0x00005fbc])

    Execution Region APP_ROM (Exec base: 0x08000000, Load base: 0x08000000, Size: 0x00005e64, Max: 0x0001ec00, ABSOLUTE)

    Exec Addr    Load Addr    Size         Type   Attr      Idx    E Section Name        Object

    0x08000000   0x08000000   0x0000018c   Data   RO         4465    RESET               startup_stm32l431xx.o
    0x0800018c   0x0800018c   0x00000000   Code   RO         5403  * .ARM.Collect$$$$00000000  mc_w.l(entry.o)
    0x0800018c   0x0800018c   0x00000004   Code   RO         5419    .ARM.Collect$$$$00000001  mc_w.l(entry2.o)
    0x08000190   0x08000190   0x00000004   Code   RO         5422    .ARM.Collect$$$$00000004  mc_w.l(entry5.o)
    0x08000194   0x08000194   0x00000000   Code   RO         5424    .ARM.Collect$$$$00000008  mc_w.l(entry7b.o)
    0x08000194   0x08000194   0x00000004   Code   RO         5425    .ARM.Collect$$$$00000009  mc_w.l(entry8a.o)
    0x08000198   0x08000198   0x00000000   Code   RO         5426    .ARM.Collect$$$$0000000A  mc_w.l(entry8b.o)
    0x08000198   0x08000198   0x00000008   Code   RO         5427    .ARM.Collect$$$$0000000B  mc_w.l(entry9a.o)
    0x080001a0   0x080001a0   0x00000000   Code   RO         5429    .ARM.Collect$$$$0000000D  mc_w.l(entry10a.o)
    0x080001a0   0x080001a0   0x00000004   Code   RO         5430    .ARM.Collect$$$$0000000E  mc_w.l(entry10b.o)
    0x080001a4   0x080001a4   0x00000000   Code   RO         5431    .ARM.Collect$$$$0000000F  mc_w.l(entry11a.o)
    0x080001a4   0x080001a4   0x00000004   Code   RO         5420    .ARM.Collect$$$$00002712  mc_w.l(entry2.o)
    0x080001a8   0x080001a8   0x000000de   Code   RO         2814    .emb_text           port.o
    0x08000286   0x08000286   0x00000002   PAD
    0x08000288   0x08000288   0x00000024   Code   RO         4466    .text               startup_stm32l431xx.o
    0x080002ac   0x080002ac   0x00000024   Code   RO         5406    .text               mc_w.l(memcpya.o)
    0x080002d0   0x080002d0   0x00000024   Code   RO         5408    .text               mc_w.l(memseta.o)
    0x080002f4   0x080002f4   0x00000020   Code   RO         5415    .text               mc_w.l(cpp_init.o)
    0x08000314   0x08000314   0x0000002e   Code   RO         5417    .text               mc_w.l(aeabi_atexit.o)
    0x08000342   0x08000342   0x00000002   PAD
    0x08000344   0x08000344   0x00000008   Code   RO         5461    .text               mc_w.l(cpp_dtor.o)
    0x0800034c   0x0800034c   0x00000042   Code   RO         5464    .text               mc_w.l(cxa_finalize.o)
    0x0800038e   0x0800038e   0x00000002   PAD
    0x08000390   0x08000390   0x00000024   Code   RO         5466    .text               mc_w.l(init.o)
    0x080003b4   0x080003b4   0x00000002   Code   RO         5470    .text               mc_w.l(cpp_final.o)
    0x080003b6   0x080003b6   0x00000056   Code   RO         5480    .text               mc_w.l(__dczerorl2.o)
    0x0800040c   0x0800040c   0x00000068   Code   RO         3905    i.EXTI15_10_IRQHandler  lev_gauge_to_pc.o
    0x08000474   0x08000474   0x00000010   Code   RO         1936    i.FLASH_IRQHandler  flash_driver.o
    0x08000484   0x08000484   0x00000002   Code   RO         2115    i.I2C1_ER_IRQHandler  i2c_driver.o
    0x08000486   0x08000486   0x00000002   PAD
    0x08000488   0x08000488   0x00000058   Code   RO         2116    i.I2C1_EV_IRQHandler  i2c_driver.o
    0x080004e0   0x080004e0   0x00000002   Code   RO         2117    i.I2C2_ER_IRQHandler  i2c_driver.o
    0x080004e2   0x080004e2   0x00000002   Code   RO         2118    i.I2C2_EV_IRQHandler  i2c_driver.o
    0x080004e4   0x080004e4   0x0000004c   Code   RO         4532    i.LL_EXTI_DeInit    Lib.lib(stm32l4xx_ll_exti.o)
    0x08000530   0x08000530   0x00000010   Code   RO         4533    i.LL_EXTI_DisableEvent_0_31  Lib.lib(stm32l4xx_ll_exti.o)
    0x08000540   0x08000540   0x00000010   Code   RO         4534    i.LL_EXTI_DisableEvent_32_63  Lib.lib(stm32l4xx_ll_exti.o)
    0x08000550   0x08000550   0x00000010   Code   RO         4535    i.LL_EXTI_DisableIT_0_31  Lib.lib(stm32l4xx_ll_exti.o)
    0x08000560   0x08000560   0x00000010   Code   RO         4536    i.LL_EXTI_DisableIT_32_63  Lib.lib(stm32l4xx_ll_exti.o)
    0x08000570   0x08000570   0x00000010   Code   RO         4537    i.LL_EXTI_EnableEvent_0_31  Lib.lib(stm32l4xx_ll_exti.o)
    0x08000580   0x08000580   0x00000010   Code   RO         4538    i.LL_EXTI_EnableEvent_32_63  Lib.lib(stm32l4xx_ll_exti.o)
    0x08000590   0x08000590   0x00000010   Code   RO         4539    i.LL_EXTI_EnableFallingTrig_0_31  Lib.lib(stm32l4xx_ll_exti.o)
    0x080005a0   0x080005a0   0x00000010   Code   RO         4540    i.LL_EXTI_EnableFallingTrig_32_63  Lib.lib(stm32l4xx_ll_exti.o)
    0x080005b0   0x080005b0   0x00000010   Code   RO         4541    i.LL_EXTI_EnableIT_0_31  Lib.lib(stm32l4xx_ll_exti.o)
    0x080005c0   0x080005c0   0x00000010   Code   RO         4542    i.LL_EXTI_EnableIT_32_63  Lib.lib(stm32l4xx_ll_exti.o)
    0x080005d0   0x080005d0   0x00000010   Code   RO         4543    i.LL_EXTI_EnableRisingTrig_0_31  Lib.lib(stm32l4xx_ll_exti.o)
    0x080005e0   0x080005e0   0x00000010   Code   RO         4544    i.LL_EXTI_EnableRisingTrig_32_63  Lib.lib(stm32l4xx_ll_exti.o)
    0x080005f0   0x080005f0   0x0000016c   Code   RO         4545    i.LL_EXTI_Init      Lib.lib(stm32l4xx_ll_exti.o)
    0x0800075c   0x0800075c   0x00000144   Code   RO         4660    i.LL_GPIO_Init      Lib.lib(stm32l4xx_ll_gpio.o)
    0x080008a0   0x080008a0   0x0000001c   Code   RO         5290    i.LL_Init1msTick    Lib.lib(stm32l4xx_ll_utils.o)
    0x080008bc   0x080008bc   0x00000024   Code   RO         4772    i.LL_RCC_GetSystemClocksFreq  Lib.lib(stm32l4xx_ll_rcc.o)
    0x080008e0   0x080008e0   0x0000011c   Code   RO         4773    i.LL_RCC_GetUSARTClockFreq  Lib.lib(stm32l4xx_ll_rcc.o)
    0x080009fc   0x080009fc   0x00000014   Code   RO         4774    i.LL_RCC_GetUSARTClockSource  Lib.lib(stm32l4xx_ll_rcc.o)
    0x08000a10   0x08000a10   0x00000010   Code   RO         4776    i.LL_RCC_HSI_IsReady  Lib.lib(stm32l4xx_ll_rcc.o)
    0x08000a20   0x08000a20   0x00000010   Code   RO         4777    i.LL_RCC_LSE_IsReady  Lib.lib(stm32l4xx_ll_rcc.o)
    0x08000a30   0x08000a30   0x00000010   Code   RO         4779    i.LL_RCC_MSI_GetRange  Lib.lib(stm32l4xx_ll_rcc.o)
    0x08000a40   0x08000a40   0x00000010   Code   RO         4780    i.LL_RCC_MSI_GetRangeAfterStandby  Lib.lib(stm32l4xx_ll_rcc.o)
    0x08000a50   0x08000a50   0x00000010   Code   RO         4781    i.LL_RCC_MSI_IsEnabledRangeSelect  Lib.lib(stm32l4xx_ll_rcc.o)
    0x08000a60   0x08000a60   0x00000010   Code   RO         4785    i.LL_RCC_PLL_GetDivider  Lib.lib(stm32l4xx_ll_rcc.o)
    0x08000a70   0x08000a70   0x00000010   Code   RO         4786    i.LL_RCC_PLL_GetMainSource  Lib.lib(stm32l4xx_ll_rcc.o)
    0x08000a80   0x08000a80   0x00000010   Code   RO         4787    i.LL_RCC_PLL_GetN   Lib.lib(stm32l4xx_ll_rcc.o)
    0x08000a90   0x08000a90   0x0000000c   Code   RO         5300    i.LL_SetSystemCoreClock  Lib.lib(stm32l4xx_ll_utils.o)
    0x08000a9c   0x08000a9c   0x00000084   Code   RO         5062    i.LL_TIM_Init       Lib.lib(stm32l4xx_ll_tim.o)
    0x08000b20   0x08000b20   0x000000e0   Code   RO         5226    i.LL_USART_Init     Lib.lib(stm32l4xx_ll_usart.o)
    0x08000c00   0x08000c00   0x0000000a   Code   RO         5227    i.LL_USART_IsEnabled  Lib.lib(stm32l4xx_ll_usart.o)
    0x08000c0a   0x08000c0a   0x00000002   PAD
    0x08000c0c   0x08000c0c   0x00000020   Code   RO         4789    i.RCC_GetHCLKClockFreq  Lib.lib(stm32l4xx_ll_rcc.o)
    0x08000c2c   0x08000c2c   0x00000024   Code   RO         4790    i.RCC_GetPCLK1ClockFreq  Lib.lib(stm32l4xx_ll_rcc.o)
    0x08000c50   0x08000c50   0x00000024   Code   RO         4791    i.RCC_GetPCLK2ClockFreq  Lib.lib(stm32l4xx_ll_rcc.o)
    0x08000c74   0x08000c74   0x000000bc   Code   RO         4792    i.RCC_GetSystemClockFreq  Lib.lib(stm32l4xx_ll_rcc.o)
    0x08000d30   0x08000d30   0x000000d8   Code   RO         4798    i.RCC_PLL_GetFreqDomain_SYS  Lib.lib(stm32l4xx_ll_rcc.o)
    0x08000e08   0x08000e08   0x00000034   Code   RO         2815    i.SysTick_Handler   port.o
    0x08000e3c   0x08000e3c   0x00000050   Code   RO         4474    i.SystemInit        system_stm32l4xx.o
    0x08000e8c   0x08000e8c   0x00000078   Code   RO         3906    i.TIM1_BRK_TIM15_IRQHandler  lev_gauge_to_pc.o
    0x08000f04   0x08000f04   0x00000038   Code   RO         1937    i.TIM6_DAC_IRQHandler  flash_driver.o
    0x08000f3c   0x08000f3c   0x00000014   Code   RO         2350    i._Z10FLASH_Lockv   old_flash_lib.o
    0x08000f50   0x08000f50   0x00000254   Code   RO          613    i._Z11cfg_sys_clkv  main.o
    0x080011a4   0x080011a4   0x00000024   Code   RO         2351    i._Z12FLASH_Unlockv  old_flash_lib.o
    0x080011c8   0x080011c8   0x00000038   Code   RO         2352    i._Z15FLASH_GetStatusv  old_flash_lib.o
    0x08001200   0x08001200   0x00000108   Code   RO         3907    i._Z15lev_gauge_to_pcPv  lev_gauge_to_pc.o
    0x08001308   0x08001308   0x00000038   Code   RO         3590    i._ZN10TExtMaster10all_pkt_txEPKht  ext_master.o
    0x08001340   0x08001340   0x00000006   Code   RO         3591    i._ZN10TExtMaster10no_wrap_txEPKht  ext_master.o
    0x08001346   0x08001346   0x0000002e   Code   RO         3592    i._ZN10TExtMaster13start_wrap_txEPKht  ext_master.o
    0x08001374   0x08001374   0x0000000c   Code   RO         3593    i._ZN10TExtMaster14finish_wrap_txEPKht  ext_master.o
    0x08001380   0x08001380   0x0000008a   Code   RO         3594    i._ZN10TExtMaster7tx_dataEPKhtNS_11TWrapTxSignE  ext_master.o
    0x0800140a   0x0800140a   0x0000000e   Code   RO         3595    i._ZN10TExtMaster8get_dataEv  ext_master.o
    0x08001418   0x08001418   0x00000076   Code   RO         3596    i._ZN10TExtMaster9parse_pktEv  ext_master.o
    0x0800148e   0x0800148e   0x00000002   PAD
    0x08001490   0x08001490   0x0000002c   Code   RO         3597    i._ZN10TExtMasterC1ERK9TUsart_HW  ext_master.o
    0x080014bc   0x080014bc   0x00000010   Code   RO         3598    i._ZN10TExtMasterD1Ev  ext_master.o
    0x080014cc   0x080014cc   0x00000010   Code   RO         3908    i._ZN11TExchngToPC11rx_set_fregEPNS_12TParamHandleE  lev_gauge_to_pc.o
    0x080014dc   0x080014dc   0x00000014   Code   RO         3909    i._ZN11TExchngToPC11tx_set_fregEPNS_12TParamHandleE  lev_gauge_to_pc.o
    0x080014f0   0x080014f0   0x000001f8   Code   RO         3910    i._ZN11TExchngToPC12rx_start_adcEPNS_12TParamHandleE  lev_gauge_to_pc.o
    0x080016e8   0x080016e8   0x000000aa   Code   RO         3911    i._ZN11TExchngToPC12tmr_cmp_initEv  lev_gauge_to_pc.o
    0x08001792   0x08001792   0x00000014   Code   RO         3912    i._ZN11TExchngToPC13set_diff_freqEt  lev_gauge_to_pc.o
    0x080017a6   0x080017a6   0x000000b0   Code   RO         3913    i._ZN11TExchngToPC13tmr_diff_initEv  lev_gauge_to_pc.o
    0x08001856   0x08001856   0x0000011e   Code   RO         3914    i._ZN11TExchngToPC13tmr_freg_initEv  lev_gauge_to_pc.o
    0x08001974   0x08001974   0x000000dc   Code   RO         3915    i._ZN11TExchngToPC14init_diff_extiEj  lev_gauge_to_pc.o
    0x08001a50   0x08001a50   0x00000080   Code   RO         3916    i._ZN11TExchngToPC14rx_cmp_captureEPNS_12TParamHandleE  lev_gauge_to_pc.o
    0x08001ad0   0x08001ad0   0x00000038   Code   RO         3917    i._ZN11TExchngToPC14tx_cmp_captureEPNS_12TParamHandleE  lev_gauge_to_pc.o
    0x08001b08   0x08001b08   0x000000dc   Code   RO         3918    i._ZN11TExchngToPC15rx_diff_captureEPNS_12TParamHandleE  lev_gauge_to_pc.o
    0x08001be4   0x08001be4   0x00000038   Code   RO         3919    i._ZN11TExchngToPC15tx_diff_captureEPNS_12TParamHandleE  lev_gauge_to_pc.o
    0x08001c1c   0x08001c1c   0x0000000a   Code   RO         3920    i._ZN11TExchngToPC16deinit_diff_extiEv  lev_gauge_to_pc.o
    0x08001c26   0x08001c26   0x00000002   PAD
    0x08001c28   0x08001c28   0x00000048   Code   RO         3921    i._ZN11TExchngToPC16rx_set_pos_pot_1EPNS_12TParamHandleE  lev_gauge_to_pc.o
    0x08001c70   0x08001c70   0x00000048   Code   RO         3922    i._ZN11TExchngToPC16rx_set_pos_pot_2EPNS_12TParamHandleE  lev_gauge_to_pc.o
    0x08001cb8   0x08001cb8   0x00000014   Code   RO         3923    i._ZN11TExchngToPC16tx_set_pos_pot_1EPNS_12TParamHandleE  lev_gauge_to_pc.o
    0x08001ccc   0x08001ccc   0x00000014   Code   RO         3924    i._ZN11TExchngToPC16tx_set_pos_pot_2EPNS_12TParamHandleE  lev_gauge_to_pc.o
    0x08001ce0   0x08001ce0   0x00000010   Code   RO         3925    i._ZN11TExchngToPC17rx_set_duty_cycleEPNS_12TParamHandleE  lev_gauge_to_pc.o
    0x08001cf0   0x08001cf0   0x00000014   Code   RO         3926    i._ZN11TExchngToPC17tx_set_duty_cycleEPNS_12TParamHandleE  lev_gauge_to_pc.o
    0x08001d04   0x08001d04   0x0000000e   Code   RO         3927    i._ZN11TExchngToPC19get_upd_demand_flagEv  lev_gauge_to_pc.o
    0x08001d12   0x08001d12   0x0000000a   Code   RO         3928    i._ZN11TExchngToPC19set_upd_demand_flagEb  lev_gauge_to_pc.o
    0x08001d1c   0x08001d1c   0x00000016   Code   RO         3929    i._ZN11TExchngToPC5iserrEf  lev_gauge_to_pc.o
    0x08001d32   0x08001d32   0x00000002   PAD
    0x08001d34   0x08001d34   0x00000038   Code   RO         3930    i._ZN11TExchngToPC6en_adcEv  lev_gauge_to_pc.o
    0x08001d6c   0x08001d6c   0x00000038   Code   RO         3931    i._ZN11TExchngToPC6tx_adcEPNS_12TParamHandleE  lev_gauge_to_pc.o
    0x08001da4   0x08001da4   0x00000078   Code   RO         3932    i._ZN11TExchngToPC7adc_calEv  lev_gauge_to_pc.o
    0x08001e1c   0x08001e1c   0x0000015c   Code   RO         3933    i._ZN11TExchngToPC7cnt_pwmEv  lev_gauge_to_pc.o
    0x08001f78   0x08001f78   0x0000007c   Code   RO         3934    i._ZN11TExchngToPC7dis_adcEv  lev_gauge_to_pc.o
    0x08001ff4   0x08001ff4   0x00000026   Code   RO         3935    i._ZN11TExchngToPC7set_pwmERKNS_4TPwmE  lev_gauge_to_pc.o
    0x0800201a   0x0800201a   0x00000014   Code   RO         3936    i._ZN11TExchngToPC7tx_testEPNS_12TParamHandleE  lev_gauge_to_pc.o
    0x0800202e   0x0800202e   0x00000002   PAD
    0x08002030   0x08002030   0x00000090   Code   RO         3937    i._ZN11TExchngToPC8adc_initEv  lev_gauge_to_pc.o
    0x080020c0   0x080020c0   0x00000048   Code   RO         3938    i._ZN11TExchngToPC8ctrl_pwmEPNS_12TParamHandleE  lev_gauge_to_pc.o
    0x08002108   0x08002108   0x00000044   Code   RO         3939    i._ZN11TExchngToPC9chk_rangeEfRKNS_6TRangeE  lev_gauge_to_pc.o
    0x0800214c   0x0800214c   0x0000005c   Code   RO         3940    i._ZN11TExchngToPCC1ERK9TUsart_HWRK7TTmr_HWS5_S5_RK7TAdc_HW  lev_gauge_to_pc.o
    0x080021a8   0x080021a8   0x00000010   Code   RO         3941    i._ZN11TExchngToPCD1Ev  lev_gauge_to_pc.o
    0x080021b8   0x080021b8   0x00000006   Code   RO          165    i._ZN12T_RS_485_phy10get_configEv  rs-485_phy.o
    0x080021be   0x080021be   0x00000008   Code   RO          167    i._ZN12T_RS_485_phyC1Ev  rs-485_phy.o
    0x080021c6   0x080021c6   0x00000002   Code   RO          168    i._ZN12T_RS_485_phyD1Ev  rs-485_phy.o
    0x080021c8   0x080021c8   0x00000004   Code   RO          324    i._ZN23_INTERNAL_7_Led_cpp_Led22LL_GPIO_ResetOutputPinEP12GPIO_TypeDefj  led.o
    0x080021cc   0x080021cc   0x00000044   Code   RO          616    i._ZN29_INTERNAL_8_main_cpp_6396510212create_tasksEv  main.o
    0x08002210   0x08002210   0x00000054   Code   RO          617    i._ZN29_INTERNAL_8_main_cpp_6396510212init_mx_gpioEv  main.o
    0x08002264   0x08002264   0x00000002   Code   RO          618    i._ZN29_INTERNAL_8_main_cpp_6396510213create_timersEv  main.o
    0x08002266   0x08002266   0x00000002   PAD
    0x08002268   0x08002268   0x00000030   Code   RO          619    i._ZN29_INTERNAL_8_main_cpp_6396510214create_mutexesEv  main.o
    0x08002298   0x08002298   0x0000016c   Code   RO          620    i._ZN29_INTERNAL_8_main_cpp_6396510214create_semphrsEv  main.o
    0x08002404   0x08002404   0x00000028   Code   RO          621    i._ZN29_INTERNAL_8_main_cpp_6396510216NVIC_SetPriorityE9IRQn_Typej  main.o
    0x0800242c   0x0800242c   0x00000002   Code   RO          622    i._ZN29_INTERNAL_8_main_cpp_6396510217check_create_taskEl  main.o
    0x0800242e   0x0800242e   0x00000002   PAD
    0x08002430   0x08002430   0x00000010   Code   RO          623    i._ZN29_INTERNAL_8_main_cpp_6396510218LL_RCC_MSI_IsReadyEv  main.o
    0x08002440   0x08002440   0x00000002   Code   RO          624    i._ZN29_INTERNAL_8_main_cpp_6396510218check_create_mutexEPv  main.o
    0x08002442   0x08002442   0x00000040   Code   RO          626    i._ZN29_INTERNAL_8_main_cpp_6396510219NVIC_EncodePriorityEjjj  main.o
    0x08002482   0x08002482   0x00000002   Code   RO          627    i._ZN29_INTERNAL_8_main_cpp_6396510219check_create_semphrEPv  main.o
    0x08002484   0x08002484   0x00000010   Code   RO          628    i._ZN29_INTERNAL_8_main_cpp_6396510224NVIC_GetPriorityGroupingEv  main.o
    0x08002494   0x08002494   0x000000fc   Code   RO          629    i._ZN29_INTERNAL_8_main_cpp_639651027init_llEv  main.o
    0x08002590   0x08002590   0x00000004   Code   RO          458    i._ZN30_INTERNAL_10_AD8402_cpp_AD840220LL_GPIO_SetOutputPinEP12GPIO_TypeDefj  ad8402.o
    0x08002594   0x08002594   0x00000004   Code   RO          459    i._ZN30_INTERNAL_10_AD8402_cpp_AD840222LL_GPIO_ResetOutputPinEP12GPIO_TypeDefj  ad8402.o
    0x08002598   0x08002598   0x0000001c   Code   RO          964    i._ZN35_INTERNAL_15_hard_config_cpp_Pot_HW24LL_AHB2_GRP1_EnableClockEj  hard_config.o
    0x080025b4   0x080025b4   0x0000001c   Code   RO          965    i._ZN35_INTERNAL_15_hard_config_cpp_Pot_HW24LL_APB1_GRP1_EnableClockEj  hard_config.o
    0x080025d0   0x080025d0   0x0000001c   Code   RO          966    i._ZN35_INTERNAL_15_hard_config_cpp_Pot_HW24LL_APB2_GRP1_EnableClockEj  hard_config.o
    0x080025ec   0x080025ec   0x00000018   Code   RO          967    i._ZN35_INTERNAL_15_hard_config_cpp_Pot_HW24LL_RCC_SetADCClockSourceEj  hard_config.o
    0x08002604   0x08002604   0x000000c8   Code   RO         2120    i._ZN36_INTERNAL_14_I2C_driver_cpp_0101a1c113dks_tc_activeEv  i2c_driver.o
    0x080026cc   0x080026cc   0x00000070   Code   RO         2122    i._ZN36_INTERNAL_14_I2C_driver_cpp_0101a1c115dks_rxne_activeEv  i2c_driver.o
    0x0800273c   0x0800273c   0x00000070   Code   RO         2123    i._ZN36_INTERNAL_14_I2C_driver_cpp_0101a1c115dks_stop_activeEv  i2c_driver.o
    0x080027ac   0x080027ac   0x00000080   Code   RO         2124    i._ZN36_INTERNAL_14_I2C_driver_cpp_0101a1c115dks_txis_activeEv  i2c_driver.o
    0x0800282c   0x0800282c   0x0000000a   Code   RO         2125    i._ZN36_INTERNAL_14_I2C_driver_cpp_0101a1c119LL_I2C_DisableIT_TCEP11I2C_TypeDef  i2c_driver.o
    0x08002836   0x08002836   0x0000000a   Code   RO         2126    i._ZN36_INTERNAL_14_I2C_driver_cpp_0101a1c119LL_I2C_DisableIT_TXEP11I2C_TypeDef  i2c_driver.o
    0x08002840   0x08002840   0x0000000c   Code   RO         2127    i._ZN36_INTERNAL_14_I2C_driver_cpp_0101a1c119LL_I2C_SetSlaveAddrEP11I2C_TypeDefj  i2c_driver.o
    0x0800284c   0x0800284c   0x00000004   Code   RO         2128    i._ZN36_INTERNAL_14_I2C_driver_cpp_0101a1c120LL_I2C_TransmitData8EP11I2C_TypeDefh  i2c_driver.o
    0x08002850   0x08002850   0x0000000a   Code   RO         2130    i._ZN36_INTERNAL_14_I2C_driver_cpp_0101a1c121LL_I2C_ClearFlag_STOPEP11I2C_TypeDef  i2c_driver.o
    0x0800285a   0x0800285a   0x0000000e   Code   RO         2131    i._ZN36_INTERNAL_14_I2C_driver_cpp_0101a1c122LL_I2C_SetTransferSizeEP11I2C_TypeDefj  i2c_driver.o
    0x08002868   0x08002868   0x0000000c   Code   RO         2132    i._ZN36_INTERNAL_14_I2C_driver_cpp_0101a1c125LL_I2C_SetTransferRequestEP11I2C_TypeDefj  i2c_driver.o
    0x08002874   0x08002874   0x0000000a   Code   RO         2133    i._ZN36_INTERNAL_14_I2C_driver_cpp_0101a1c129LL_I2C_GenerateStartConditionEP11I2C_TypeDef  i2c_driver.o
    0x0800287e   0x0800287e   0x00000002   PAD
    0x08002880   0x08002880   0x00000010   Code   RO         3942    i._ZN36_INTERNAL_19_lev_gauge_to_pc_cpp_UIF14LL_ADC_DisableEP11ADC_TypeDef  lev_gauge_to_pc.o
    0x08002890   0x08002890   0x00000016   Code   RO         3943    i._ZN36_INTERNAL_19_lev_gauge_to_pc_cpp_UIF14NVIC_EnableIRQE9IRQn_Type  lev_gauge_to_pc.o
    0x080028a6   0x080028a6   0x0000000a   Code   RO         3944    i._ZN36_INTERNAL_19_lev_gauge_to_pc_cpp_UIF16LL_ADC_IsEnabledEP11ADC_TypeDef  lev_gauge_to_pc.o
    0x080028b0   0x080028b0   0x00000028   Code   RO         3945    i._ZN36_INTERNAL_19_lev_gauge_to_pc_cpp_UIF16NVIC_SetPriorityE9IRQn_Typej  lev_gauge_to_pc.o
    0x080028d8   0x080028d8   0x00000084   Code   RO         3946    i._ZN36_INTERNAL_19_lev_gauge_to_pc_cpp_UIF17LL_TIM_OC_SetModeEP11TIM_TypeDefjj  lev_gauge_to_pc.o
    0x0800295c   0x0800295c   0x00000004   Code   RO         3947    i._ZN36_INTERNAL_19_lev_gauge_to_pc_cpp_UIF17LL_TIM_SetCounterEP11TIM_TypeDefj  lev_gauge_to_pc.o
    0x08002960   0x08002960   0x00000028   Code   RO         3948    i._ZN36_INTERNAL_19_lev_gauge_to_pc_cpp_UIF18LL_GPIO_SetPinModeEP12GPIO_TypeDefjj  lev_gauge_to_pc.o
    0x08002988   0x08002988   0x00000028   Code   RO         3949    i._ZN36_INTERNAL_19_lev_gauge_to_pc_cpp_UIF18LL_GPIO_SetPinPullEP12GPIO_TypeDefjj  lev_gauge_to_pc.o
    0x080029b0   0x080029b0   0x00000028   Code   RO         3950    i._ZN36_INTERNAL_19_lev_gauge_to_pc_cpp_UIF19LL_GPIO_SetPinSpeedEP12GPIO_TypeDefjj  lev_gauge_to_pc.o
    0x080029d8   0x080029d8   0x00000080   Code   RO         3951    i._ZN36_INTERNAL_19_lev_gauge_to_pc_cpp_UIF19LL_TIM_IC_SetFilterEP11TIM_TypeDefjj  lev_gauge_to_pc.o
    0x08002a58   0x08002a58   0x00000004   Code   RO         3952    i._ZN36_INTERNAL_19_lev_gauge_to_pc_cpp_UIF19LL_TIM_SetPrescalerEP11TIM_TypeDefj  lev_gauge_to_pc.o
    0x08002a5c   0x08002a5c   0x00000010   Code   RO         3953    i._ZN36_INTERNAL_19_lev_gauge_to_pc_cpp_UIF19LL_TIM_SetSlaveModeEP11TIM_TypeDefj  lev_gauge_to_pc.o
    0x08002a6c   0x08002a6c   0x00000040   Code   RO         3954    i._ZN36_INTERNAL_19_lev_gauge_to_pc_cpp_UIF19NVIC_EncodePriorityEjjj  lev_gauge_to_pc.o
    0x08002aac   0x08002aac   0x00000028   Code   RO         3955    i._ZN36_INTERNAL_19_lev_gauge_to_pc_cpp_UIF20LL_GPIO_SetAFPin_0_7EP12GPIO_TypeDefjj  lev_gauge_to_pc.o
    0x08002ad4   0x08002ad4   0x0000000a   Code   RO         3956    i._ZN36_INTERNAL_19_lev_gauge_to_pc_cpp_UIF20LL_TIM_EnableCounterEP11TIM_TypeDef  lev_gauge_to_pc.o
    0x08002ade   0x08002ade   0x00000004   Code   RO         3957    i._ZN36_INTERNAL_19_lev_gauge_to_pc_cpp_UIF20LL_TIM_SetAutoReloadEP11TIM_TypeDefj  lev_gauge_to_pc.o
    0x08002ae2   0x08002ae2   0x0000000a   Code   RO         3958    i._ZN36_INTERNAL_19_lev_gauge_to_pc_cpp_UIF21LL_TIM_DisableCounterEP11TIM_TypeDef  lev_gauge_to_pc.o
    0x08002aec   0x08002aec   0x0000006c   Code   RO         3959    i._ZN36_INTERNAL_19_lev_gauge_to_pc_cpp_UIF21LL_TIM_IC_SetPolarityEP11TIM_TypeDefjj  lev_gauge_to_pc.o
    0x08002b58   0x08002b58   0x00000006   Code   RO         3960    i._ZN36_INTERNAL_19_lev_gauge_to_pc_cpp_UIF22LL_ADC_ClearFlag_ADRDYEP11ADC_TypeDef  lev_gauge_to_pc.o
    0x08002b5e   0x08002b5e   0x00000002   PAD
    0x08002b60   0x08002b60   0x00000080   Code   RO         3961    i._ZN36_INTERNAL_19_lev_gauge_to_pc_cpp_UIF22LL_TIM_IC_SetPrescalerEP11TIM_TypeDefjj  lev_gauge_to_pc.o
    0x08002be0   0x08002be0   0x000000b0   Code   RO         3962    i._ZN36_INTERNAL_19_lev_gauge_to_pc_cpp_UIF22LL_TIM_OC_ConfigOutputEP11TIM_TypeDefjj  lev_gauge_to_pc.o
    0x08002c90   0x08002c90   0x0000000a   Code   RO         3963    i._ZN36_INTERNAL_19_lev_gauge_to_pc_cpp_UIF23LL_ADC_IsDisableOngoingEP11ADC_TypeDef  lev_gauge_to_pc.o
    0x08002c9a   0x08002c9a   0x00000008   Code   RO         3964    i._ZN36_INTERNAL_19_lev_gauge_to_pc_cpp_UIF23LL_TIM_CC_EnableChannelEP11TIM_TypeDefj  lev_gauge_to_pc.o
    0x08002ca2   0x08002ca2   0x00000008   Code   RO         3965    i._ZN36_INTERNAL_19_lev_gauge_to_pc_cpp_UIF23LL_TIM_ClearFlag_UPDATEEP11TIM_TypeDef  lev_gauge_to_pc.o
    0x08002caa   0x08002caa   0x0000000a   Code   RO         3966    i._ZN36_INTERNAL_19_lev_gauge_to_pc_cpp_UIF23LL_TIM_EnableARRPreloadEP11TIM_TypeDef  lev_gauge_to_pc.o
    0x08002cb4   0x08002cb4   0x0000000a   Code   RO         3967    i._ZN36_INTERNAL_19_lev_gauge_to_pc_cpp_UIF23LL_TIM_EnableAllOutputsEP11TIM_TypeDef  lev_gauge_to_pc.o
    0x08002cbe   0x08002cbe   0x00000002   PAD
    0x08002cc0   0x08002cc0   0x00000074   Code   RO         3968    i._ZN36_INTERNAL_19_lev_gauge_to_pc_cpp_UIF23LL_TIM_OC_EnablePreloadEP11TIM_TypeDefj  lev_gauge_to_pc.o
    0x08002d34   0x08002d34   0x00000004   Code   RO         3969    i._ZN36_INTERNAL_19_lev_gauge_to_pc_cpp_UIF23LL_TIM_OC_SetCompareCH1EP11TIM_TypeDefj  lev_gauge_to_pc.o
    0x08002d38   0x08002d38   0x00000080   Code   RO         3970    i._ZN36_INTERNAL_19_lev_gauge_to_pc_cpp_UIF24LL_TIM_IC_SetActiveInputEP11TIM_TypeDefjj  lev_gauge_to_pc.o
    0x08002db8   0x08002db8   0x00000010   Code   RO         3971    i._ZN36_INTERNAL_19_lev_gauge_to_pc_cpp_UIF24NVIC_GetPriorityGroupingEv  lev_gauge_to_pc.o
    0x08002dc8   0x08002dc8   0x00000014   Code   RO         3972    i._ZN36_INTERNAL_19_lev_gauge_to_pc_cpp_UIF25LL_ADC_REG_StopConversionEP11ADC_TypeDef  lev_gauge_to_pc.o
    0x08002ddc   0x08002ddc   0x0000000a   Code   RO         3973    i._ZN36_INTERNAL_19_lev_gauge_to_pc_cpp_UIF26LL_TIM_IsActiveFlag_UPDATEEP11TIM_TypeDef  lev_gauge_to_pc.o
    0x08002de6   0x08002de6   0x0000000a   Code   RO         3974    i._ZN36_INTERNAL_19_lev_gauge_to_pc_cpp_UIF27LL_TIM_GenerateEvent_UPDATEEP11TIM_TypeDef  lev_gauge_to_pc.o
    0x08002df0   0x08002df0   0x0000000a   Code   RO         3975    i._ZN36_INTERNAL_19_lev_gauge_to_pc_cpp_UIF30LL_ADC_INJ_IsConversionOngoingEP11ADC_TypeDef  lev_gauge_to_pc.o
    0x08002dfa   0x08002dfa   0x0000000a   Code   RO         3976    i._ZN36_INTERNAL_19_lev_gauge_to_pc_cpp_UIF30LL_ADC_REG_IsConversionOngoingEP11ADC_TypeDef  lev_gauge_to_pc.o
    0x08002e04   0x08002e04   0x0000000a   Code   RO         3977    i._ZN36_INTERNAL_19_lev_gauge_to_pc_cpp_UIF34LL_ADC_REG_IsStopConversionOngoingEP11ADC_TypeDef  lev_gauge_to_pc.o
    0x08002e0e   0x08002e0e   0x00000008   Code   RO         1938    i._ZN38_INTERNAL_16_Flash_driver_cpp_d50a58b423LL_TIM_ClearFlag_UPDATEEP11TIM_TypeDef  flash_driver.o
    0x08002e16   0x08002e16   0x00000038   Code   RO         2523    i._ZN39_INTERNAL_17_usart_driver__cpp_b612a17520LL_USART_SetBaudRateEP13USART_TypeDefjjj  usart_driver_.o
    0x08002e4e   0x08002e4e   0x00000008   Code   RO         2524    i._ZN39_INTERNAL_17_usart_driver__cpp_b612a17521LL_USART_ReceiveData8EP13USART_TypeDef  usart_driver_.o
    0x08002e56   0x08002e56   0x0000000a   Code   RO         2526    i._ZN39_INTERNAL_17_usart_driver__cpp_b612a17526LL_USART_IsActiveFlag_RXNEEP13USART_TypeDef  usart_driver_.o
    0x08002e60   0x08002e60   0x0000000a   Code   RO          326    i._ZN4TLed2onEv     led.o
    0x08002e6a   0x08002e6a   0x0000000e   Code   RO          327    i._ZN4TLed3offEv    led.o
    0x08002e78   0x08002e78   0x00000038   Code   RO          328    i._ZN4TLed4initEv   led.o
    0x08002eb0   0x08002eb0   0x0000000e   Code   RO          330    i._ZN4TLedC1ERK4TPinPPv  led.o
    0x08002ebe   0x08002ebe   0x00000002   Code   RO          331    i._ZN4TLedD1Ev      led.o
    0x08002ec0   0x08002ec0   0x0000003c   Code   RO         1940    i._ZN6TFlash10write_setsEPKht  flash_driver.o
    0x08002efc   0x08002efc   0x0000002c   Code   RO         1941    i._ZN6TFlash8get_setsEPht  flash_driver.o
    0x08002f28   0x08002f28   0x00000162   Code   RO         1942    i._ZN6TFlash8init_tmrEv  flash_driver.o
    0x0800308a   0x0800308a   0x00000002   PAD
    0x0800308c   0x0800308c   0x0000001c   Code   RO         1943    i._ZN6TFlashC1Ev    flash_driver.o
    0x080030a8   0x080030a8   0x00000002   Code   RO         1944    i._ZN6TFlashD1Ev    flash_driver.o
    0x080030aa   0x080030aa   0x00000032   Code   RO         1023    i._ZN6TModel10set_accessEN9TSettings7TAccessE  model.o
    0x080030dc   0x080030dc   0x00000016   Code   RO         1053    i._ZN6TModel13get_psw_adminEv  model.o
    0x080030f2   0x080030f2   0x00000016   Code   RO         1054    i._ZN6TModel13get_psw_superEv  model.o
    0x08003108   0x08003108   0x00000010   Code   RO         1057    i._ZN6TModel13handler_calibEsPb  model.o
    0x08003118   0x08003118   0x000000ae   Code   RO         1071    i._ZN6TModel14handler_accessEsPb  model.o
    0x080031c6   0x080031c6   0x00000034   Code   RO         1089    i._ZN6TModel17get_calib_processEv  model.o
    0x080031fa   0x080031fa   0x00000032   Code   RO         1091    i._ZN6TModel17set_calib_processEN9TSettings13TCalibProcessE  model.o
    0x0800322c   0x0800322c   0x00000006   Code   RO         1118    i._ZN6TModel22set_authorize_item_ptrEPKNS_10TAuthorizeE  model.o
    0x08003232   0x08003232   0x00000002   PAD
    0x08003234   0x08003234   0x000000c8   Code   RO         1139    i._ZN6TModelC1ERPv  model.o
    0x080032fc   0x080032fc   0x00000010   Code   RO         1140    i._ZN6TModelD1Ev    model.o
    0x0800330c   0x0800330c   0x00000012   Code   RO         2527    i._ZN6TUsart10disable_rxEv  usart_driver_.o
    0x0800331e   0x0800331e   0x0000005e   Code   RO         2529    i._ZN6TUsart10set_485_hdEjj  usart_driver_.o
    0x0800337c   0x0800337c   0x0000006c   Code   RO         2530    i._ZN6TUsart11write_burstEPKht  usart_driver_.o
    0x080033e8   0x080033e8   0x0000009c   Code   RO         2534    i._ZN6TUsart14pin_clk_configEv  usart_driver_.o
    0x08003484   0x08003484   0x0000002a   Code   RO         2535    i._ZN6TUsart15clr_error_flagsEv  usart_driver_.o
    0x080034ae   0x080034ae   0x00000002   PAD
    0x080034b0   0x080034b0   0x00000134   Code   RO         2537    i._ZN6TUsart7hw_initEh  usart_driver_.o
    0x080035e4   0x080035e4   0x00000018   Code   RO         2538    i._ZN6TUsart7set_232Ejj  usart_driver_.o
    0x080035fc   0x080035fc   0x00000012   Code   RO         2541    i._ZN6TUsart9enable_rxEv  usart_driver_.o
    0x0800360e   0x0800360e   0x00000022   Code   RO         2542    i._ZN6TUsart9read_byteEv  usart_driver_.o
    0x08003630   0x08003630   0x00000028   Code   RO         2543    i._ZN6TUsartC1ERK9TUsart_HWRKNS_5TSetsENS_5TModeE  usart_driver_.o
    0x08003658   0x08003658   0x00000010   Code   RO         2544    i._ZN6TUsartD1Ev    usart_driver_.o
    0x08003668   0x08003668   0x00000004   Code   RO          208    i._ZN7TButtonC1ERK4TPin  button.o
    0x0800366c   0x0800366c   0x00000002   Code   RO          209    i._ZN7TButtonD1Ev   button.o
    0x0800366e   0x0800366e   0x0000002a   Code   RO          461    i._ZN8T_AD840212reverse_bitsEh  ad8402.o
    0x08003698   0x08003698   0x0000008a   Code   RO          462    i._ZN8T_AD840213data_bit_ctrlEPh  ad8402.o
    0x08003722   0x08003722   0x000000ae   Code   RO          463    i._ZN8T_AD84024initEv  ad8402.o
    0x080037d0   0x080037d0   0x0000000e   Code   RO          465    i._ZN8T_AD84026rs_setEv  ad8402.o
    0x080037de   0x080037de   0x0000000e   Code   RO          466    i._ZN8T_AD84027clk_clrEv  ad8402.o
    0x080037ec   0x080037ec   0x0000000e   Code   RO          467    i._ZN8T_AD84027clk_setEv  ad8402.o
    0x080037fa   0x080037fa   0x0000000e   Code   RO          468    i._ZN8T_AD84027sdi_clrEv  ad8402.o
    0x08003808   0x08003808   0x0000000e   Code   RO          469    i._ZN8T_AD84027sdi_setEv  ad8402.o
    0x08003816   0x08003816   0x00000002   PAD
    0x08003818   0x08003818   0x000000c0   Code   RO          470    i._ZN8T_AD84028set_codeEhNS_8TChannelE  ad8402.o
    0x080038d8   0x080038d8   0x0000000e   Code   RO          471    i._ZN8T_AD84028shdn_clrEv  ad8402.o
    0x080038e6   0x080038e6   0x0000000e   Code   RO          472    i._ZN8T_AD84028shdn_setEv  ad8402.o
    0x080038f4   0x080038f4   0x0000000e   Code   RO          473    i._ZN8T_AD84029latch_clrEv  ad8402.o
    0x08003902   0x08003902   0x0000000e   Code   RO          474    i._ZN8T_AD84029latch_setEv  ad8402.o
    0x08003910   0x08003910   0x00000020   Code   RO          475    i._ZN8T_AD8402C1ERK7TPot_HW  ad8402.o
    0x08003930   0x08003930   0x00000002   Code   RO          476    i._ZN8T_AD8402D1Ev  ad8402.o
    0x08003932   0x08003932   0x00000002   PAD
    0x08003934   0x08003934   0x00000084   Code   RO         3673    i._ZN9TSettingsC1Ev  settings.o
    0x080039b8   0x080039b8   0x00000002   Code   RO         3674    i._ZN9TSettingsD1Ev  settings.o
    0x080039ba   0x080039ba   0x00000002   PAD
    0x080039bc   0x080039bc   0x0000005c   Code   RO         1945    i._ZNK6TFlash10erase_pageEj  flash_driver.o
    0x08003a18   0x08003a18   0x00000032   Code   RO         1946    i._ZNK6TFlash10write_pageEPKhtj  flash_driver.o
    0x08003a4a   0x08003a4a   0x00000002   PAD
    0x08003a4c   0x08003a4c   0x00000014   Code   RO         1947    i._ZNK6TFlash15clear_all_errorEv  flash_driver.o
    0x08003a60   0x08003a60   0x000000a8   Code   RO         1948    i._ZNK6TFlash4progEPKjjj  flash_driver.o
    0x08003b08   0x08003b08   0x0000001a   Code   RO         1950    i._ZNK6TFlash8stop_tmrEv  flash_driver.o
    0x08003b22   0x08003b22   0x0000001a   Code   RO         1951    i._ZNK6TFlash9start_tmrEv  flash_driver.o
    0x08003b3c   0x08003b3c   0x00000014   Code   RO         3675    i._ZNK9TSettings10chk_accessEs  settings.o
    0x08003b50   0x08003b50   0x00000014   Code   RO         3684    i._ZNK9TSettings9chk_calibEs  settings.o
    0x08003b64   0x08003b64   0x0000000e   Code   RO         5474    i.__scatterload_copy  mc_w.l(handlers.o)
    0x08003b72   0x08003b72   0x00000002   Code   RO         5475    i.__scatterload_null  mc_w.l(handlers.o)
    0x08003b74   0x08003b74   0x0000000e   Code   RO         5476    i.__scatterload_zeroinit  mc_w.l(handlers.o)
    0x08003b82   0x08003b82   0x00000002   PAD
    0x08003b84   0x08003b84   0x00000028   Code   RO          477    i.__sti___10_AD8402_cpp_AD8402  ad8402.o
    0x08003bac   0x08003bac   0x00000028   Code   RO          211    i.__sti___10_Button_cpp_Btn  button.o
    0x08003bd4   0x08003bd4   0x00000020   Code   RO         3686    i.__sti___12_settings_cpp_Settings  settings.o
    0x08003bf4   0x08003bf4   0x00000020   Code   RO         1952    i.__sti___16_Flash_driver_cpp_d50a58b4  flash_driver.o
    0x08003c14   0x08003c14   0x00000044   Code   RO         3978    i.__sti___19_lev_gauge_to_pc_cpp_UIF  lev_gauge_to_pc.o
    0x08003c58   0x08003c58   0x00000048   Code   RO          332    i.__sti___7_Led_cpp_Led  led.o
    0x08003ca0   0x08003ca0   0x00000010   Code   RO          630    i.__sti___8_main_cpp_63965102  main.o
    0x08003cb0   0x08003cb0   0x00000028   Code   RO         1141    i.__sti___9_model_cpp_Model  model.o
    0x08003cd8   0x08003cd8   0x00000050   Code   RO         5433    i.free              mc_w.l(malloc.o)
    0x08003d28   0x08003d28   0x00000050   Code   RO          631    i.main              main.o
    0x08003d78   0x08003d78   0x0000006c   Code   RO         5434    i.malloc            mc_w.l(malloc.o)
    0x08003de4   0x08003de4   0x00000098   Code   RO         3117    i.prvAddCurrentTaskToDelayedList  tasks.o
    0x08003e7c   0x08003e7c   0x000000b8   Code   RO         3118    i.prvAddNewTaskToReadyList  tasks.o
    0x08003f34   0x08003f34   0x00000064   Code   RO         3457    i.prvCheckForValidListAndQueue  timers.o
    0x08003f98   0x08003f98   0x00000064   Code   RO         3119    i.prvCheckTasksWaitingTermination  tasks.o
    0x08003ffc   0x08003ffc   0x0000002a   Code   RO         2898    i.prvCopyDataFromQueue  queue.o
    0x08004026   0x08004026   0x0000007c   Code   RO         2899    i.prvCopyDataToQueue  queue.o
    0x080040a2   0x080040a2   0x00000012   Code   RO         3120    i.prvDeleteTCB      tasks.o
    0x080040b4   0x080040b4   0x00000028   Code   RO         3458    i.prvGetNextExpireTime  timers.o
    0x080040dc   0x080040dc   0x00000038   Code   RO         2703    i.prvHeapInit       heap_2.o
    0x08004114   0x08004114   0x0000000c   Code   RO         3121    i.prvIdleTask       tasks.o
    0x08004120   0x08004120   0x0000001c   Code   RO         2900    i.prvInitialiseMutex  queue.o
    0x0800413c   0x0800413c   0x0000002a   Code   RO         2901    i.prvInitialiseNewQueue  queue.o
    0x08004166   0x08004166   0x000000ba   Code   RO         3122    i.prvInitialiseNewTask  tasks.o
    0x08004220   0x08004220   0x00000068   Code   RO         3123    i.prvInitialiseTaskLists  tasks.o
    0x08004288   0x08004288   0x00000058   Code   RO         3460    i.prvInsertTimerInActiveList  timers.o
    0x080042e0   0x080042e0   0x0000001a   Code   RO         2902    i.prvIsQueueEmpty   queue.o
    0x080042fa   0x080042fa   0x0000001e   Code   RO         2903    i.prvIsQueueFull    queue.o
    0x08004318   0x08004318   0x00000064   Code   RO         3461    i.prvProcessExpiredTimer  timers.o
    0x0800437c   0x0800437c   0x000000f8   Code   RO         3462    i.prvProcessReceivedCommands  timers.o
    0x08004474   0x08004474   0x00000074   Code   RO         3463    i.prvProcessTimerOrBlockTask  timers.o
    0x080044e8   0x080044e8   0x00000034   Code   RO         3125    i.prvResetNextTaskUnblockTime  tasks.o
    0x0800451c   0x0800451c   0x0000002c   Code   RO         3464    i.prvSampleTimeNow  timers.o
    0x08004548   0x08004548   0x000000a0   Code   RO         3465    i.prvSwitchTimerLists  timers.o
    0x080045e8   0x080045e8   0x00000040   Code   RO         2816    i.prvTaskExitError  port.o
    0x08004628   0x08004628   0x0000001a   Code   RO         3466    i.prvTimerTask      timers.o
    0x08004642   0x08004642   0x0000007e   Code   RO         2904    i.prvUnlockQueue    queue.o
    0x080046c0   0x080046c0   0x000000b8   Code   RO         2704    i.pvPortMalloc      heap_2.o
    0x08004778   0x08004778   0x00000020   Code   RO         3128    i.pvTaskIncrementMutexHeldCount  tasks.o
    0x08004798   0x08004798   0x0000002c   Code   RO         2817    i.pxPortInitialiseStack  port.o
    0x080047c4   0x080047c4   0x00000028   Code   RO         2778    i.uxListRemove      list.o
    0x080047ec   0x080047ec   0x00000002   Code   RO          632    i.vApplicationIdleHook  main.o
    0x080047ee   0x080047ee   0x00000002   PAD
    0x080047f0   0x080047f0   0x00000010   Code   RO          633    i.vApplicationStackOverflowHook  main.o
    0x08004800   0x08004800   0x0000001a   Code   RO         2779    i.vListInitialise   list.o
    0x0800481a   0x0800481a   0x00000006   Code   RO         2780    i.vListInitialiseItem  list.o
    0x08004820   0x08004820   0x00000034   Code   RO         2781    i.vListInsert       list.o
    0x08004854   0x08004854   0x00000018   Code   RO         2782    i.vListInsertEnd    list.o
    0x0800486c   0x0800486c   0x00000054   Code   RO         2819    i.vPortEnterCritical  port.o
    0x080048c0   0x080048c0   0x0000003c   Code   RO         2820    i.vPortExitCritical  port.o
    0x080048fc   0x080048fc   0x00000040   Code   RO         2705    i.vPortFree         heap_2.o
    0x0800493c   0x0800493c   0x00000016   Code   RO         2821    i.vPortSetupTimerInterrupt  port.o
    0x08004952   0x08004952   0x00000002   PAD
    0x08004954   0x08004954   0x00000078   Code   RO         2822    i.vPortValidateInterruptPriority  port.o
    0x080049cc   0x080049cc   0x0000002c   Code   RO         2910    i.vQueueAddToRegistry  queue.o
    0x080049f8   0x080049f8   0x0000004a   Code   RO         2914    i.vQueueWaitForMessageRestricted  queue.o
    0x08004a42   0x08004a42   0x00000002   PAD
    0x08004a44   0x08004a44   0x0000005c   Code   RO         3136    i.vTaskDelay        tasks.o
    0x08004aa0   0x08004aa0   0x0000000c   Code   RO         3141    i.vTaskMissedYield  tasks.o
    0x08004aac   0x08004aac   0x00000038   Code   RO         3143    i.vTaskPlaceOnEventList  tasks.o
    0x08004ae4   0x08004ae4   0x00000040   Code   RO         3144    i.vTaskPlaceOnEventListRestricted  tasks.o
    0x08004b24   0x08004b24   0x000000b0   Code   RO         3146    i.vTaskPriorityInherit  tasks.o
    0x08004bd4   0x08004bd4   0x00000030   Code   RO         3150    i.vTaskSetTimeOutState  tasks.o
    0x08004c04   0x08004c04   0x00000094   Code   RO         3151    i.vTaskStartScheduler  tasks.o
    0x08004c98   0x08004c98   0x00000010   Code   RO         3153    i.vTaskSuspendAll   tasks.o
    0x08004ca8   0x08004ca8   0x000000a8   Code   RO         3154    i.vTaskSwitchContext  tasks.o
    0x08004d50   0x08004d50   0x0000000c   Code   RO         2707    i.xPortGetFreeHeapSize  heap_2.o
    0x08004d5c   0x08004d5c   0x00000168   Code   RO         2823    i.xPortStartScheduler  port.o
    0x08004ec4   0x08004ec4   0x00000022   Code   RO         2916    i.xQueueCreateMutex  queue.o
    0x08004ee6   0x08004ee6   0x00000058   Code   RO         2917    i.xQueueGenericCreate  queue.o
    0x08004f3e   0x08004f3e   0x00000002   PAD
    0x08004f40   0x08004f40   0x000001c4   Code   RO         2918    i.xQueueGenericReceive  queue.o
    0x08005104   0x08005104   0x00000098   Code   RO         2919    i.xQueueGenericReset  queue.o
    0x0800519c   0x0800519c   0x000001a8   Code   RO         2920    i.xQueueGenericSend  queue.o
    0x08005344   0x08005344   0x000000fe   Code   RO         2921    i.xQueueGenericSendFromISR  queue.o
    0x08005442   0x08005442   0x000000e0   Code   RO         2923    i.xQueueGiveFromISR  queue.o
    0x08005522   0x08005522   0x00000002   PAD
    0x08005524   0x08005524   0x0000008c   Code   RO         3155    i.xTaskCheckForTimeOut  tasks.o
    0x080055b0   0x080055b0   0x00000066   Code   RO         3156    i.xTaskCreate       tasks.o
    0x08005616   0x08005616   0x00000002   PAD
    0x08005618   0x08005618   0x00000020   Code   RO         3160    i.xTaskGetSchedulerState  tasks.o
    0x08005638   0x08005638   0x0000000c   Code   RO         3161    i.xTaskGetTickCount  tasks.o
    0x08005644   0x08005644   0x00000148   Code   RO         3163    i.xTaskIncrementTick  tasks.o
    0x0800578c   0x0800578c   0x000000c8   Code   RO         3166    i.xTaskPriorityDisinherit  tasks.o
    0x08005854   0x08005854   0x00000098   Code   RO         3167    i.xTaskRemoveFromEventList  tasks.o
    0x080058ec   0x080058ec   0x00000104   Code   RO         3169    i.xTaskResumeAll    tasks.o
    0x080059f0   0x080059f0   0x00000054   Code   RO         3470    i.xTimerCreateTimerTask  timers.o
    0x08005a44   0x08005a44   0x0000008a   Code   RO         3471    i.xTimerGenericCommand  timers.o
    0x08005ace   0x08005ace   0x0000002e   Code   RO         1768    t._ZN6TModel11access_protIfU8__packedfEEvRT_RKT0_  model.o
    0x08005afc   0x08005afc   0x0000001a   Code   RO         3776    t._ZNK9TSettings9chk_paramIsEEbRKNS_6TRangeET_  settings.o
    0x08005b16   0x08005b16   0x00000002   PAD
    0x08005b18   0x08005b18   0x0000001c   Data   RO          499    .constdata          ad8402.o
    0x08005b34   0x08005b34   0x00000060   Data   RO          655    .constdata          main.o
    0x08005b94   0x08005b94   0x0000009c   Data   RO         1263    .constdata          model.o
    0x08005c30   0x08005c30   0x00000054   Data   RO         2569    .constdata          usart_driver_.o
    0x08005c84   0x08005c84   0x0000003c   Data   RO         3608    .constdata          ext_master.o
    0x08005cc0   0x08005cc0   0x0000002c   Data   RO         3703    .constdata          settings.o
    0x08005cec   0x08005cec   0x000000d0   Data   RO         4054    .constdata          lev_gauge_to_pc.o
    0x08005dbc   0x08005dbc   0x00000048   Data   RO         4475    .constdata          system_stm32l4xx.o
    0x08005e04   0x08005e04   0x00000040   Data   RO         5472    Region$$Table       anon$$obj.o
    0x08005e44   0x08005e44   0x00000004   Data   RO          218    .init_array         button.o
    0x08005e48   0x08005e44   0x00000004   Data   RO          344    .init_array         led.o
    0x08005e4c   0x08005e44   0x00000004   Data   RO          501    .init_array         ad8402.o
    0x08005e50   0x08005e44   0x00000004   Data   RO          657    .init_array         main.o
    0x08005e54   0x08005e44   0x00000004   Data   RO         1264    .init_array         model.o
    0x08005e58   0x08005e44   0x00000004   Data   RO         1971    .init_array         flash_driver.o
    0x08005e5c   0x08005e44   0x00000004   Data   RO         3704    .init_array         settings.o
    0x08005e60   0x08005e44   0x00000004   Data   RO         4056    .init_array         lev_gauge_to_pc.o
    0x08005e64   0x08005e44   0x00000000   Data   RO         5413    .init_array         mc_w.l(cpp_init.o)


    Execution Region REGION_STACK (Exec base: 0x10000000, Load base: 0x08005e64, Size: 0x00003000, Max: 0xffffffff, ABSOLUTE)

    Exec Addr    Load Addr    Size         Type   Attr      Idx    E Section Name        Object

    0x10000000        -       0x00003000   Zero   RW         4463    STACK               startup_stm32l431xx.o


    Execution Region REGION_HEAP (Exec base: 0x10003000, Load base: 0x08005e64, Size: 0x00000200, Max: 0xffffffff, ABSOLUTE)

    Exec Addr    Load Addr    Size         Type   Attr      Idx    E Section Name        Object

    0x10003000        -       0x00000200   Zero   RW         4464    HEAP                startup_stm32l431xx.o


    Execution Region APP_RAM (Exec base: 0x20000000, Load base: 0x08005e64, Size: 0x00008d40, Max: 0x0000c000, ABSOLUTE, COMPRESSED[0x00000158])

    Exec Addr    Load Addr    Size         Type   Attr      Idx    E Section Name        Object

    0x20000000   COMPRESSED   0x00000010   Data   RW          500    .data               ad8402.o
    0x20000010   COMPRESSED   0x0000005d   Data   RW          656    .data               main.o
    0x2000006d   COMPRESSED   0x00000003   PAD
    0x20000070   COMPRESSED   0x000002f0   Data   RW          972    .data               hard_config.o
    0x20000360   COMPRESSED   0x0000000d   Data   RW         1970    .data               flash_driver.o
    0x2000036d   COMPRESSED   0x00000003   PAD
    0x20000370   COMPRESSED   0x0000001b   Data   RW         2177    .data               i2c_driver.o
    0x2000038b   COMPRESSED   0x00000001   PAD
    0x2000038c   COMPRESSED   0x00000018   Data   RW         2709    .data               heap_2.o
    0x200003a4   COMPRESSED   0x0000000c   Data   RW         2824    .data               port.o
    0x200003b0   COMPRESSED   0x0000003c   Data   RW         3172    .data               tasks.o
    0x200003ec   COMPRESSED   0x00000014   Data   RW         3477    .data               timers.o
    0x20000400   COMPRESSED   0x000000d0   Data   RW         4055    .data               lev_gauge_to_pc.o
    0x200004d0   COMPRESSED   0x00000004   Data   RW         4476    .data               system_stm32l4xx.o
    0x200004d4   COMPRESSED   0x00000004   Data   RW         5462    .data               mc_w.l(cpp_dtor.o)
    0x200004d8   COMPRESSED   0x00000004   Data   RW         5468    .data               mc_w.l(mvars.o)
    0x200004dc   COMPRESSED   0x00000004   Data   RW         5469    .data               mc_w.l(mvars.o)
    0x200004e0        -       0x00000010   Zero   RW          217    .bss                button.o
    0x200004f0        -       0x00000020   Zero   RW          343    .bss                led.o
    0x20000510        -       0x00000068   Zero   RW          498    .bss                ad8402.o
    0x20000578        -       0x000000b8   Zero   RW         1262    .bss                model.o
    0x20000630        -       0x00001000   Zero   RW         2708    .bss                heap_2.o
    0x20001630        -       0x00000040   Zero   RW         2930    .bss                queue.o
    0x20001670        -       0x000000f0   Zero   RW         3171    .bss                tasks.o
    0x20001760        -       0x00000028   Zero   RW         3476    .bss                timers.o
    0x20001788        -       0x0000002e   Zero   RW         3702    .bss                settings.o
    0x200017b6   COMPRESSED   0x00000002   PAD
    0x200017b8        -       0x00007588   Zero   RW         4053    .bss                lev_gauge_to_pc.o



  Load Region LR_IROM4 (Base: 0x0803f800, Size: 0x00000000, Max: 0x00000400, ABSOLUTE)

    Execution Region SETS_ROM (Exec base: 0x0803f800, Load base: 0x0803f800, Size: 0x00000000, Max: 0x00000400, ABSOLUTE)

    **** No section assigned to this execution region ****


==============================================================================

Image component sizes


      Code (inc. data)   RO Data    RW Data    ZI Data      Debug   Object Name

       754         44         32         16        104      16829   ad8402.o
        46         18          4          0         16     552434   button.o
       450         10         60          0          0       8691   ext_master.o
       982         76          4         13          0      79146   flash_driver.o
       108         16          0        752          0      13431   hard_config.o
       316         46          0         24       4096      16906   heap_2.o
       728        104          0         27          0      23364   i2c_driver.o
       172         28          4          0         32      17510   led.o
      5276        300        212        208      30088     175967   lev_gauge_to_pc.o
       148          0          0          0          0       3022   list.o
      1670        168        100         93          0     626587   main.o
       694         36        160          0        184      22970   model.o
       112         24          0          0          0       1458   old_flash_lib.o
      1028         88          0         12          0      10629   port.o
      2164         22          0          0         64      25505   queue.o
         0          0          0          0          0     552636   relay.o
        16          0          0          0          0       1988   rs-485_phy.o
       232         56         48          0         46       9134   settings.o
        36          8        396          0      12800        812   startup_stm32l431xx.o
        80         12         72          4          0       1177   system_stm32l4xx.o
      2846        358          0         60        240      23533   tasks.o
      1144        116          0         20         40      16583   timers.o
       932         26         84          0          0      58932   usart_driver_.o

    ----------------------------------------------------------------------
     19984       1556       1240       1236      47712    2259244   Object Totals
         0          0         64          0          0          0   (incl. Generated)
