Component: ARM Compiler 5.06 update 4 (build 422) Tool: armlink [4d35d2]

==============================================================================

Section Cross References

    mpu-9250_acc_gyro_mag_driver_hl.o(i.EXTI15_10_IRQHandler) refers to queue.o(i.xQueueGiveFromISR) for xQueueGiveFromISR
    mpu-9250_acc_gyro_mag_driver_hl.o(i.EXTI15_10_IRQHandler) refers to hard_config.o(.data) for I2C_HW
    mpu-9250_acc_gyro_mag_driver_hl.o(i.EXTI15_10_IRQHandler) refers to mpu-9250_acc_gyro_mag_driver_hl.o(.data) for Int1HigherPriorityTaskWoken
    mpu-9250_acc_gyro_mag_driver_hl.o(i.EXTI15_10_IRQHandler) refers to main.o(.data) for RawDataMems_RdySem
    mpu-9250_acc_gyro_mag_driver_hl.o(i._ZN8MPU_925020TAccGyroMagDriver_HL10config_accEv) refers to mpu-9250_acc_gyro_mag_driver_ll.o(i._ZNK8MPU_925020TAccGyroMagDriver_LL17get_acc_gyro_addrENS_14TLogicLevelAD0E) for MPU_9250::TAccGyroMagDriver_LL::get_acc_gyro_addr(MPU_9250::TLogicLevelAD0) const
    mpu-9250_acc_gyro_mag_driver_hl.o(i._ZN8MPU_925020TAccGyroMagDriver_HL10config_accEv) refers to mpu-9250_acc_gyro_mag_driver_ll.o(i._ZN8MPU_925020TAccGyroMagDriver_LL23accel_full_scale_selectEPhNS_21VAccelFullScaleSelectE) for MPU_9250::TAccGyroMagDriver_LL::accel_full_scale_select(unsigned char*, MPU_9250::VAccelFullScaleSelect)
    mpu-9250_acc_gyro_mag_driver_hl.o(i._ZN8MPU_925020TAccGyroMagDriver_HL10config_accEv) refers to i2c_driver.o(i._ZN3I2C4TI2C16read_single_byteEPhhh) for I2C::TI2C::read_single_byte(unsigned char*, unsigned char, unsigned char)
    mpu-9250_acc_gyro_mag_driver_hl.o(i._ZN8MPU_925020TAccGyroMagDriver_HL10config_accEv) refers to i2c_driver.o(i._ZN3I2C4TI2C17write_single_byteEPhhh) for I2C::TI2C::write_single_byte(unsigned char*, unsigned char, unsigned char)
    mpu-9250_acc_gyro_mag_driver_hl.o(i._ZN8MPU_925020TAccGyroMagDriver_HL10config_accEv) refers to mpu-9250_acc_gyro_mag_driver_ll.o(i._ZN8MPU_925020TAccGyroMagDriver_LL19accel_filter_choiseEPhNS_18VAccelFilterChoiseE) for MPU_9250::TAccGyroMagDriver_LL::accel_filter_choise(unsigned char*, MPU_9250::VAccelFilterChoise)
    mpu-9250_acc_gyro_mag_driver_hl.o(i._ZN8MPU_925020TAccGyroMagDriver_HL10config_accEv) refers to mpu-9250_acc_gyro_mag_driver_ll.o(i._ZN8MPU_925020TAccGyroMagDriver_LL16set_accel_filterEPhNS_15VSetAccelFilterE) for MPU_9250::TAccGyroMagDriver_LL::set_accel_filter(unsigned char*, MPU_9250::VSetAccelFilter)
    mpu-9250_acc_gyro_mag_driver_hl.o(i._ZN8MPU_925020TAccGyroMagDriver_HL10config_accEv) refers to mpu-9250_acc_gyro_mag_driver_ll.o(i._ZN8MPU_925020TAccGyroMagDriver_LL17accel_filter_readEhPNS_15VSetAccelFilterE) for MPU_9250::TAccGyroMagDriver_LL::accel_filter_read(unsigned char, MPU_9250::VSetAccelFilter*)
    mpu-9250_acc_gyro_mag_driver_hl.o(i._ZN8MPU_925020TAccGyroMagDriver_HL10config_magEv) refers to mpu-9250_acc_gyro_mag_driver_ll.o(i._ZNK8MPU_925020TAccGyroMagDriver_LL17get_acc_gyro_addrENS_14TLogicLevelAD0E) for MPU_9250::TAccGyroMagDriver_LL::get_acc_gyro_addr(MPU_9250::TLogicLevelAD0) const
    mpu-9250_acc_gyro_mag_driver_hl.o(i._ZN8MPU_925020TAccGyroMagDriver_HL10config_magEv) refers to mpu-9250_acc_gyro_mag_driver_ll.o(i._ZN8MPU_925020TAccGyroMagDriver_LL20i2c_master_pins_ctrlEPhNS_6VEnDisE) for MPU_9250::TAccGyroMagDriver_LL::i2c_master_pins_ctrl(unsigned char*, MPU_9250::VEnDis)
    mpu-9250_acc_gyro_mag_driver_hl.o(i._ZN8MPU_925020TAccGyroMagDriver_HL10config_magEv) refers to i2c_driver.o(i._ZN3I2C4TI2C16read_single_byteEPhhh) for I2C::TI2C::read_single_byte(unsigned char*, unsigned char, unsigned char)
    mpu-9250_acc_gyro_mag_driver_hl.o(i._ZN8MPU_925020TAccGyroMagDriver_HL10config_magEv) refers to mpu-9250_acc_gyro_mag_driver_ll.o(i._ZN8MPU_925020TAccGyroMagDriver_LL20i2c_master_pins_readEhPNS_6VEnDisE) for MPU_9250::TAccGyroMagDriver_LL::i2c_master_pins_read(unsigned char, MPU_9250::VEnDis*)
    mpu-9250_acc_gyro_mag_driver_hl.o(i._ZN8MPU_925020TAccGyroMagDriver_HL10config_magEv) refers to i2c_driver.o(i._ZN3I2C4TI2C17write_single_byteEPhhh) for I2C::TI2C::write_single_byte(unsigned char*, unsigned char, unsigned char)
    mpu-9250_acc_gyro_mag_driver_hl.o(i._ZN8MPU_925020TAccGyroMagDriver_HL10config_magEv) refers to mpu-9250_acc_gyro_mag_driver_hl.o(i._ZN8MPU_925020TAccGyroMagDriver_HL12check_id_magEv) for MPU_9250::TAccGyroMagDriver_HL::check_id_mag()
    mpu-9250_acc_gyro_mag_driver_hl.o(i._ZN8MPU_925020TAccGyroMagDriver_HL10config_magEv) refers to mpu-9250_acc_gyro_mag_driver_ll.o(i._ZNK8MPU_925020TAccGyroMagDriver_LL12get_mag_addrEv) for MPU_9250::TAccGyroMagDriver_LL::get_mag_addr() const
    mpu-9250_acc_gyro_mag_driver_hl.o(i._ZN8MPU_925020TAccGyroMagDriver_HL10config_magEv) refers to mpu-9250_acc_gyro_mag_driver_ll.o(i._ZN8MPU_925020TAccGyroMagDriver_LL18mag_output_bit_setEPhNS_16VMagOutputBitSetE) for MPU_9250::TAccGyroMagDriver_LL::mag_output_bit_set(unsigned char*, MPU_9250::VMagOutputBitSet)
    mpu-9250_acc_gyro_mag_driver_hl.o(i._ZN8MPU_925020TAccGyroMagDriver_HL10config_magEv) refers to mpu-9250_acc_gyro_mag_driver_ll.o(i._ZN8MPU_925020TAccGyroMagDriver_LL22mag_operation_mode_setEPhNS_20VMagOperationModeSetE) for MPU_9250::TAccGyroMagDriver_LL::mag_operation_mode_set(unsigned char*, MPU_9250::VMagOperationModeSet)
    mpu-9250_acc_gyro_mag_driver_hl.o(i._ZN8MPU_925020TAccGyroMagDriver_HL10config_magEv) refers to mpu-9250_acc_gyro_mag_driver_ll.o(i._ZN8MPU_925020TAccGyroMagDriver_LL19mag_output_bit_readEhPNS_16VMagOutputBitSetE) for MPU_9250::TAccGyroMagDriver_LL::mag_output_bit_read(unsigned char, MPU_9250::VMagOutputBitSet*)
    mpu-9250_acc_gyro_mag_driver_hl.o(i._ZN8MPU_925020TAccGyroMagDriver_HL10config_magEv) refers to mpu-9250_acc_gyro_mag_driver_ll.o(i._ZN8MPU_925020TAccGyroMagDriver_LL23mag_operation_mode_readEhPNS_20VMagOperationModeSetE) for MPU_9250::TAccGyroMagDriver_LL::mag_operation_mode_read(unsigned char, MPU_9250::VMagOperationModeSet*)
    mpu-9250_acc_gyro_mag_driver_hl.o(i._ZN8MPU_925020TAccGyroMagDriver_HL11config_gyroEv) refers to mpu-9250_acc_gyro_mag_driver_ll.o(i._ZNK8MPU_925020TAccGyroMagDriver_LL17get_acc_gyro_addrENS_14TLogicLevelAD0E) for MPU_9250::TAccGyroMagDriver_LL::get_acc_gyro_addr(MPU_9250::TLogicLevelAD0) const
    mpu-9250_acc_gyro_mag_driver_hl.o(i._ZN8MPU_925020TAccGyroMagDriver_HL11config_gyroEv) refers to mpu-9250_acc_gyro_mag_driver_ll.o(i._ZN8MPU_925020TAccGyroMagDriver_LL22gyro_full_scale_selectEPhNS_20VGyroFullScaleSelectE) for MPU_9250::TAccGyroMagDriver_LL::gyro_full_scale_select(unsigned char*, MPU_9250::VGyroFullScaleSelect)
    mpu-9250_acc_gyro_mag_driver_hl.o(i._ZN8MPU_925020TAccGyroMagDriver_HL11config_gyroEv) refers to i2c_driver.o(i._ZN3I2C4TI2C16read_single_byteEPhhh) for I2C::TI2C::read_single_byte(unsigned char*, unsigned char, unsigned char)
    mpu-9250_acc_gyro_mag_driver_hl.o(i._ZN8MPU_925020TAccGyroMagDriver_HL11config_gyroEv) refers to i2c_driver.o(i._ZN3I2C4TI2C17write_single_byteEPhhh) for I2C::TI2C::write_single_byte(unsigned char*, unsigned char, unsigned char)
    mpu-9250_acc_gyro_mag_driver_hl.o(i._ZN8MPU_925020TAccGyroMagDriver_HL11config_gyroEv) refers to mpu-9250_acc_gyro_mag_driver_ll.o(i._ZN8MPU_925020TAccGyroMagDriver_LL18gyro_filter_choiseEPhNS_17VGyroFilterChoiseE) for MPU_9250::TAccGyroMagDriver_LL::gyro_filter_choise(unsigned char*, MPU_9250::VGyroFilterChoise)
    mpu-9250_acc_gyro_mag_driver_hl.o(i._ZN8MPU_925020TAccGyroMagDriver_HL11config_gyroEv) refers to mpu-9250_acc_gyro_mag_driver_ll.o(i._ZN8MPU_925020TAccGyroMagDriver_LL23filter_gyro_temp_configEPhNS_21VFilterGyroTempConfigE) for MPU_9250::TAccGyroMagDriver_LL::filter_gyro_temp_config(unsigned char*, MPU_9250::VFilterGyroTempConfig)
    mpu-9250_acc_gyro_mag_driver_hl.o(i._ZN8MPU_925020TAccGyroMagDriver_HL11config_gyroEv) refers to mpu-9250_acc_gyro_mag_driver_ll.o(i._ZN8MPU_925020TAccGyroMagDriver_LL21filter_gyro_temp_readEhPNS_21VFilterGyroTempConfigE) for MPU_9250::TAccGyroMagDriver_LL::filter_gyro_temp_read(unsigned char, MPU_9250::VFilterGyroTempConfig*)
    mpu-9250_acc_gyro_mag_driver_hl.o(i._ZN8MPU_925020TAccGyroMagDriver_HL11init_driverEv) refers to i2c_driver.o(i._ZN3I2C4TI2C14pin_clk_configEv) for I2C::TI2C::pin_clk_config()
    mpu-9250_acc_gyro_mag_driver_hl.o(i._ZN8MPU_925020TAccGyroMagDriver_HL11init_driverEv) refers to i2c_driver.o(i._ZN3I2C4TI2C11i2c_hw_initEv) for I2C::TI2C::i2c_hw_init()
    mpu-9250_acc_gyro_mag_driver_hl.o(i._ZN8MPU_925020TAccGyroMagDriver_HL12check_id_magEv) refers to mpu-9250_acc_gyro_mag_driver_ll.o(i._ZNK8MPU_925020TAccGyroMagDriver_LL12get_mag_addrEv) for MPU_9250::TAccGyroMagDriver_LL::get_mag_addr() const
    mpu-9250_acc_gyro_mag_driver_hl.o(i._ZN8MPU_925020TAccGyroMagDriver_HL12check_id_magEv) refers to i2c_driver.o(i._ZN3I2C4TI2C16read_single_byteEPhhh) for I2C::TI2C::read_single_byte(unsigned char*, unsigned char, unsigned char)
    mpu-9250_acc_gyro_mag_driver_hl.o(i._ZN8MPU_925020TAccGyroMagDriver_HL16collect_acc_dataEv) refers to mpu-9250_acc_gyro_mag_driver_ll.o(i._ZNK8MPU_925020TAccGyroMagDriver_LL17get_acc_gyro_addrENS_14TLogicLevelAD0E) for MPU_9250::TAccGyroMagDriver_LL::get_acc_gyro_addr(MPU_9250::TLogicLevelAD0) const
    mpu-9250_acc_gyro_mag_driver_hl.o(i._ZN8MPU_925020TAccGyroMagDriver_HL16collect_acc_dataEv) refers to i2c_driver.o(i._ZN3I2C4TI2C10read_burstEPhhhh) for I2C::TI2C::read_burst(unsigned char*, unsigned char, unsigned char, unsigned char)
    mpu-9250_acc_gyro_mag_driver_hl.o(i._ZN8MPU_925020TAccGyroMagDriver_HL16collect_acc_dataEv) refers to mpu-9250_acc_gyro_mag_driver_hl.o(i._ZN8MPU_925020TAccGyroMagDriver_HL16convert_acc_dataEPh) for MPU_9250::TAccGyroMagDriver_HL::convert_acc_data(unsigned char*)
    mpu-9250_acc_gyro_mag_driver_hl.o(i._ZN8MPU_925020TAccGyroMagDriver_HL16collect_all_dataEv) refers to mpu-9250_acc_gyro_mag_driver_ll.o(i._ZNK8MPU_925020TAccGyroMagDriver_LL17get_acc_gyro_addrENS_14TLogicLevelAD0E) for MPU_9250::TAccGyroMagDriver_LL::get_acc_gyro_addr(MPU_9250::TLogicLevelAD0) const
    mpu-9250_acc_gyro_mag_driver_hl.o(i._ZN8MPU_925020TAccGyroMagDriver_HL16collect_all_dataEv) refers to i2c_driver.o(i._ZN3I2C4TI2C10read_burstEPhhhh) for I2C::TI2C::read_burst(unsigned char*, unsigned char, unsigned char, unsigned char)
    mpu-9250_acc_gyro_mag_driver_hl.o(i._ZN8MPU_925020TAccGyroMagDriver_HL16collect_all_dataEv) refers to mpu-9250_acc_gyro_mag_driver_hl.o(i._ZN8MPU_925020TAccGyroMagDriver_HL16convert_all_dataEPh) for MPU_9250::TAccGyroMagDriver_HL::convert_all_data(unsigned char*)
    mpu-9250_acc_gyro_mag_driver_hl.o(i._ZN8MPU_925020TAccGyroMagDriver_HL16collect_mag_dataEv) refers to mpu-9250_acc_gyro_mag_driver_ll.o(i._ZNK8MPU_925020TAccGyroMagDriver_LL12get_mag_addrEv) for MPU_9250::TAccGyroMagDriver_LL::get_mag_addr() const
    mpu-9250_acc_gyro_mag_driver_hl.o(i._ZN8MPU_925020TAccGyroMagDriver_HL16collect_mag_dataEv) refers to i2c_driver.o(i._ZN3I2C4TI2C10read_burstEPhhhh) for I2C::TI2C::read_burst(unsigned char*, unsigned char, unsigned char, unsigned char)
    mpu-9250_acc_gyro_mag_driver_hl.o(i._ZN8MPU_925020TAccGyroMagDriver_HL16collect_mag_dataEv) refers to mpu-9250_acc_gyro_mag_driver_hl.o(i._ZN8MPU_925020TAccGyroMagDriver_HL16convert_mag_dataEPh) for MPU_9250::TAccGyroMagDriver_HL::convert_mag_data(unsigned char*)
    mpu-9250_acc_gyro_mag_driver_hl.o(i._ZN8MPU_925020TAccGyroMagDriver_HL16convert_acc_dataEPh) refers to mpu-9250_acc_gyro_mag_driver_hl.o(i._ZN8MPU_925020TAccGyroMagDriver_HL13rev_half_wordENS_11TSensorDataE) for MPU_9250::TAccGyroMagDriver_HL::rev_half_word(MPU_9250::TSensorData)
    mpu-9250_acc_gyro_mag_driver_hl.o(i._ZN8MPU_925020TAccGyroMagDriver_HL16convert_acc_dataEPh) refers to mpu-9250_acc_gyro_mag_driver_hl.o(i._ZN8MPU_925020TAccGyroMagDriver_HL11count_accelEPKNS_12TRawAxesDataE) for MPU_9250::TAccGyroMagDriver_HL::count_accel(const MPU_9250::TRawAxesData*)
    mpu-9250_acc_gyro_mag_driver_hl.o(i._ZN8MPU_925020TAccGyroMagDriver_HL16convert_all_dataEPh) refers to mpu-9250_acc_gyro_mag_driver_hl.o(i._ZN8MPU_925020TAccGyroMagDriver_HL13rev_half_wordENS_11TSensorDataE) for MPU_9250::TAccGyroMagDriver_HL::rev_half_word(MPU_9250::TSensorData)
    mpu-9250_acc_gyro_mag_driver_hl.o(i._ZN8MPU_925020TAccGyroMagDriver_HL16convert_all_dataEPh) refers to mpu-9250_acc_gyro_mag_driver_hl.o(i._ZN8MPU_925020TAccGyroMagDriver_HL17count_temperatureEs) for MPU_9250::TAccGyroMagDriver_HL::count_temperature(short)
    mpu-9250_acc_gyro_mag_driver_hl.o(i._ZN8MPU_925020TAccGyroMagDriver_HL16convert_all_dataEPh) refers to mpu-9250_acc_gyro_mag_driver_hl.o(i._ZN8MPU_925020TAccGyroMagDriver_HL11count_accelEPKNS_12TRawAxesDataE) for MPU_9250::TAccGyroMagDriver_HL::count_accel(const MPU_9250::TRawAxesData*)
    mpu-9250_acc_gyro_mag_driver_hl.o(i._ZN8MPU_925020TAccGyroMagDriver_HL16convert_all_dataEPh) refers to mpu-9250_acc_gyro_mag_driver_hl.o(i._ZN8MPU_925020TAccGyroMagDriver_HL10count_gyroEPKNS_12TRawAxesDataE) for MPU_9250::TAccGyroMagDriver_HL::count_gyro(const MPU_9250::TRawAxesData*)
    mpu-9250_acc_gyro_mag_driver_hl.o(i._ZN8MPU_925020TAccGyroMagDriver_HL16convert_mag_dataEPh) refers to mpu-9250_acc_gyro_mag_driver_ll.o(i._ZN8MPU_925020TAccGyroMagDriver_LL19mag_mirror_data_bitEhPNS_11VStatusFlagE) for MPU_9250::TAccGyroMagDriver_LL::mag_mirror_data_bit(unsigned char, MPU_9250::VStatusFlag*)
    mpu-9250_acc_gyro_mag_driver_hl.o(i._ZN8MPU_925020TAccGyroMagDriver_HL16convert_mag_dataEPh) refers to mpu-9250_acc_gyro_mag_driver_ll.o(i._ZN8MPU_925020TAccGyroMagDriver_LL12mag_overflowEhPNS_11VStatusFlagE) for MPU_9250::TAccGyroMagDriver_LL::mag_overflow(unsigned char, MPU_9250::VStatusFlag*)
    mpu-9250_acc_gyro_mag_driver_hl.o(i._ZN8MPU_925020TAccGyroMagDriver_HL16convert_mag_dataEPh) refers to mpu-9250_acc_gyro_mag_driver_hl.o(i._ZN8MPU_925020TAccGyroMagDriver_HL13count_magnetoEPKNS_12TRawAxesDataE) for MPU_9250::TAccGyroMagDriver_HL::count_magneto(const MPU_9250::TRawAxesData*)
    mpu-9250_acc_gyro_mag_driver_hl.o(i._ZN8MPU_925020TAccGyroMagDriver_HL17check_id_acc_gyroEv) refers to mpu-9250_acc_gyro_mag_driver_ll.o(i._ZNK8MPU_925020TAccGyroMagDriver_LL17get_acc_gyro_addrENS_14TLogicLevelAD0E) for MPU_9250::TAccGyroMagDriver_LL::get_acc_gyro_addr(MPU_9250::TLogicLevelAD0) const
    mpu-9250_acc_gyro_mag_driver_hl.o(i._ZN8MPU_925020TAccGyroMagDriver_HL17check_id_acc_gyroEv) refers to i2c_driver.o(i._ZN3I2C4TI2C16read_single_byteEPhhh) for I2C::TI2C::read_single_byte(unsigned char*, unsigned char, unsigned char)
    mpu-9250_acc_gyro_mag_driver_hl.o(i._ZN8MPU_925020TAccGyroMagDriver_HL8init_auxEv) refers to stm32l4xx_ll_gpio.o(i.LL_GPIO_Init) for LL_GPIO_Init
    mpu-9250_acc_gyro_mag_driver_hl.o(i._ZN8MPU_925020TAccGyroMagDriver_HL8init_auxEv) refers to stm32l4xx_ll_exti.o(i.LL_EXTI_Init) for LL_EXTI_Init
    mpu-9250_acc_gyro_mag_driver_hl.o(i._ZN8MPU_925020TAccGyroMagDriver_HL9init_chipEv) refers to mpu-9250_acc_gyro_mag_driver_ll.o(i._ZNK8MPU_925020TAccGyroMagDriver_LL17get_acc_gyro_addrENS_14TLogicLevelAD0E) for MPU_9250::TAccGyroMagDriver_LL::get_acc_gyro_addr(MPU_9250::TLogicLevelAD0) const
    mpu-9250_acc_gyro_mag_driver_hl.o(i._ZN8MPU_925020TAccGyroMagDriver_HL9init_chipEv) refers to mpu-9250_acc_gyro_mag_driver_ll.o(i._ZN8MPU_925020TAccGyroMagDriver_LL15int_logic_levelEPhNS_14VLogicLevelINTE) for MPU_9250::TAccGyroMagDriver_LL::int_logic_level(unsigned char*, MPU_9250::VLogicLevelINT)
    mpu-9250_acc_gyro_mag_driver_hl.o(i._ZN8MPU_925020TAccGyroMagDriver_HL9init_chipEv) refers to i2c_driver.o(i._ZN3I2C4TI2C16read_single_byteEPhhh) for I2C::TI2C::read_single_byte(unsigned char*, unsigned char, unsigned char)
    mpu-9250_acc_gyro_mag_driver_hl.o(i._ZN8MPU_925020TAccGyroMagDriver_HL9init_chipEv) refers to mpu-9250_acc_gyro_mag_driver_ll.o(i._ZN8MPU_925020TAccGyroMagDriver_LL14int_pin_configEPhNS_13VPinConfigINTE) for MPU_9250::TAccGyroMagDriver_LL::int_pin_config(unsigned char*, MPU_9250::VPinConfigINT)
    mpu-9250_acc_gyro_mag_driver_hl.o(i._ZN8MPU_925020TAccGyroMagDriver_HL9init_chipEv) refers to mpu-9250_acc_gyro_mag_driver_ll.o(i._ZN8MPU_925020TAccGyroMagDriver_LL14int_latch_ctrlEPhNS_9VLatchINTE) for MPU_9250::TAccGyroMagDriver_LL::int_latch_ctrl(unsigned char*, MPU_9250::VLatchINT)
    mpu-9250_acc_gyro_mag_driver_hl.o(i._ZN8MPU_925020TAccGyroMagDriver_HL9init_chipEv) refers to i2c_driver.o(i._ZN3I2C4TI2C17write_single_byteEPhhh) for I2C::TI2C::write_single_byte(unsigned char*, unsigned char, unsigned char)
    mpu-9250_acc_gyro_mag_driver_hl.o(i._ZN8MPU_925020TAccGyroMagDriver_HL9init_chipEv) refers to mpu-9250_acc_gyro_mag_driver_ll.o(i._ZN8MPU_925020TAccGyroMagDriver_LL23raw_data_ready_int_ctrlEPhNS_6VEnDisE) for MPU_9250::TAccGyroMagDriver_LL::raw_data_ready_int_ctrl(unsigned char*, MPU_9250::VEnDis)
    mpu-9250_acc_gyro_mag_driver_hl.o(i._ZN8MPU_925020TAccGyroMagDriver_HL9init_chipEv) refers to mpu-9250_acc_gyro_mag_driver_ll.o(i._ZN8MPU_925020TAccGyroMagDriver_LL25i2c_master_if_module_ctrlEPhNS_14VI2CMasterCtrlE) for MPU_9250::TAccGyroMagDriver_LL::i2c_master_if_module_ctrl(unsigned char*, MPU_9250::VI2CMasterCtrl)
    mpu-9250_acc_gyro_mag_driver_hl.o(i._ZN8MPU_925020TAccGyroMagDriver_HL9init_chipEv) refers to mpu-9250_acc_gyro_mag_driver_hl.o(i._ZN8MPU_925020TAccGyroMagDriver_HL11config_gyroEv) for MPU_9250::TAccGyroMagDriver_HL::config_gyro()
    mpu-9250_acc_gyro_mag_driver_hl.o(i._ZN8MPU_925020TAccGyroMagDriver_HL9init_chipEv) refers to mpu-9250_acc_gyro_mag_driver_hl.o(i._ZN8MPU_925020TAccGyroMagDriver_HL10config_accEv) for MPU_9250::TAccGyroMagDriver_HL::config_acc()
    mpu-9250_acc_gyro_mag_driver_hl.o(i._ZN8MPU_925020TAccGyroMagDriver_HLC1ERK7TI2C_HW) refers to i2c_driver.o(i._ZN3I2C4TI2CC1ERK7TI2C_HWNS_5TModeENS_5TRateENS_11TAddressingE) for I2C::TI2C::TI2C(const TI2C_HW&, I2C::TMode, I2C::TRate, I2C::TAddressing)
    mpu-9250_acc_gyro_mag_driver_hl.o(i._ZN8MPU_925020TAccGyroMagDriver_HLC1ERK7TI2C_HW) refers to mpu-9250_acc_gyro_mag_driver_ll.o(i._ZN8MPU_925020TAccGyroMagDriver_LLC1Ev) for MPU_9250::TAccGyroMagDriver_LL::TAccGyroMagDriver_LL()
    mpu-9250_acc_gyro_mag_driver_hl.o(i._ZN8MPU_925020TAccGyroMagDriver_HLD1Ev) refers to mpu-9250_acc_gyro_mag_driver_ll.o(i._ZN8MPU_925020TAccGyroMagDriver_LLD1Ev) for MPU_9250::TAccGyroMagDriver_LL::~TAccGyroMagDriver_LL()
    mpu-9250_acc_gyro_mag_driver_hl.o(i._ZN8MPU_925020TAccGyroMagDriver_HLD1Ev) refers to i2c_driver.o(i._ZN3I2C4TI2CD1Ev) for I2C::TI2C::~TI2C()
    mpu-9250_acc_gyro_mag_driver_hl.o(i.__sti___35_MPU_9250_acc_gyro_mag_driver_hl_cpp_f9f9292c) refers to mpu-9250_acc_gyro_mag_driver_hl.o(i._ZN8MPU_925020TAccGyroMagDriver_HLC1ERK7TI2C_HW) for MPU_9250::TAccGyroMagDriver_HL::TAccGyroMagDriver_HL(const TI2C_HW&)
    mpu-9250_acc_gyro_mag_driver_hl.o(i.__sti___35_MPU_9250_acc_gyro_mag_driver_hl_cpp_f9f9292c) refers to aeabi_atexit.o(.text) for __aeabi_atexit
    mpu-9250_acc_gyro_mag_driver_hl.o(i.__sti___35_MPU_9250_acc_gyro_mag_driver_hl_cpp_f9f9292c) refers to hard_config.o(.data) for I2C_HW
    mpu-9250_acc_gyro_mag_driver_hl.o(i.__sti___35_MPU_9250_acc_gyro_mag_driver_hl_cpp_f9f9292c) refers to mpu-9250_acc_gyro_mag_driver_hl.o(.bss) for AccMagGyro
    mpu-9250_acc_gyro_mag_driver_hl.o(i.__sti___35_MPU_9250_acc_gyro_mag_driver_hl_cpp_f9f9292c) refers to mpu-9250_acc_gyro_mag_driver_hl.o(i._ZN8MPU_925020TAccGyroMagDriver_HLD1Ev) for MPU_9250::TAccGyroMagDriver_HL::~TAccGyroMagDriver_HL()
    mpu-9250_acc_gyro_mag_driver_hl.o(.ARM.exidx) refers to mpu-9250_acc_gyro_mag_driver_hl.o(i.EXTI15_10_IRQHandler) for i.EXTI15_10_IRQHandler
    mpu-9250_acc_gyro_mag_driver_hl.o(.ARM.exidx) refers to mpu-9250_acc_gyro_mag_driver_hl.o(i._ZN8MPU_925020TAccGyroMagDriver_HLC1ERK7TI2C_HW) for i._ZN8MPU_925020TAccGyroMagDriver_HLC1ERK7TI2C_HW
    mpu-9250_acc_gyro_mag_driver_hl.o(.ARM.exidx) refers to mpu-9250_acc_gyro_mag_driver_hl.o(i._ZN8MPU_925020TAccGyroMagDriver_HLD1Ev) for i._ZN8MPU_925020TAccGyroMagDriver_HLD1Ev
    mpu-9250_acc_gyro_mag_driver_hl.o(.ARM.exidx) refers to mpu-9250_acc_gyro_mag_driver_hl.o(i._ZNK8MPU_925020TAccGyroMagDriver_HL12get_acc_dataEv) for i._ZNK8MPU_925020TAccGyroMagDriver_HL12get_acc_dataEv
    mpu-9250_acc_gyro_mag_driver_hl.o(.ARM.exidx) refers to mpu-9250_acc_gyro_mag_driver_hl.o(i._ZNK8MPU_925020TAccGyroMagDriver_HL13get_gyro_dataEv) for i._ZNK8MPU_925020TAccGyroMagDriver_HL13get_gyro_dataEv
    mpu-9250_acc_gyro_mag_driver_hl.o(.ARM.exidx) refers to mpu-9250_acc_gyro_mag_driver_hl.o(i._ZNK8MPU_925020TAccGyroMagDriver_HL16get_magneto_dataEv) for i._ZNK8MPU_925020TAccGyroMagDriver_HL16get_magneto_dataEv
    mpu-9250_acc_gyro_mag_driver_hl.o(.ARM.exidx) refers to mpu-9250_acc_gyro_mag_driver_hl.o(i._ZNK8MPU_925020TAccGyroMagDriver_HL15get_temperatureEv) for i._ZNK8MPU_925020TAccGyroMagDriver_HL15get_temperatureEv
    mpu-9250_acc_gyro_mag_driver_hl.o(.ARM.exidx) refers to mpu-9250_acc_gyro_mag_driver_hl.o(i._ZNK8MPU_925020TAccGyroMagDriver_HL20get_gyro_sample_rateEv) for i._ZNK8MPU_925020TAccGyroMagDriver_HL20get_gyro_sample_rateEv
    mpu-9250_acc_gyro_mag_driver_hl.o(.ARM.exidx) refers to mpu-9250_acc_gyro_mag_driver_hl.o(i._ZNK8MPU_925020TAccGyroMagDriver_HL21get_accel_sample_rateEv) for i._ZNK8MPU_925020TAccGyroMagDriver_HL21get_accel_sample_rateEv
    mpu-9250_acc_gyro_mag_driver_hl.o(.ARM.exidx) refers to mpu-9250_acc_gyro_mag_driver_hl.o(i._ZNK8MPU_925020TAccGyroMagDriver_HL19get_mag_sample_rateEv) for i._ZNK8MPU_925020TAccGyroMagDriver_HL19get_mag_sample_rateEv
    mpu-9250_acc_gyro_mag_driver_hl.o(.ARM.exidx) refers to mpu-9250_acc_gyro_mag_driver_hl.o(i._ZN8MPU_925020TAccGyroMagDriver_HL13get_mag_stateEv) for i._ZN8MPU_925020TAccGyroMagDriver_HL13get_mag_stateEv
    mpu-9250_acc_gyro_mag_driver_hl.o(.ARM.exidx) refers to mpu-9250_acc_gyro_mag_driver_hl.o(i._ZN8MPU_925020TAccGyroMagDriver_HL11init_driverEv) for i._ZN8MPU_925020TAccGyroMagDriver_HL11init_driverEv
    mpu-9250_acc_gyro_mag_driver_hl.o(.ARM.exidx) refers to mpu-9250_acc_gyro_mag_driver_hl.o(i._ZN8MPU_925020TAccGyroMagDriver_HL8init_auxEv) for i._ZN8MPU_925020TAccGyroMagDriver_HL8init_auxEv
    mpu-9250_acc_gyro_mag_driver_hl.o(.ARM.exidx) refers to mpu-9250_acc_gyro_mag_driver_hl.o(i._ZN8MPU_925020TAccGyroMagDriver_HL10config_accEv) for i._ZN8MPU_925020TAccGyroMagDriver_HL10config_accEv
    mpu-9250_acc_gyro_mag_driver_hl.o(.ARM.exidx) refers to mpu-9250_acc_gyro_mag_driver_hl.o(i._ZN8MPU_925020TAccGyroMagDriver_HL11config_gyroEv) for i._ZN8MPU_925020TAccGyroMagDriver_HL11config_gyroEv
    mpu-9250_acc_gyro_mag_driver_hl.o(.ARM.exidx) refers to mpu-9250_acc_gyro_mag_driver_hl.o(i._ZN8MPU_925020TAccGyroMagDriver_HL9init_chipEv) for i._ZN8MPU_925020TAccGyroMagDriver_HL9init_chipEv
    mpu-9250_acc_gyro_mag_driver_hl.o(.ARM.exidx) refers to mpu-9250_acc_gyro_mag_driver_hl.o(i._ZN8MPU_925020TAccGyroMagDriver_HL17check_id_acc_gyroEv) for i._ZN8MPU_925020TAccGyroMagDriver_HL17check_id_acc_gyroEv
    mpu-9250_acc_gyro_mag_driver_hl.o(.ARM.exidx) refers to mpu-9250_acc_gyro_mag_driver_hl.o(i._ZN8MPU_925020TAccGyroMagDriver_HL10count_gyroEPKNS_12TRawAxesDataE) for i._ZN8MPU_925020TAccGyroMagDriver_HL10count_gyroEPKNS_12TRawAxesDataE
    mpu-9250_acc_gyro_mag_driver_hl.o(.ARM.exidx) refers to mpu-9250_acc_gyro_mag_driver_hl.o(i._ZN8MPU_925020TAccGyroMagDriver_HL11count_accelEPKNS_12TRawAxesDataE) for i._ZN8MPU_925020TAccGyroMagDriver_HL11count_accelEPKNS_12TRawAxesDataE
    mpu-9250_acc_gyro_mag_driver_hl.o(.ARM.exidx) refers to mpu-9250_acc_gyro_mag_driver_hl.o(i._ZN8MPU_925020TAccGyroMagDriver_HL17count_temperatureEs) for i._ZN8MPU_925020TAccGyroMagDriver_HL17count_temperatureEs
    mpu-9250_acc_gyro_mag_driver_hl.o(.ARM.exidx) refers to mpu-9250_acc_gyro_mag_driver_hl.o(i._ZN8MPU_925020TAccGyroMagDriver_HL16convert_all_dataEPh) for i._ZN8MPU_925020TAccGyroMagDriver_HL16convert_all_dataEPh
    mpu-9250_acc_gyro_mag_driver_hl.o(.ARM.exidx) refers to mpu-9250_acc_gyro_mag_driver_hl.o(i._ZN8MPU_925020TAccGyroMagDriver_HL16collect_all_dataEv) for i._ZN8MPU_925020TAccGyroMagDriver_HL16collect_all_dataEv
    mpu-9250_acc_gyro_mag_driver_hl.o(.ARM.exidx) refers to mpu-9250_acc_gyro_mag_driver_hl.o(i._ZN8MPU_925020TAccGyroMagDriver_HL16convert_acc_dataEPh) for i._ZN8MPU_925020TAccGyroMagDriver_HL16convert_acc_dataEPh
    mpu-9250_acc_gyro_mag_driver_hl.o(.ARM.exidx) refers to mpu-9250_acc_gyro_mag_driver_hl.o(i._ZN8MPU_925020TAccGyroMagDriver_HL16collect_acc_dataEv) for i._ZN8MPU_925020TAccGyroMagDriver_HL16collect_acc_dataEv
    mpu-9250_acc_gyro_mag_driver_hl.o(.ARM.exidx) refers to mpu-9250_acc_gyro_mag_driver_hl.o(i._ZN8MPU_925020TAccGyroMagDriver_HL13count_magnetoEPKNS_12TRawAxesDataE) for i._ZN8MPU_925020TAccGyroMagDriver_HL13count_magnetoEPKNS_12TRawAxesDataE
    mpu-9250_acc_gyro_mag_driver_hl.o(.ARM.exidx) refers to mpu-9250_acc_gyro_mag_driver_hl.o(i._ZN8MPU_925020TAccGyroMagDriver_HL16convert_mag_dataEPh) for i._ZN8MPU_925020TAccGyroMagDriver_HL16convert_mag_dataEPh
    mpu-9250_acc_gyro_mag_driver_hl.o(.ARM.exidx) refers to mpu-9250_acc_gyro_mag_driver_hl.o(i._ZN8MPU_925020TAccGyroMagDriver_HL16collect_mag_dataEv) for i._ZN8MPU_925020TAccGyroMagDriver_HL16collect_mag_dataEv
    mpu-9250_acc_gyro_mag_driver_hl.o(.ARM.exidx) refers to mpu-9250_acc_gyro_mag_driver_hl.o(i._ZN8MPU_925020TAccGyroMagDriver_HL12check_id_magEv) for i._ZN8MPU_925020TAccGyroMagDriver_HL12check_id_magEv
    mpu-9250_acc_gyro_mag_driver_hl.o(.ARM.exidx) refers to mpu-9250_acc_gyro_mag_driver_hl.o(i._ZN8MPU_925020TAccGyroMagDriver_HL10config_magEv) for i._ZN8MPU_925020TAccGyroMagDriver_HL10config_magEv
    mpu-9250_acc_gyro_mag_driver_hl.o(.ARM.exidx) refers to mpu-9250_acc_gyro_mag_driver_hl.o(i._ZN8MPU_925020TAccGyroMagDriver_HL3powEhh) for i._ZN8MPU_925020TAccGyroMagDriver_HL3powEhh
    mpu-9250_acc_gyro_mag_driver_hl.o(.ARM.exidx) refers to mpu-9250_acc_gyro_mag_driver_hl.o(i.__sti___35_MPU_9250_acc_gyro_mag_driver_hl_cpp_f9f9292c) for i.__sti___35_MPU_9250_acc_gyro_mag_driver_hl_cpp_f9f9292c
    mpu-9250_acc_gyro_mag_driver_hl.o(.init_array) refers to mpu-9250_acc_gyro_mag_driver_hl.o(i.__sti___35_MPU_9250_acc_gyro_mag_driver_hl_cpp_f9f9292c) for __sti___35_MPU_9250_acc_gyro_mag_driver_hl_cpp_f9f9292c
    mpu-9250_acc_gyro_mag_driver_hl.o(.init_array) refers to cpp_init.o(.text) for __cpp_initialize__aeabi_
    mpu-9250_acc_gyro_mag_driver_ll.o(.ARM.exidx) refers to mpu-9250_acc_gyro_mag_driver_ll.o(i._ZN8MPU_925020TAccGyroMagDriver_LLC1Ev) for i._ZN8MPU_925020TAccGyroMagDriver_LLC1Ev
    mpu-9250_acc_gyro_mag_driver_ll.o(.ARM.exidx) refers to mpu-9250_acc_gyro_mag_driver_ll.o(i._ZN8MPU_925020TAccGyroMagDriver_LLD1Ev) for i._ZN8MPU_925020TAccGyroMagDriver_LLD1Ev
    mpu-9250_acc_gyro_mag_driver_ll.o(.ARM.exidx) refers to mpu-9250_acc_gyro_mag_driver_ll.o(i._ZNK8MPU_925020TAccGyroMagDriver_LL17get_acc_gyro_addrENS_14TLogicLevelAD0E) for i._ZNK8MPU_925020TAccGyroMagDriver_LL17get_acc_gyro_addrENS_14TLogicLevelAD0E
    mpu-9250_acc_gyro_mag_driver_ll.o(.ARM.exidx) refers to mpu-9250_acc_gyro_mag_driver_ll.o(i._ZNK8MPU_925020TAccGyroMagDriver_LL12get_mag_addrEv) for i._ZNK8MPU_925020TAccGyroMagDriver_LL12get_mag_addrEv
    mpu-9250_acc_gyro_mag_driver_ll.o(.ARM.exidx) refers to mpu-9250_acc_gyro_mag_driver_ll.o(i._ZN8MPU_925020TAccGyroMagDriver_LL16fifo_mode_configEPhNS_15VFifoModeConfigE) for i._ZN8MPU_925020TAccGyroMagDriver_LL16fifo_mode_configEPhNS_15VFifoModeConfigE
    mpu-9250_acc_gyro_mag_driver_ll.o(.ARM.exidx) refers to mpu-9250_acc_gyro_mag_driver_ll.o(i._ZN8MPU_925020TAccGyroMagDriver_LL16fsync_pin_configEPhNS_15VFsyncPinConfigE) for i._ZN8MPU_925020TAccGyroMagDriver_LL16fsync_pin_configEPhNS_15VFsyncPinConfigE
    mpu-9250_acc_gyro_mag_driver_ll.o(.ARM.exidx) refers to mpu-9250_acc_gyro_mag_driver_ll.o(i._ZN8MPU_925020TAccGyroMagDriver_LL23filter_gyro_temp_configEPhNS_21VFilterGyroTempConfigE) for i._ZN8MPU_925020TAccGyroMagDriver_LL23filter_gyro_temp_configEPhNS_21VFilterGyroTempConfigE
    mpu-9250_acc_gyro_mag_driver_ll.o(.ARM.exidx) refers to mpu-9250_acc_gyro_mag_driver_ll.o(i._ZN8MPU_925020TAccGyroMagDriver_LL21filter_gyro_temp_readEhPNS_21VFilterGyroTempConfigE) for i._ZN8MPU_925020TAccGyroMagDriver_LL21filter_gyro_temp_readEhPNS_21VFilterGyroTempConfigE
    mpu-9250_acc_gyro_mag_driver_ll.o(.ARM.exidx) refers to mpu-9250_acc_gyro_mag_driver_ll.o(i._ZN8MPU_925020TAccGyroMagDriver_LL23enable_x_gyro_self_testEPhNS_6VEnDisE) for i._ZN8MPU_925020TAccGyroMagDriver_LL23enable_x_gyro_self_testEPhNS_6VEnDisE
    mpu-9250_acc_gyro_mag_driver_ll.o(.ARM.exidx) refers to mpu-9250_acc_gyro_mag_driver_ll.o(i._ZN8MPU_925020TAccGyroMagDriver_LL23enable_y_gyro_self_testEPhNS_6VEnDisE) for i._ZN8MPU_925020TAccGyroMagDriver_LL23enable_y_gyro_self_testEPhNS_6VEnDisE
    mpu-9250_acc_gyro_mag_driver_ll.o(.ARM.exidx) refers to mpu-9250_acc_gyro_mag_driver_ll.o(i._ZN8MPU_925020TAccGyroMagDriver_LL23enable_z_gyro_self_testEPhNS_6VEnDisE) for i._ZN8MPU_925020TAccGyroMagDriver_LL23enable_z_gyro_self_testEPhNS_6VEnDisE
    mpu-9250_acc_gyro_mag_driver_ll.o(.ARM.exidx) refers to mpu-9250_acc_gyro_mag_driver_ll.o(i._ZN8MPU_925020TAccGyroMagDriver_LL22gyro_full_scale_selectEPhNS_20VGyroFullScaleSelectE) for i._ZN8MPU_925020TAccGyroMagDriver_LL22gyro_full_scale_selectEPhNS_20VGyroFullScaleSelectE
    mpu-9250_acc_gyro_mag_driver_ll.o(.ARM.exidx) refers to mpu-9250_acc_gyro_mag_driver_ll.o(i._ZN8MPU_925020TAccGyroMagDriver_LL20gyro_full_scale_readEhPNS_20VGyroFullScaleSelectE) for i._ZN8MPU_925020TAccGyroMagDriver_LL20gyro_full_scale_readEhPNS_20VGyroFullScaleSelectE
    mpu-9250_acc_gyro_mag_driver_ll.o(.ARM.exidx) refers to mpu-9250_acc_gyro_mag_driver_ll.o(i._ZN8MPU_925020TAccGyroMagDriver_LL18gyro_filter_choiseEPhNS_17VGyroFilterChoiseE) for i._ZN8MPU_925020TAccGyroMagDriver_LL18gyro_filter_choiseEPhNS_17VGyroFilterChoiseE
    mpu-9250_acc_gyro_mag_driver_ll.o(.ARM.exidx) refers to mpu-9250_acc_gyro_mag_driver_ll.o(i._ZN8MPU_925020TAccGyroMagDriver_LL24enable_x_accel_self_testEPhNS_6VEnDisE) for i._ZN8MPU_925020TAccGyroMagDriver_LL24enable_x_accel_self_testEPhNS_6VEnDisE
    mpu-9250_acc_gyro_mag_driver_ll.o(.ARM.exidx) refers to mpu-9250_acc_gyro_mag_driver_ll.o(i._ZN8MPU_925020TAccGyroMagDriver_LL24enable_y_accel_self_testEPhNS_6VEnDisE) for i._ZN8MPU_925020TAccGyroMagDriver_LL24enable_y_accel_self_testEPhNS_6VEnDisE
    mpu-9250_acc_gyro_mag_driver_ll.o(.ARM.exidx) refers to mpu-9250_acc_gyro_mag_driver_ll.o(i._ZN8MPU_925020TAccGyroMagDriver_LL24enable_z_accel_self_testEPhNS_6VEnDisE) for i._ZN8MPU_925020TAccGyroMagDriver_LL24enable_z_accel_self_testEPhNS_6VEnDisE
    mpu-9250_acc_gyro_mag_driver_ll.o(.ARM.exidx) refers to mpu-9250_acc_gyro_mag_driver_ll.o(i._ZN8MPU_925020TAccGyroMagDriver_LL23accel_full_scale_selectEPhNS_21VAccelFullScaleSelectE) for i._ZN8MPU_925020TAccGyroMagDriver_LL23accel_full_scale_selectEPhNS_21VAccelFullScaleSelectE
    mpu-9250_acc_gyro_mag_driver_ll.o(.ARM.exidx) refers to mpu-9250_acc_gyro_mag_driver_ll.o(i._ZN8MPU_925020TAccGyroMagDriver_LL19accel_filter_choiseEPhNS_18VAccelFilterChoiseE) for i._ZN8MPU_925020TAccGyroMagDriver_LL19accel_filter_choiseEPhNS_18VAccelFilterChoiseE
    mpu-9250_acc_gyro_mag_driver_ll.o(.ARM.exidx) refers to mpu-9250_acc_gyro_mag_driver_ll.o(i._ZN8MPU_925020TAccGyroMagDriver_LL17accel_filter_readEhPNS_15VSetAccelFilterE) for i._ZN8MPU_925020TAccGyroMagDriver_LL17accel_filter_readEhPNS_15VSetAccelFilterE
    mpu-9250_acc_gyro_mag_driver_ll.o(.ARM.exidx) refers to mpu-9250_acc_gyro_mag_driver_ll.o(i._ZN8MPU_925020TAccGyroMagDriver_LL16set_accel_filterEPhNS_15VSetAccelFilterE) for i._ZN8MPU_925020TAccGyroMagDriver_LL16set_accel_filterEPhNS_15VSetAccelFilterE
    mpu-9250_acc_gyro_mag_driver_ll.o(.ARM.exidx) refers to mpu-9250_acc_gyro_mag_driver_ll.o(i._ZN8MPU_925020TAccGyroMagDriver_LL21set_accel_wakeup_freqEPhNS_19VSetAccelWakeupFreqE) for i._ZN8MPU_925020TAccGyroMagDriver_LL21set_accel_wakeup_freqEPhNS_19VSetAccelWakeupFreqE
    mpu-9250_acc_gyro_mag_driver_ll.o(.ARM.exidx) refers to mpu-9250_acc_gyro_mag_driver_ll.o(i._ZN8MPU_925020TAccGyroMagDriver_LL18write_temp_to_fifoEPhNS_6VEnDisE) for i._ZN8MPU_925020TAccGyroMagDriver_LL18write_temp_to_fifoEPhNS_6VEnDisE
    mpu-9250_acc_gyro_mag_driver_ll.o(.ARM.exidx) refers to mpu-9250_acc_gyro_mag_driver_ll.o(i._ZN8MPU_925020TAccGyroMagDriver_LL20write_gyro_x_to_fifoEPhNS_6VEnDisE) for i._ZN8MPU_925020TAccGyroMagDriver_LL20write_gyro_x_to_fifoEPhNS_6VEnDisE
    mpu-9250_acc_gyro_mag_driver_ll.o(.ARM.exidx) refers to mpu-9250_acc_gyro_mag_driver_ll.o(i._ZN8MPU_925020TAccGyroMagDriver_LL20write_gyro_y_to_fifoEPhNS_6VEnDisE) for i._ZN8MPU_925020TAccGyroMagDriver_LL20write_gyro_y_to_fifoEPhNS_6VEnDisE
    mpu-9250_acc_gyro_mag_driver_ll.o(.ARM.exidx) refers to mpu-9250_acc_gyro_mag_driver_ll.o(i._ZN8MPU_925020TAccGyroMagDriver_LL20write_gyro_z_to_fifoEPhNS_6VEnDisE) for i._ZN8MPU_925020TAccGyroMagDriver_LL20write_gyro_z_to_fifoEPhNS_6VEnDisE
    mpu-9250_acc_gyro_mag_driver_ll.o(.ARM.exidx) refers to mpu-9250_acc_gyro_mag_driver_ll.o(i._ZN8MPU_925020TAccGyroMagDriver_LL19write_accel_to_fifoEPhNS_6VEnDisE) for i._ZN8MPU_925020TAccGyroMagDriver_LL19write_accel_to_fifoEPhNS_6VEnDisE
    mpu-9250_acc_gyro_mag_driver_ll.o(.ARM.exidx) refers to mpu-9250_acc_gyro_mag_driver_ll.o(i._ZN8MPU_925020TAccGyroMagDriver_LL20write_slave2_to_fifoEPhNS_6VEnDisE) for i._ZN8MPU_925020TAccGyroMagDriver_LL20write_slave2_to_fifoEPhNS_6VEnDisE
    mpu-9250_acc_gyro_mag_driver_ll.o(.ARM.exidx) refers to mpu-9250_acc_gyro_mag_driver_ll.o(i._ZN8MPU_925020TAccGyroMagDriver_LL20write_slave1_to_fifoEPhNS_6VEnDisE) for i._ZN8MPU_925020TAccGyroMagDriver_LL20write_slave1_to_fifoEPhNS_6VEnDisE
    mpu-9250_acc_gyro_mag_driver_ll.o(.ARM.exidx) refers to mpu-9250_acc_gyro_mag_driver_ll.o(i._ZN8MPU_925020TAccGyroMagDriver_LL20write_slave0_to_fifoEPhNS_6VEnDisE) for i._ZN8MPU_925020TAccGyroMagDriver_LL20write_slave0_to_fifoEPhNS_6VEnDisE
    mpu-9250_acc_gyro_mag_driver_ll.o(.ARM.exidx) refers to mpu-9250_acc_gyro_mag_driver_ll.o(i._ZN8MPU_925020TAccGyroMagDriver_LL19multi_master_enableEPhNS_6VEnDisE) for i._ZN8MPU_925020TAccGyroMagDriver_LL19multi_master_enableEPhNS_6VEnDisE
    mpu-9250_acc_gyro_mag_driver_ll.o(.ARM.exidx) refers to mpu-9250_acc_gyro_mag_driver_ll.o(i._ZN8MPU_925020TAccGyroMagDriver_LL20delay_data_ready_intEPhNS_6VEnDisE) for i._ZN8MPU_925020TAccGyroMagDriver_LL20delay_data_ready_intEPhNS_6VEnDisE
    mpu-9250_acc_gyro_mag_driver_ll.o(.ARM.exidx) refers to mpu-9250_acc_gyro_mag_driver_ll.o(i._ZN8MPU_925020TAccGyroMagDriver_LL23write_data_slv3_to_fifoEPhNS_6VEnDisE) for i._ZN8MPU_925020TAccGyroMagDriver_LL23write_data_slv3_to_fifoEPhNS_6VEnDisE
    mpu-9250_acc_gyro_mag_driver_ll.o(.ARM.exidx) refers to mpu-9250_acc_gyro_mag_driver_ll.o(i._ZN8MPU_925020TAccGyroMagDriver_LL26ctrl_slave_read_transitionEPhNS_6VEnDisE) for i._ZN8MPU_925020TAccGyroMagDriver_LL26ctrl_slave_read_transitionEPhNS_6VEnDisE
    mpu-9250_acc_gyro_mag_driver_ll.o(.ARM.exidx) refers to mpu-9250_acc_gyro_mag_driver_ll.o(i._ZN8MPU_925020TAccGyroMagDriver_LL19config_internal_clkEPhNS_18VConfigInternalClkE) for i._ZN8MPU_925020TAccGyroMagDriver_LL19config_internal_clkEPhNS_18VConfigInternalClkE
    mpu-9250_acc_gyro_mag_driver_ll.o(.ARM.exidx) refers to mpu-9250_acc_gyro_mag_driver_ll.o(i._ZN8MPU_925020TAccGyroMagDriver_LL20slv0_direct_transferEPhNS_16VI2CTransferTypeE) for i._ZN8MPU_925020TAccGyroMagDriver_LL20slv0_direct_transferEPhNS_16VI2CTransferTypeE
    mpu-9250_acc_gyro_mag_driver_ll.o(.ARM.exidx) refers to mpu-9250_acc_gyro_mag_driver_ll.o(i._ZN8MPU_925020TAccGyroMagDriver_LL16slv0_phy_addressEPhh) for i._ZN8MPU_925020TAccGyroMagDriver_LL16slv0_phy_addressEPhh
    mpu-9250_acc_gyro_mag_driver_ll.o(.ARM.exidx) refers to mpu-9250_acc_gyro_mag_driver_ll.o(i._ZN8MPU_925020TAccGyroMagDriver_LL11slv0_enableEPhNS_6VEnDisE) for i._ZN8MPU_925020TAccGyroMagDriver_LL11slv0_enableEPhNS_6VEnDisE
    mpu-9250_acc_gyro_mag_driver_ll.o(.ARM.exidx) refers to mpu-9250_acc_gyro_mag_driver_ll.o(i._ZN8MPU_925020TAccGyroMagDriver_LL15slv0_swap_bytesEPhNS_6VEnDisE) for i._ZN8MPU_925020TAccGyroMagDriver_LL15slv0_swap_bytesEPhNS_6VEnDisE
    mpu-9250_acc_gyro_mag_driver_ll.o(.ARM.exidx) refers to mpu-9250_acc_gyro_mag_driver_ll.o(i._ZN8MPU_925020TAccGyroMagDriver_LL21slv0_write_reg_enableEPhNS_6VEnDisE) for i._ZN8MPU_925020TAccGyroMagDriver_LL21slv0_write_reg_enableEPhNS_6VEnDisE
    mpu-9250_acc_gyro_mag_driver_ll.o(.ARM.exidx) refers to mpu-9250_acc_gyro_mag_driver_ll.o(i._ZN8MPU_925020TAccGyroMagDriver_LL15slv0_group_dataEPhNS_6VEnDisE) for i._ZN8MPU_925020TAccGyroMagDriver_LL15slv0_group_dataEPhNS_6VEnDisE
    mpu-9250_acc_gyro_mag_driver_ll.o(.ARM.exidx) refers to mpu-9250_acc_gyro_mag_driver_ll.o(i._ZN8MPU_925020TAccGyroMagDriver_LL19slv0_num_bytes_readEPhNS_16VSlvNumBytesReadE) for i._ZN8MPU_925020TAccGyroMagDriver_LL19slv0_num_bytes_readEPhNS_16VSlvNumBytesReadE
    mpu-9250_acc_gyro_mag_driver_ll.o(.ARM.exidx) refers to mpu-9250_acc_gyro_mag_driver_ll.o(i._ZN8MPU_925020TAccGyroMagDriver_LL22status_fsync_interruptEhPNS_11VStatusFlagE) for i._ZN8MPU_925020TAccGyroMagDriver_LL22status_fsync_interruptEhPNS_11VStatusFlagE
    mpu-9250_acc_gyro_mag_driver_ll.o(.ARM.exidx) refers to mpu-9250_acc_gyro_mag_driver_ll.o(i._ZN8MPU_925020TAccGyroMagDriver_LL22slv4_transfer_completeEhPNS_11VStatusFlagE) for i._ZN8MPU_925020TAccGyroMagDriver_LL22slv4_transfer_completeEhPNS_11VStatusFlagE
    mpu-9250_acc_gyro_mag_driver_ll.o(.ARM.exidx) refers to mpu-9250_acc_gyro_mag_driver_ll.o(i._ZN8MPU_925020TAccGyroMagDriver_LL20slv_lost_arbitrationEhPNS_11VStatusFlagE) for i._ZN8MPU_925020TAccGyroMagDriver_LL20slv_lost_arbitrationEhPNS_11VStatusFlagE
    mpu-9250_acc_gyro_mag_driver_ll.o(.ARM.exidx) refers to mpu-9250_acc_gyro_mag_driver_ll.o(i._ZN8MPU_925020TAccGyroMagDriver_LL12slv4_rx_nackEhPNS_11VStatusFlagE) for i._ZN8MPU_925020TAccGyroMagDriver_LL12slv4_rx_nackEhPNS_11VStatusFlagE
    mpu-9250_acc_gyro_mag_driver_ll.o(.ARM.exidx) refers to mpu-9250_acc_gyro_mag_driver_ll.o(i._ZN8MPU_925020TAccGyroMagDriver_LL12slv3_rx_nackEhPNS_11VStatusFlagE) for i._ZN8MPU_925020TAccGyroMagDriver_LL12slv3_rx_nackEhPNS_11VStatusFlagE
    mpu-9250_acc_gyro_mag_driver_ll.o(.ARM.exidx) refers to mpu-9250_acc_gyro_mag_driver_ll.o(i._ZN8MPU_925020TAccGyroMagDriver_LL12slv2_rx_nackEhPNS_11VStatusFlagE) for i._ZN8MPU_925020TAccGyroMagDriver_LL12slv2_rx_nackEhPNS_11VStatusFlagE
    mpu-9250_acc_gyro_mag_driver_ll.o(.ARM.exidx) refers to mpu-9250_acc_gyro_mag_driver_ll.o(i._ZN8MPU_925020TAccGyroMagDriver_LL12slv1_rx_nackEhPNS_11VStatusFlagE) for i._ZN8MPU_925020TAccGyroMagDriver_LL12slv1_rx_nackEhPNS_11VStatusFlagE
    mpu-9250_acc_gyro_mag_driver_ll.o(.ARM.exidx) refers to mpu-9250_acc_gyro_mag_driver_ll.o(i._ZN8MPU_925020TAccGyroMagDriver_LL12slv0_rx_nackEhPNS_11VStatusFlagE) for i._ZN8MPU_925020TAccGyroMagDriver_LL12slv0_rx_nackEhPNS_11VStatusFlagE
    mpu-9250_acc_gyro_mag_driver_ll.o(.ARM.exidx) refers to mpu-9250_acc_gyro_mag_driver_ll.o(i._ZN8MPU_925020TAccGyroMagDriver_LL15int_logic_levelEPhNS_14VLogicLevelINTE) for i._ZN8MPU_925020TAccGyroMagDriver_LL15int_logic_levelEPhNS_14VLogicLevelINTE
    mpu-9250_acc_gyro_mag_driver_ll.o(.ARM.exidx) refers to mpu-9250_acc_gyro_mag_driver_ll.o(i._ZN8MPU_925020TAccGyroMagDriver_LL14int_pin_configEPhNS_13VPinConfigINTE) for i._ZN8MPU_925020TAccGyroMagDriver_LL14int_pin_configEPhNS_13VPinConfigINTE
    mpu-9250_acc_gyro_mag_driver_ll.o(.ARM.exidx) refers to mpu-9250_acc_gyro_mag_driver_ll.o(i._ZN8MPU_925020TAccGyroMagDriver_LL14int_latch_ctrlEPhNS_9VLatchINTE) for i._ZN8MPU_925020TAccGyroMagDriver_LL14int_latch_ctrlEPhNS_9VLatchINTE
    mpu-9250_acc_gyro_mag_driver_ll.o(.ARM.exidx) refers to mpu-9250_acc_gyro_mag_driver_ll.o(i._ZN8MPU_925020TAccGyroMagDriver_LL15int_status_ctrlEPhNS_6VEnDisE) for i._ZN8MPU_925020TAccGyroMagDriver_LL15int_status_ctrlEPhNS_6VEnDisE
    mpu-9250_acc_gyro_mag_driver_ll.o(.ARM.exidx) refers to mpu-9250_acc_gyro_mag_driver_ll.o(i._ZN8MPU_925020TAccGyroMagDriver_LL16fsync_level_ctrlEPhNS_6VEnDisE) for i._ZN8MPU_925020TAccGyroMagDriver_LL16fsync_level_ctrlEPhNS_6VEnDisE
    mpu-9250_acc_gyro_mag_driver_ll.o(.ARM.exidx) refers to mpu-9250_acc_gyro_mag_driver_ll.o(i._ZN8MPU_925020TAccGyroMagDriver_LL12fsync_enableEPhNS_6VEnDisE) for i._ZN8MPU_925020TAccGyroMagDriver_LL12fsync_enableEPhNS_6VEnDisE
    mpu-9250_acc_gyro_mag_driver_ll.o(.ARM.exidx) refers to mpu-9250_acc_gyro_mag_driver_ll.o(i._ZN8MPU_925020TAccGyroMagDriver_LL20i2c_master_pins_ctrlEPhNS_6VEnDisE) for i._ZN8MPU_925020TAccGyroMagDriver_LL20i2c_master_pins_ctrlEPhNS_6VEnDisE
    mpu-9250_acc_gyro_mag_driver_ll.o(.ARM.exidx) refers to mpu-9250_acc_gyro_mag_driver_ll.o(i._ZN8MPU_925020TAccGyroMagDriver_LL20i2c_master_pins_readEhPNS_6VEnDisE) for i._ZN8MPU_925020TAccGyroMagDriver_LL20i2c_master_pins_readEhPNS_6VEnDisE
    mpu-9250_acc_gyro_mag_driver_ll.o(.ARM.exidx) refers to mpu-9250_acc_gyro_mag_driver_ll.o(i._ZN8MPU_925020TAccGyroMagDriver_LL23wake_on_motion_int_ctrlEPhNS_6VEnDisE) for i._ZN8MPU_925020TAccGyroMagDriver_LL23wake_on_motion_int_ctrlEPhNS_6VEnDisE
    mpu-9250_acc_gyro_mag_driver_ll.o(.ARM.exidx) refers to mpu-9250_acc_gyro_mag_driver_ll.o(i._ZN8MPU_925020TAccGyroMagDriver_LL18fifo_ovrf_int_ctrlEPhNS_6VEnDisE) for i._ZN8MPU_925020TAccGyroMagDriver_LL18fifo_ovrf_int_ctrlEPhNS_6VEnDisE
    mpu-9250_acc_gyro_mag_driver_ll.o(.ARM.exidx) refers to mpu-9250_acc_gyro_mag_driver_ll.o(i._ZN8MPU_925020TAccGyroMagDriver_LL14fsync_int_ctrlEPhNS_6VEnDisE) for i._ZN8MPU_925020TAccGyroMagDriver_LL14fsync_int_ctrlEPhNS_6VEnDisE
    mpu-9250_acc_gyro_mag_driver_ll.o(.ARM.exidx) refers to mpu-9250_acc_gyro_mag_driver_ll.o(i._ZN8MPU_925020TAccGyroMagDriver_LL23raw_data_ready_int_ctrlEPhNS_6VEnDisE) for i._ZN8MPU_925020TAccGyroMagDriver_LL23raw_data_ready_int_ctrlEPhNS_6VEnDisE
    mpu-9250_acc_gyro_mag_driver_ll.o(.ARM.exidx) refers to mpu-9250_acc_gyro_mag_driver_ll.o(i._ZN8MPU_925020TAccGyroMagDriver_LL25wake_on_motion_int_statusEhPNS_11VStatusFlagE) for i._ZN8MPU_925020TAccGyroMagDriver_LL25wake_on_motion_int_statusEhPNS_11VStatusFlagE
    mpu-9250_acc_gyro_mag_driver_ll.o(.ARM.exidx) refers to mpu-9250_acc_gyro_mag_driver_ll.o(i._ZN8MPU_925020TAccGyroMagDriver_LL20fifo_ovrf_int_statusEhPNS_11VStatusFlagE) for i._ZN8MPU_925020TAccGyroMagDriver_LL20fifo_ovrf_int_statusEhPNS_11VStatusFlagE
    mpu-9250_acc_gyro_mag_driver_ll.o(.ARM.exidx) refers to mpu-9250_acc_gyro_mag_driver_ll.o(i._ZN8MPU_925020TAccGyroMagDriver_LL16fsync_int_statusEhPNS_11VStatusFlagE) for i._ZN8MPU_925020TAccGyroMagDriver_LL16fsync_int_statusEhPNS_11VStatusFlagE
    mpu-9250_acc_gyro_mag_driver_ll.o(.ARM.exidx) refers to mpu-9250_acc_gyro_mag_driver_ll.o(i._ZN8MPU_925020TAccGyroMagDriver_LL25raw_data_ready_int_statusEhPNS_11VStatusFlagE) for i._ZN8MPU_925020TAccGyroMagDriver_LL25raw_data_ready_int_statusEhPNS_11VStatusFlagE
    mpu-9250_acc_gyro_mag_driver_ll.o(.ARM.exidx) refers to mpu-9250_acc_gyro_mag_driver_ll.o(i._ZN8MPU_925020TAccGyroMagDriver_LL26delay_shadow_ext_sens_ctrlEPhNS_6VEnDisE) for i._ZN8MPU_925020TAccGyroMagDriver_LL26delay_shadow_ext_sens_ctrlEPhNS_6VEnDisE
    mpu-9250_acc_gyro_mag_driver_ll.o(.ARM.exidx) refers to mpu-9250_acc_gyro_mag_driver_ll.o(i._ZN8MPU_925020TAccGyroMagDriver_LL20slv4_dly_access_ctrlEPhNS_6VEnDisE) for i._ZN8MPU_925020TAccGyroMagDriver_LL20slv4_dly_access_ctrlEPhNS_6VEnDisE
    mpu-9250_acc_gyro_mag_driver_ll.o(.ARM.exidx) refers to mpu-9250_acc_gyro_mag_driver_ll.o(i._ZN8MPU_925020TAccGyroMagDriver_LL20slv3_dly_access_ctrlEPhNS_6VEnDisE) for i._ZN8MPU_925020TAccGyroMagDriver_LL20slv3_dly_access_ctrlEPhNS_6VEnDisE
    mpu-9250_acc_gyro_mag_driver_ll.o(.ARM.exidx) refers to mpu-9250_acc_gyro_mag_driver_ll.o(i._ZN8MPU_925020TAccGyroMagDriver_LL20slv2_dly_access_ctrlEPhNS_6VEnDisE) for i._ZN8MPU_925020TAccGyroMagDriver_LL20slv2_dly_access_ctrlEPhNS_6VEnDisE
    mpu-9250_acc_gyro_mag_driver_ll.o(.ARM.exidx) refers to mpu-9250_acc_gyro_mag_driver_ll.o(i._ZN8MPU_925020TAccGyroMagDriver_LL20slv1_dly_access_ctrlEPhNS_6VEnDisE) for i._ZN8MPU_925020TAccGyroMagDriver_LL20slv1_dly_access_ctrlEPhNS_6VEnDisE
    mpu-9250_acc_gyro_mag_driver_ll.o(.ARM.exidx) refers to mpu-9250_acc_gyro_mag_driver_ll.o(i._ZN8MPU_925020TAccGyroMagDriver_LL20slv0_dly_access_ctrlEPhNS_6VEnDisE) for i._ZN8MPU_925020TAccGyroMagDriver_LL20slv0_dly_access_ctrlEPhNS_6VEnDisE
    mpu-9250_acc_gyro_mag_driver_ll.o(.ARM.exidx) refers to mpu-9250_acc_gyro_mag_driver_ll.o(i._ZN8MPU_925020TAccGyroMagDriver_LL22reset_gyro_signal_pathEPhNS_6VEnDisE) for i._ZN8MPU_925020TAccGyroMagDriver_LL22reset_gyro_signal_pathEPhNS_6VEnDisE
    mpu-9250_acc_gyro_mag_driver_ll.o(.ARM.exidx) refers to mpu-9250_acc_gyro_mag_driver_ll.o(i._ZN8MPU_925020TAccGyroMagDriver_LL23reset_accel_signal_pathEPhNS_6VEnDisE) for i._ZN8MPU_925020TAccGyroMagDriver_LL23reset_accel_signal_pathEPhNS_6VEnDisE
    mpu-9250_acc_gyro_mag_driver_ll.o(.ARM.exidx) refers to mpu-9250_acc_gyro_mag_driver_ll.o(i._ZN8MPU_925020TAccGyroMagDriver_LL22reset_temp_signal_pathEPhNS_6VEnDisE) for i._ZN8MPU_925020TAccGyroMagDriver_LL22reset_temp_signal_pathEPhNS_6VEnDisE
    mpu-9250_acc_gyro_mag_driver_ll.o(.ARM.exidx) refers to mpu-9250_acc_gyro_mag_driver_ll.o(i._ZN8MPU_925020TAccGyroMagDriver_LL25accel_wake_on_motion_ctrlEPhNS_6VEnDisE) for i._ZN8MPU_925020TAccGyroMagDriver_LL25accel_wake_on_motion_ctrlEPhNS_6VEnDisE
    mpu-9250_acc_gyro_mag_driver_ll.o(.ARM.exidx) refers to mpu-9250_acc_gyro_mag_driver_ll.o(i._ZN8MPU_925020TAccGyroMagDriver_LL26accel_compare_samples_ctrlEPhNS_6VEnDisE) for i._ZN8MPU_925020TAccGyroMagDriver_LL26accel_compare_samples_ctrlEPhNS_6VEnDisE
    mpu-9250_acc_gyro_mag_driver_ll.o(.ARM.exidx) refers to mpu-9250_acc_gyro_mag_driver_ll.o(i._ZN8MPU_925020TAccGyroMagDriver_LL14fifo_mode_ctrlEPhNS_6VEnDisE) for i._ZN8MPU_925020TAccGyroMagDriver_LL14fifo_mode_ctrlEPhNS_6VEnDisE
    mpu-9250_acc_gyro_mag_driver_ll.o(.ARM.exidx) refers to mpu-9250_acc_gyro_mag_driver_ll.o(i._ZN8MPU_925020TAccGyroMagDriver_LL25i2c_master_if_module_ctrlEPhNS_14VI2CMasterCtrlE) for i._ZN8MPU_925020TAccGyroMagDriver_LL25i2c_master_if_module_ctrlEPhNS_14VI2CMasterCtrlE
    mpu-9250_acc_gyro_mag_driver_ll.o(.ARM.exidx) refers to mpu-9250_acc_gyro_mag_driver_ll.o(i._ZN8MPU_925020TAccGyroMagDriver_LL19interface_mode_ctrlEPhNS_6VEnDisE) for i._ZN8MPU_925020TAccGyroMagDriver_LL19interface_mode_ctrlEPhNS_6VEnDisE
    mpu-9250_acc_gyro_mag_driver_ll.o(.ARM.exidx) refers to mpu-9250_acc_gyro_mag_driver_ll.o(i._ZN8MPU_925020TAccGyroMagDriver_LL17reset_fifo_moduleEPhNS_6VEnDisE) for i._ZN8MPU_925020TAccGyroMagDriver_LL17reset_fifo_moduleEPhNS_6VEnDisE
    mpu-9250_acc_gyro_mag_driver_ll.o(.ARM.exidx) refers to mpu-9250_acc_gyro_mag_driver_ll.o(i._ZN8MPU_925020TAccGyroMagDriver_LL23reset_i2c_master_moduleEPhNS_6VEnDisE) for i._ZN8MPU_925020TAccGyroMagDriver_LL23reset_i2c_master_moduleEPhNS_6VEnDisE
    mpu-9250_acc_gyro_mag_driver_ll.o(.ARM.exidx) refers to mpu-9250_acc_gyro_mag_driver_ll.o(i._ZN8MPU_925020TAccGyroMagDriver_LL21reset_all_signal_pathEPhNS_6VEnDisE) for i._ZN8MPU_925020TAccGyroMagDriver_LL21reset_all_signal_pathEPhNS_6VEnDisE
    mpu-9250_acc_gyro_mag_driver_ll.o(.ARM.exidx) refers to mpu-9250_acc_gyro_mag_driver_ll.o(i._ZN8MPU_925020TAccGyroMagDriver_LL31reset_and_restore_internal_regsEPhNS_9VSetResetE) for i._ZN8MPU_925020TAccGyroMagDriver_LL31reset_and_restore_internal_regsEPhNS_9VSetResetE
    mpu-9250_acc_gyro_mag_driver_ll.o(.ARM.exidx) refers to mpu-9250_acc_gyro_mag_driver_ll.o(i._ZN8MPU_925020TAccGyroMagDriver_LL10sleep_ctrlEPhNS_9VSetResetE) for i._ZN8MPU_925020TAccGyroMagDriver_LL10sleep_ctrlEPhNS_9VSetResetE
    mpu-9250_acc_gyro_mag_driver_ll.o(.ARM.exidx) refers to mpu-9250_acc_gyro_mag_driver_ll.o(i._ZN8MPU_925020TAccGyroMagDriver_LL10cycle_ctrlEPhNS_9VSetResetE) for i._ZN8MPU_925020TAccGyroMagDriver_LL10cycle_ctrlEPhNS_9VSetResetE
    mpu-9250_acc_gyro_mag_driver_ll.o(.ARM.exidx) refers to mpu-9250_acc_gyro_mag_driver_ll.o(i._ZN8MPU_925020TAccGyroMagDriver_LL17gyro_standby_ctrlEPhNS_9VSetResetE) for i._ZN8MPU_925020TAccGyroMagDriver_LL17gyro_standby_ctrlEPhNS_9VSetResetE
    mpu-9250_acc_gyro_mag_driver_ll.o(.ARM.exidx) refers to mpu-9250_acc_gyro_mag_driver_ll.o(i._ZN8MPU_925020TAccGyroMagDriver_LL22voltage_generator_ctrlEPhNS_9VSetResetE) for i._ZN8MPU_925020TAccGyroMagDriver_LL22voltage_generator_ctrlEPhNS_9VSetResetE
    mpu-9250_acc_gyro_mag_driver_ll.o(.ARM.exidx) refers to mpu-9250_acc_gyro_mag_driver_ll.o(i._ZN8MPU_925020TAccGyroMagDriver_LL16clock_src_choiseEPhNS_15VClockSrcChoiseE) for i._ZN8MPU_925020TAccGyroMagDriver_LL16clock_src_choiseEPhNS_15VClockSrcChoiseE
    mpu-9250_acc_gyro_mag_driver_ll.o(.ARM.exidx) refers to mpu-9250_acc_gyro_mag_driver_ll.o(i._ZN8MPU_925020TAccGyroMagDriver_LL12accel_x_ctrlEPhNS_6VEnDisE) for i._ZN8MPU_925020TAccGyroMagDriver_LL12accel_x_ctrlEPhNS_6VEnDisE
    mpu-9250_acc_gyro_mag_driver_ll.o(.ARM.exidx) refers to mpu-9250_acc_gyro_mag_driver_ll.o(i._ZN8MPU_925020TAccGyroMagDriver_LL12accel_y_ctrlEPhNS_6VEnDisE) for i._ZN8MPU_925020TAccGyroMagDriver_LL12accel_y_ctrlEPhNS_6VEnDisE
    mpu-9250_acc_gyro_mag_driver_ll.o(.ARM.exidx) refers to mpu-9250_acc_gyro_mag_driver_ll.o(i._ZN8MPU_925020TAccGyroMagDriver_LL12accel_z_ctrlEPhNS_6VEnDisE) for i._ZN8MPU_925020TAccGyroMagDriver_LL12accel_z_ctrlEPhNS_6VEnDisE
    mpu-9250_acc_gyro_mag_driver_ll.o(.ARM.exidx) refers to mpu-9250_acc_gyro_mag_driver_ll.o(i._ZN8MPU_925020TAccGyroMagDriver_LL11gyro_x_ctrlEPhNS_6VEnDisE) for i._ZN8MPU_925020TAccGyroMagDriver_LL11gyro_x_ctrlEPhNS_6VEnDisE
    mpu-9250_acc_gyro_mag_driver_ll.o(.ARM.exidx) refers to mpu-9250_acc_gyro_mag_driver_ll.o(i._ZN8MPU_925020TAccGyroMagDriver_LL11gyro_y_ctrlEPhNS_6VEnDisE) for i._ZN8MPU_925020TAccGyroMagDriver_LL11gyro_y_ctrlEPhNS_6VEnDisE
    mpu-9250_acc_gyro_mag_driver_ll.o(.ARM.exidx) refers to mpu-9250_acc_gyro_mag_driver_ll.o(i._ZN8MPU_925020TAccGyroMagDriver_LL11gyro_z_ctrlEPhNS_6VEnDisE) for i._ZN8MPU_925020TAccGyroMagDriver_LL11gyro_z_ctrlEPhNS_6VEnDisE
    mpu-9250_acc_gyro_mag_driver_ll.o(.ARM.exidx) refers to mpu-9250_acc_gyro_mag_driver_ll.o(i._ZN8MPU_925020TAccGyroMagDriver_LL20fifo_high_bits_countEPhh) for i._ZN8MPU_925020TAccGyroMagDriver_LL20fifo_high_bits_countEPhh
    mpu-9250_acc_gyro_mag_driver_ll.o(.ARM.exidx) refers to mpu-9250_acc_gyro_mag_driver_ll.o(i._ZN8MPU_925020TAccGyroMagDriver_LL14mag_data_readyEhPNS_11VStatusFlagE) for i._ZN8MPU_925020TAccGyroMagDriver_LL14mag_data_readyEhPNS_11VStatusFlagE
    mpu-9250_acc_gyro_mag_driver_ll.o(.ARM.exidx) refers to mpu-9250_acc_gyro_mag_driver_ll.o(i._ZN8MPU_925020TAccGyroMagDriver_LL16mag_data_overrunEhPNS_11VStatusFlagE) for i._ZN8MPU_925020TAccGyroMagDriver_LL16mag_data_overrunEhPNS_11VStatusFlagE
    mpu-9250_acc_gyro_mag_driver_ll.o(.ARM.exidx) refers to mpu-9250_acc_gyro_mag_driver_ll.o(i._ZN8MPU_925020TAccGyroMagDriver_LL12mag_overflowEhPNS_11VStatusFlagE) for i._ZN8MPU_925020TAccGyroMagDriver_LL12mag_overflowEhPNS_11VStatusFlagE
    mpu-9250_acc_gyro_mag_driver_ll.o(.ARM.exidx) refers to mpu-9250_acc_gyro_mag_driver_ll.o(i._ZN8MPU_925020TAccGyroMagDriver_LL19mag_mirror_data_bitEhPNS_11VStatusFlagE) for i._ZN8MPU_925020TAccGyroMagDriver_LL19mag_mirror_data_bitEhPNS_11VStatusFlagE
    mpu-9250_acc_gyro_mag_driver_ll.o(.ARM.exidx) refers to mpu-9250_acc_gyro_mag_driver_ll.o(i._ZN8MPU_925020TAccGyroMagDriver_LL22mag_operation_mode_setEPhNS_20VMagOperationModeSetE) for i._ZN8MPU_925020TAccGyroMagDriver_LL22mag_operation_mode_setEPhNS_20VMagOperationModeSetE
    mpu-9250_acc_gyro_mag_driver_ll.o(.ARM.exidx) refers to mpu-9250_acc_gyro_mag_driver_ll.o(i._ZN8MPU_925020TAccGyroMagDriver_LL23mag_operation_mode_readEhPNS_20VMagOperationModeSetE) for i._ZN8MPU_925020TAccGyroMagDriver_LL23mag_operation_mode_readEhPNS_20VMagOperationModeSetE
    mpu-9250_acc_gyro_mag_driver_ll.o(.ARM.exidx) refers to mpu-9250_acc_gyro_mag_driver_ll.o(i._ZN8MPU_925020TAccGyroMagDriver_LL18mag_output_bit_setEPhNS_16VMagOutputBitSetE) for i._ZN8MPU_925020TAccGyroMagDriver_LL18mag_output_bit_setEPhNS_16VMagOutputBitSetE
    mpu-9250_acc_gyro_mag_driver_ll.o(.ARM.exidx) refers to mpu-9250_acc_gyro_mag_driver_ll.o(i._ZN8MPU_925020TAccGyroMagDriver_LL19mag_output_bit_readEhPNS_16VMagOutputBitSetE) for i._ZN8MPU_925020TAccGyroMagDriver_LL19mag_output_bit_readEhPNS_16VMagOutputBitSetE
    mpu-9250_acc_gyro_mag_driver_ll.o(.ARM.exidx) refers to mpu-9250_acc_gyro_mag_driver_ll.o(i._ZN8MPU_925020TAccGyroMagDriver_LL19mag_soft_reset_ctrlEPhNS_17VMagSoftResetCtrlE) for i._ZN8MPU_925020TAccGyroMagDriver_LL19mag_soft_reset_ctrlEPhNS_17VMagSoftResetCtrlE
    mpu-9250_acc_gyro_mag_driver_ll.o(.ARM.exidx) refers to mpu-9250_acc_gyro_mag_driver_ll.o(i._ZN8MPU_925020TAccGyroMagDriver_LL18mag_self_test_ctrlEPhNS_16VMagSelfTestCtrlE) for i._ZN8MPU_925020TAccGyroMagDriver_LL18mag_self_test_ctrlEPhNS_16VMagSelfTestCtrlE
    mpu-9250_acc_gyro_mag_driver_ll.o(.ARM.exidx) refers to mpu-9250_acc_gyro_mag_driver_ll.o(i._ZN8MPU_925020TAccGyroMagDriver_LL15mag_i2c_disableEPh) for i._ZN8MPU_925020TAccGyroMagDriver_LL15mag_i2c_disableEPh
    relay.o(i._ZN5relay6TRelayC1EP12GPIO_TypeDefjjPc) refers to relay.o(i._ZN30_INTERNAL_9_Relay_cpp_6c3d9d8e22LL_GPIO_ResetOutputPinEP12GPIO_TypeDefj) for [local to Relay_cpp]::LL_GPIO_ResetOutputPin(GPIO_TypeDef*, unsigned)
    relay.o(i._ZN5relay6TRelayC1EP12GPIO_TypeDefjjPc) refers to stm32l4xx_ll_gpio.o(i.LL_GPIO_Init) for LL_GPIO_Init
    relay.o(i._ZNK5relay6TRelay3offEv) refers to relay.o(i._ZN30_INTERNAL_9_Relay_cpp_6c3d9d8e22LL_GPIO_ResetOutputPinEP12GPIO_TypeDefj) for [local to Relay_cpp]::LL_GPIO_ResetOutputPin(GPIO_TypeDef*, unsigned)
    relay.o(.ARM.exidx) refers to relay.o(i._ZN5relay6TRelayC1EP12GPIO_TypeDefjjPc) for i._ZN5relay6TRelayC1EP12GPIO_TypeDefjjPc
    relay.o(.ARM.exidx) refers to relay.o(i._ZN5relay6TRelayD1Ev) for i._ZN5relay6TRelayD1Ev
    relay.o(.ARM.exidx) refers to relay.o(i._ZNK5relay6TRelay6toggleEv) for i._ZNK5relay6TRelay6toggleEv
    relay.o(.ARM.exidx) refers to relay.o(i._ZNK5relay6TRelay2onEv) for i._ZNK5relay6TRelay2onEv
    relay.o(.ARM.exidx) refers to relay.o(i._ZNK5relay6TRelay3offEv) for i._ZNK5relay6TRelay3offEv
    relay.o(.ARM.exidx) refers to relay.o(i._ZN30_INTERNAL_9_Relay_cpp_6c3d9d8e22LL_GPIO_ResetOutputPinEP12GPIO_TypeDefj) for i._ZN30_INTERNAL_9_Relay_cpp_6c3d9d8e22LL_GPIO_ResetOutputPinEP12GPIO_TypeDefj
    rs-485_phy.o(.ARM.exidx) refers to rs-485_phy.o(i._ZN12T_RS_485_phyC1Ev) for i._ZN12T_RS_485_phyC1Ev
    rs-485_phy.o(.ARM.exidx) refers to rs-485_phy.o(i._ZN12T_RS_485_phyD1Ev) for i._ZN12T_RS_485_phyD1Ev
    rs-485_phy.o(.ARM.exidx) refers to rs-485_phy.o(i._ZN12T_RS_485_phy10get_configEv) for i._ZN12T_RS_485_phy10get_configEv
    rs-485_phy.o(.ARM.exidx) refers to rs-485_phy.o(i._ZN12T_RS_485_phy15get_de_polarityEv) for i._ZN12T_RS_485_phy15get_de_polarityEv
    sn65hvd233d.o(.ARM.exidx) refers to sn65hvd233d.o(i._ZN11SN65HVD233D7TCANPhyC1Ev) for i._ZN11SN65HVD233D7TCANPhyC1Ev
    sn65hvd233d.o(.ARM.exidx) refers to sn65hvd233d.o(i._ZN11SN65HVD233D7TCANPhyD1Ev) for i._ZN11SN65HVD233D7TCANPhyD1Ev
    sn65hvd233d.o(.ARM.exidx) refers to sn65hvd233d.o(i._ZN11SN65HVD233D7TCANPhy8set_modeENS_5TModeE) for i._ZN11SN65HVD233D7TCANPhy8set_modeENS_5TModeE
    sn65hvd233d.o(.ARM.exidx) refers to sn65hvd233d.o(i._ZN11SN65HVD233D7TCANPhy8get_modeEv) for i._ZN11SN65HVD233D7TCANPhy8get_modeEv
    sn65hvd233d.o(.ARM.exidx) refers to sn65hvd233d.o(i._ZN11SN65HVD233D7TCANPhy8set_rateENS_5TRateE) for i._ZN11SN65HVD233D7TCANPhy8set_rateENS_5TRateE
    sn65hvd233d.o(.ARM.exidx) refers to sn65hvd233d.o(i._ZN11SN65HVD233D7TCANPhy8get_rateEv) for i._ZN11SN65HVD233D7TCANPhy8get_rateEv
    sn65hvd233d.o(.ARM.exidx) refers to sn65hvd233d.o(i._ZN11SN65HVD233D7TCANPhy11get_rs_typeEv) for i._ZN11SN65HVD233D7TCANPhy11get_rs_typeEv
    sn65hvd233d.o(.ARM.exidx) refers to sn65hvd233d.o(i._ZN11SN65HVD233D7TCANPhy12get_lbk_typeEv) for i._ZN11SN65HVD233D7TCANPhy12get_lbk_typeEv
    button.o(i._ZN7TButton4initEv) refers to stm32l4xx_ll_gpio.o(i.LL_GPIO_Init) for LL_GPIO_Init
    button.o(i.__sti___10_Button_cpp_Btn) refers to button.o(i._ZN7TButtonC1ERK4TPin) for TButton::TButton(const TPin&)
    button.o(i.__sti___10_Button_cpp_Btn) refers to aeabi_atexit.o(.text) for __aeabi_atexit
    button.o(i.__sti___10_Button_cpp_Btn) refers to hard_config.o(.data) for Button_HW
    button.o(i.__sti___10_Button_cpp_Btn) refers to button.o(.bss) for Btn
    button.o(i.__sti___10_Button_cpp_Btn) refers to button.o(i._ZN7TButtonD1Ev) for TButton::~TButton()
    button.o(.ARM.exidx) refers to button.o(i._ZN7TButtonC1ERK4TPin) for i._ZN7TButtonC1ERK4TPin
    button.o(.ARM.exidx) refers to button.o(i._ZN7TButtonD1Ev) for i._ZN7TButtonD1Ev
    button.o(.ARM.exidx) refers to button.o(i._ZN7TButton4initEv) for i._ZN7TButton4initEv
    button.o(.ARM.exidx) refers to button.o(i._ZNK7TButton4readEv) for i._ZNK7TButton4readEv
    button.o(.ARM.exidx) refers to button.o(i.__sti___10_Button_cpp_Btn) for i.__sti___10_Button_cpp_Btn
    button.o(.init_array) refers to button.o(i.__sti___10_Button_cpp_Btn) for __sti___10_Button_cpp_Btn
    button.o(.init_array) refers to cpp_init.o(.text) for __cpp_initialize__aeabi_
    led.o(i._ZN4TLed11free_toggleEv) refers to led.o(i._ZN23_INTERNAL_7_Led_cpp_Led17LL_GPIO_TogglePinEP12GPIO_TypeDefj) for [local to Led_cpp]::LL_GPIO_TogglePin(GPIO_TypeDef*, unsigned)
    led.o(i._ZN4TLed3offEv) refers to led.o(i._ZN23_INTERNAL_7_Led_cpp_Led22LL_GPIO_ResetOutputPinEP12GPIO_TypeDefj) for [local to Led_cpp]::LL_GPIO_ResetOutputPin(GPIO_TypeDef*, unsigned)
    led.o(i._ZN4TLed4initEv) refers to led.o(i._ZN23_INTERNAL_7_Led_cpp_Led22LL_GPIO_ResetOutputPinEP12GPIO_TypeDefj) for [local to Led_cpp]::LL_GPIO_ResetOutputPin(GPIO_TypeDef*, unsigned)
    led.o(i._ZN4TLed4initEv) refers to stm32l4xx_ll_gpio.o(i.LL_GPIO_Init) for LL_GPIO_Init
    led.o(i._ZN4TLed6toggleEv) refers to led.o(i._ZN23_INTERNAL_7_Led_cpp_Led17LL_GPIO_TogglePinEP12GPIO_TypeDefj) for [local to Led_cpp]::LL_GPIO_TogglePin(GPIO_TypeDef*, unsigned)
    led.o(i.__sti___7_Led_cpp_Led) refers to led.o(i._ZN4TLedC1ERK4TPinPPv) for TLed::TLed(const TPin&, void**)
    led.o(i.__sti___7_Led_cpp_Led) refers to aeabi_atexit.o(.text) for __aeabi_atexit
    led.o(i.__sti___7_Led_cpp_Led) refers to main.o(.data) for LedTimer_TrigSem
    led.o(i.__sti___7_Led_cpp_Led) refers to hard_config.o(.data) for Led_HW
    led.o(i.__sti___7_Led_cpp_Led) refers to led.o(.bss) for Led
    led.o(i.__sti___7_Led_cpp_Led) refers to led.o(i._ZN4TLedD1Ev) for TLed::~TLed()
    led.o(.ARM.exidx) refers to led.o(i._ZN4TLedC1ERK4TPinPPv) for i._ZN4TLedC1ERK4TPinPPv
    led.o(.ARM.exidx) refers to led.o(i._ZN4TLedD1Ev) for i._ZN4TLedD1Ev
    led.o(.ARM.exidx) refers to led.o(i._ZN4TLed4initEv) for i._ZN4TLed4initEv
    led.o(.ARM.exidx) refers to led.o(i._ZN4TLed2onEv) for i._ZN4TLed2onEv
    led.o(.ARM.exidx) refers to led.o(i._ZN4TLed3offEv) for i._ZN4TLed3offEv
    led.o(.ARM.exidx) refers to led.o(i._ZN4TLed6toggleEv) for i._ZN4TLed6toggleEv
    led.o(.ARM.exidx) refers to led.o(i._ZN4TLed11free_toggleEv) for i._ZN4TLed11free_toggleEv
    led.o(.ARM.exidx) refers to led.o(i.__sti___7_Led_cpp_Led) for i.__sti___7_Led_cpp_Led
    led.o(.ARM.exidx) refers to led.o(i._ZN23_INTERNAL_7_Led_cpp_Led22LL_GPIO_ResetOutputPinEP12GPIO_TypeDefj) for i._ZN23_INTERNAL_7_Led_cpp_Led22LL_GPIO_ResetOutputPinEP12GPIO_TypeDefj
    led.o(.ARM.exidx) refers to led.o(i._ZN23_INTERNAL_7_Led_cpp_Led17LL_GPIO_TogglePinEP12GPIO_TypeDefj) for i._ZN23_INTERNAL_7_Led_cpp_Led17LL_GPIO_TogglePinEP12GPIO_TypeDefj
    led.o(.init_array) refers to led.o(i.__sti___7_Led_cpp_Led) for __sti___7_Led_cpp_Led
    led.o(.init_array) refers to cpp_init.o(.text) for __cpp_initialize__aeabi_
    angles_cnt.o(i._ZN7TAngles10get_z_signEv) refers to model.o(i._ZN6TModel11get_accel_zEv) for TModel::get_accel_z()
    angles_cnt.o(i._ZN7TAngles10get_z_signEv) refers to model.o(.bss) for Model
    angles_cnt.o(i._ZN7TAngles10place_downEss) refers to model.o(i._ZN6TModel16get_base_pos_errEv) for TModel::get_base_pos_err()
    angles_cnt.o(i._ZN7TAngles10place_downEss) refers to model.o(i._ZN6TModel16set_base_pos_errEN9TSettings7TPosErrE) for TModel::set_base_pos_err(TSettings::TPosErr)
    angles_cnt.o(i._ZN7TAngles10place_downEss) refers to memcpya.o(.text) for __aeabi_memcpy4
    angles_cnt.o(i._ZN7TAngles10place_downEss) refers to angles_cnt.o(i._ZN7TAngles15cast_open_angleEPs) for TAngles::cast_open_angle(short*)
    angles_cnt.o(i._ZN7TAngles10place_downEss) refers to model.o(i._ZN6TModel8get_biasEv) for TModel::get_bias()
    angles_cnt.o(i._ZN7TAngles10place_downEss) refers to model.o(i._ZN6TModel14get_open_angleEv) for TModel::get_open_angle()
    angles_cnt.o(i._ZN7TAngles10place_downEss) refers to angles_cnt.o(i._ZN7TAngles8cnt_dampERfsf) for TAngles::cnt_damp(float&, short, float)
    angles_cnt.o(i._ZN7TAngles10place_downEss) refers to model.o(i._ZN6TModel14set_open_angleEf) for TModel::set_open_angle(float)
    angles_cnt.o(i._ZN7TAngles10place_downEss) refers to model.o(.bss) for Model
    angles_cnt.o(i._ZN7TAngles10place_downEss) refers to angles_cnt.o(.constdata) for .constdata
    angles_cnt.o(i._ZN7TAngles11cnt_processEN9TSettings11TAxisRotateEbN10TMemsMount1TE) refers to memcpya.o(.text) for __aeabi_memcpy4
    angles_cnt.o(i._ZN7TAngles11cnt_processEN9TSettings11TAxisRotateEbN10TMemsMount1TE) refers to angles_cnt.o(i._ZN7TAngles10get_z_signEv) for TAngles::get_z_sign()
    angles_cnt.o(i._ZN7TAngles11cnt_processEN9TSettings11TAxisRotateEbN10TMemsMount1TE) refers to model.o(i._ZN6TModel12set_my_angleEs) for TModel::set_my_angle(short)
    angles_cnt.o(i._ZN7TAngles11cnt_processEN9TSettings11TAxisRotateEbN10TMemsMount1TE) refers to angles_cnt.o(.constdata) for .constdata
    angles_cnt.o(i._ZN7TAngles11cnt_processEN9TSettings11TAxisRotateEbN10TMemsMount1TE) refers to model.o(.bss) for Model
    angles_cnt.o(i._ZN7TAngles12cnt_my_angleEN9TSettings8TDevTypeENS0_11TAxisRotateEb) refers to angles_cnt.o(.constdata) for .constdata
    angles_cnt.o(i._ZN7TAngles14cnt_open_angleEv) refers to model.o(i._ZN6TModel12get_my_angleEv) for TModel::get_my_angle()
    angles_cnt.o(i._ZN7TAngles14cnt_open_angleEv) refers to model.o(i._ZN6TModel14get_sens_angleEv) for TModel::get_sens_angle()
    angles_cnt.o(i._ZN7TAngles14cnt_open_angleEv) refers to median_filter.o(i._ZN13TMedianFilter7processEs) for TMedianFilter::process(short)
    angles_cnt.o(i._ZN7TAngles14cnt_open_angleEv) refers to angles_cnt.o(.constdata) for .constdata
    angles_cnt.o(i._ZN7TAngles14cnt_open_angleEv) refers to model.o(.bss) for Model
    angles_cnt.o(i._ZN7TAngles14cnt_open_angleEv) refers to angles_cnt.o(.bss) for BaseFilter
    angles_cnt.o(i._ZN7TAngles4baseEN9TSettings11TAxisRotateEb) refers to angles_cnt.o(i._ZN7TAngles11cnt_processEN9TSettings11TAxisRotateEbN10TMemsMount1TE) for TAngles::cnt_process(TSettings::TAxisRotate, bool, TMemsMount::T)
    angles_cnt.o(i._ZN7TAngles4sensEN9TSettings11TAxisRotateEb) refers to angles_cnt.o(i._ZN7TAngles11cnt_processEN9TSettings11TAxisRotateEbN10TMemsMount1TE) for TAngles::cnt_process(TSettings::TAxisRotate, bool, TMemsMount::T)
    angles_cnt.o(i._ZN7TAngles8place_upEss) refers to model.o(i._ZN6TModel16get_base_pos_errEv) for TModel::get_base_pos_err()
    angles_cnt.o(i._ZN7TAngles8place_upEss) refers to model.o(i._ZN6TModel16set_base_pos_errEN9TSettings7TPosErrE) for TModel::set_base_pos_err(TSettings::TPosErr)
    angles_cnt.o(i._ZN7TAngles8place_upEss) refers to memcpya.o(.text) for __aeabi_memcpy4
    angles_cnt.o(i._ZN7TAngles8place_upEss) refers to angles_cnt.o(i._ZN7TAngles15cast_open_angleEPs) for TAngles::cast_open_angle(short*)
    angles_cnt.o(i._ZN7TAngles8place_upEss) refers to model.o(i._ZN6TModel8get_biasEv) for TModel::get_bias()
    angles_cnt.o(i._ZN7TAngles8place_upEss) refers to model.o(i._ZN6TModel14get_open_angleEv) for TModel::get_open_angle()
    angles_cnt.o(i._ZN7TAngles8place_upEss) refers to angles_cnt.o(i._ZN7TAngles8cnt_dampERfsf) for TAngles::cnt_damp(float&, short, float)
    angles_cnt.o(i._ZN7TAngles8place_upEss) refers to model.o(i._ZN6TModel14set_open_angleEf) for TModel::set_open_angle(float)
    angles_cnt.o(i._ZN7TAngles8place_upEss) refers to model.o(.bss) for Model
    angles_cnt.o(i._ZN7TAngles8place_upEss) refers to angles_cnt.o(.constdata) for .constdata
    angles_cnt.o(i.__sti___14_angles_cnt_cpp_002624b5) refers to median_filter.o(i._ZN13TMedianFilterC1Es) for TMedianFilter::TMedianFilter(short)
    angles_cnt.o(i.__sti___14_angles_cnt_cpp_002624b5) refers to aeabi_atexit.o(.text) for __aeabi_atexit
    angles_cnt.o(i.__sti___14_angles_cnt_cpp_002624b5) refers to angles_cnt.o(i._ZN7TAnglesC1Ev) for TAngles::TAngles()
    angles_cnt.o(i.__sti___14_angles_cnt_cpp_002624b5) refers to angles_cnt.o(.bss) for BaseFilter
    angles_cnt.o(i.__sti___14_angles_cnt_cpp_002624b5) refers to median_filter.o(i._ZN13TMedianFilterD1Ev) for TMedianFilter::~TMedianFilter()
    angles_cnt.o(i.__sti___14_angles_cnt_cpp_002624b5) refers to angles_cnt.o(.data) for Angles
    angles_cnt.o(i.__sti___14_angles_cnt_cpp_002624b5) refers to angles_cnt.o(i._ZN7TAnglesD1Ev) for TAngles::~TAngles()
    angles_cnt.o(.ARM.exidx) refers to angles_cnt.o(i._ZN7TAnglesC1Ev) for i._ZN7TAnglesC1Ev
    angles_cnt.o(.ARM.exidx) refers to angles_cnt.o(i._ZN7TAnglesD1Ev) for i._ZN7TAnglesD1Ev
    angles_cnt.o(.ARM.exidx) refers to angles_cnt.o(i._ZN7TAngles12cnt_my_angleEN9TSettings8TDevTypeENS0_11TAxisRotateEb) for i._ZN7TAngles12cnt_my_angleEN9TSettings8TDevTypeENS0_11TAxisRotateEb
    angles_cnt.o(.ARM.exidx) refers to angles_cnt.o(i._ZN7TAngles14cnt_open_angleEv) for i._ZN7TAngles14cnt_open_angleEv
    angles_cnt.o(.ARM.exidx) refers to angles_cnt.o(i._ZN7TAngles10q1_pos_cntEa) for i._ZN7TAngles10q1_pos_cntEa
    angles_cnt.o(.ARM.exidx) refers to angles_cnt.o(i._ZN7TAngles10q2_pos_cntEa) for i._ZN7TAngles10q2_pos_cntEa
    angles_cnt.o(.ARM.exidx) refers to angles_cnt.o(i._ZN7TAngles10q3_pos_cntEa) for i._ZN7TAngles10q3_pos_cntEa
    angles_cnt.o(.ARM.exidx) refers to angles_cnt.o(i._ZN7TAngles10q4_pos_cntEa) for i._ZN7TAngles10q4_pos_cntEa
    angles_cnt.o(.ARM.exidx) refers to angles_cnt.o(i._ZN7TAngles10q1_neg_cntEa) for i._ZN7TAngles10q1_neg_cntEa
    angles_cnt.o(.ARM.exidx) refers to angles_cnt.o(i._ZN7TAngles10q2_neg_cntEa) for i._ZN7TAngles10q2_neg_cntEa
    angles_cnt.o(.ARM.exidx) refers to angles_cnt.o(i._ZN7TAngles10q3_neg_cntEa) for i._ZN7TAngles10q3_neg_cntEa
    angles_cnt.o(.ARM.exidx) refers to angles_cnt.o(i._ZN7TAngles10q4_neg_cntEa) for i._ZN7TAngles10q4_neg_cntEa
    angles_cnt.o(.ARM.exidx) refers to angles_cnt.o(i._ZN7TAngles10q1_pos_cntEss) for i._ZN7TAngles10q1_pos_cntEss
    angles_cnt.o(.ARM.exidx) refers to angles_cnt.o(i._ZN7TAngles10q2_pos_cntEss) for i._ZN7TAngles10q2_pos_cntEss
    angles_cnt.o(.ARM.exidx) refers to angles_cnt.o(i._ZN7TAngles10q3_pos_cntEss) for i._ZN7TAngles10q3_pos_cntEss
    angles_cnt.o(.ARM.exidx) refers to angles_cnt.o(i._ZN7TAngles10q4_pos_cntEss) for i._ZN7TAngles10q4_pos_cntEss
    angles_cnt.o(.ARM.exidx) refers to angles_cnt.o(i._ZN7TAngles10q1_neg_cntEss) for i._ZN7TAngles10q1_neg_cntEss
    angles_cnt.o(.ARM.exidx) refers to angles_cnt.o(i._ZN7TAngles10q2_neg_cntEss) for i._ZN7TAngles10q2_neg_cntEss
    angles_cnt.o(.ARM.exidx) refers to angles_cnt.o(i._ZN7TAngles10q3_neg_cntEss) for i._ZN7TAngles10q3_neg_cntEss
    angles_cnt.o(.ARM.exidx) refers to angles_cnt.o(i._ZN7TAngles10q4_neg_cntEss) for i._ZN7TAngles10q4_neg_cntEss
    angles_cnt.o(.ARM.exidx) refers to angles_cnt.o(i._ZN7TAngles10get_z_signEv) for i._ZN7TAngles10get_z_signEv
    angles_cnt.o(.ARM.exidx) refers to angles_cnt.o(i._ZN7TAngles11cnt_processEN9TSettings11TAxisRotateEbN10TMemsMount1TE) for i._ZN7TAngles11cnt_processEN9TSettings11TAxisRotateEbN10TMemsMount1TE
    angles_cnt.o(.ARM.exidx) refers to angles_cnt.o(i._ZN7TAngles4baseEN9TSettings11TAxisRotateEb) for i._ZN7TAngles4baseEN9TSettings11TAxisRotateEb
    angles_cnt.o(.ARM.exidx) refers to angles_cnt.o(i._ZN7TAngles4sensEN9TSettings11TAxisRotateEb) for i._ZN7TAngles4sensEN9TSettings11TAxisRotateEb
    angles_cnt.o(.ARM.exidx) refers to angles_cnt.o(i._ZN7TAngles8cnt_dampERfsf) for i._ZN7TAngles8cnt_dampERfsf
    angles_cnt.o(.ARM.exidx) refers to angles_cnt.o(i._ZN7TAngles15cast_open_angleEPs) for i._ZN7TAngles15cast_open_angleEPs
    angles_cnt.o(.ARM.exidx) refers to angles_cnt.o(i._ZN7TAngles8place_upEss) for i._ZN7TAngles8place_upEss
    angles_cnt.o(.ARM.exidx) refers to angles_cnt.o(i._ZN7TAngles10place_downEss) for i._ZN7TAngles10place_downEss
    angles_cnt.o(.ARM.exidx) refers to angles_cnt.o(i.__sti___14_angles_cnt_cpp_002624b5) for i.__sti___14_angles_cnt_cpp_002624b5
    angles_cnt.o(.constdata) refers to angles_cnt.o(i._ZN7TAngles10q1_pos_cntEa) for TAngles::q1_pos_cnt(signed char)
    angles_cnt.o(.constdata) refers to angles_cnt.o(i._ZN7TAngles10q2_pos_cntEa) for TAngles::q2_pos_cnt(signed char)
    angles_cnt.o(.constdata) refers to angles_cnt.o(i._ZN7TAngles10q3_pos_cntEa) for TAngles::q3_pos_cnt(signed char)
    angles_cnt.o(.constdata) refers to angles_cnt.o(i._ZN7TAngles10q4_pos_cntEa) for TAngles::q4_pos_cnt(signed char)
    angles_cnt.o(.constdata) refers to angles_cnt.o(i._ZN7TAngles10q1_neg_cntEa) for TAngles::q1_neg_cnt(signed char)
    angles_cnt.o(.constdata) refers to angles_cnt.o(i._ZN7TAngles10q2_neg_cntEa) for TAngles::q2_neg_cnt(signed char)
    angles_cnt.o(.constdata) refers to angles_cnt.o(i._ZN7TAngles10q3_neg_cntEa) for TAngles::q3_neg_cnt(signed char)
    angles_cnt.o(.constdata) refers to angles_cnt.o(i._ZN7TAngles10q4_neg_cntEa) for TAngles::q4_neg_cnt(signed char)
    angles_cnt.o(.constdata) refers to angles_cnt.o(i._ZN7TAngles4baseEN9TSettings11TAxisRotateEb) for TAngles::base(TSettings::TAxisRotate, bool)
    angles_cnt.o(.constdata) refers to angles_cnt.o(i._ZN7TAngles4sensEN9TSettings11TAxisRotateEb) for TAngles::sens(TSettings::TAxisRotate, bool)
    angles_cnt.o(.constdata) refers to angles_cnt.o(i._ZN7TAngles8place_upEss) for TAngles::place_up(short, short)
    angles_cnt.o(.constdata) refers to angles_cnt.o(i._ZN7TAngles10place_downEss) for TAngles::place_down(short, short)
    angles_cnt.o(.constdata) refers to model.o(i._ZN6TModel12get_raw_rollEv) for TModel::get_raw_roll()
    angles_cnt.o(.constdata) refers to model.o(i._ZN6TModel19get_roll_bias_angleEv) for TModel::get_roll_bias_angle()
    angles_cnt.o(.constdata) refers to model.o(i._ZN6TModel13get_raw_pitchEv) for TModel::get_raw_pitch()
    angles_cnt.o(.constdata) refers to model.o(i._ZN6TModel20get_pitch_bias_angleEv) for TModel::get_pitch_bias_angle()
    angles_cnt.o(.constdata) refers to angles_cnt.o(i._ZN7TAngles10q1_pos_cntEss) for TAngles::q1_pos_cnt(short, short)
    angles_cnt.o(.constdata) refers to angles_cnt.o(i._ZN7TAngles10q2_pos_cntEss) for TAngles::q2_pos_cnt(short, short)
    angles_cnt.o(.constdata) refers to angles_cnt.o(i._ZN7TAngles10q3_pos_cntEss) for TAngles::q3_pos_cnt(short, short)
    angles_cnt.o(.constdata) refers to angles_cnt.o(i._ZN7TAngles10q4_pos_cntEss) for TAngles::q4_pos_cnt(short, short)
    angles_cnt.o(.constdata) refers to angles_cnt.o(i._ZN7TAngles10q1_neg_cntEss) for TAngles::q1_neg_cnt(short, short)
    angles_cnt.o(.constdata) refers to angles_cnt.o(i._ZN7TAngles10q2_neg_cntEss) for TAngles::q2_neg_cnt(short, short)
    angles_cnt.o(.constdata) refers to angles_cnt.o(i._ZN7TAngles10q3_neg_cntEss) for TAngles::q3_neg_cnt(short, short)
    angles_cnt.o(.constdata) refers to angles_cnt.o(i._ZN7TAngles10q4_neg_cntEss) for TAngles::q4_neg_cnt(short, short)
    angles_cnt.o(.init_array) refers to angles_cnt.o(i.__sti___14_angles_cnt_cpp_002624b5) for __sti___14_angles_cnt_cpp_002624b5
    angles_cnt.o(.init_array) refers to cpp_init.o(.text) for __cpp_initialize__aeabi_
    main.o(i._Z11cfg_sys_clkv) refers to memcpya.o(.text) for __aeabi_memcpy4
    main.o(i._Z11cfg_sys_clkv) refers to main.o(i._ZN29_INTERNAL_8_main_cpp_6396510218LL_RCC_MSI_IsReadyEv) for [local to main_cpp]::LL_RCC_MSI_IsReady()
    main.o(i._Z11cfg_sys_clkv) refers to stm32l4xx_ll_utils.o(i.LL_Init1msTick) for LL_Init1msTick
    main.o(i._Z11cfg_sys_clkv) refers to stm32l4xx_ll_utils.o(i.LL_SetSystemCoreClock) for LL_SetSystemCoreClock
    main.o(i._Z11cfg_sys_clkv) refers to main.o(i._ZN29_INTERNAL_8_main_cpp_6396510224NVIC_GetPriorityGroupingEv) for [local to main_cpp]::NVIC_GetPriorityGrouping()
    main.o(i._Z11cfg_sys_clkv) refers to main.o(i._ZN29_INTERNAL_8_main_cpp_6396510219NVIC_EncodePriorityEjjj) for [local to main_cpp]::NVIC_EncodePriority(unsigned, unsigned, unsigned)
    main.o(i._Z11cfg_sys_clkv) refers to main.o(i._ZN29_INTERNAL_8_main_cpp_6396510216NVIC_SetPriorityE9IRQn_Typej) for [local to main_cpp]::NVIC_SetPriority(IRQn_Type, unsigned)
    main.o(i._Z11cfg_sys_clkv) refers to main.o(.constdata) for .constdata
    main.o(i._Z29vApplicationStackOverflowHookPPvPa) refers to main.o(.data) for vApplicationStackOverflowHook(void**, signed char*)::Ctr
    main.o(i._ZN29_INTERNAL_8_main_cpp_6396510212create_tasksEv) refers to tasks.o(i.xTaskCreate) for xTaskCreate
    main.o(i._ZN29_INTERNAL_8_main_cpp_6396510212create_tasksEv) refers to main.o(i._ZN29_INTERNAL_8_main_cpp_6396510217check_create_taskEl) for [local to main_cpp]::check_create_task(long)
    main.o(i._ZN29_INTERNAL_8_main_cpp_6396510212create_tasksEv) refers to heap_2.o(i.xPortGetFreeHeapSize) for xPortGetFreeHeapSize
    main.o(i._ZN29_INTERNAL_8_main_cpp_6396510212create_tasksEv) refers to coding_switch.o(i._Z13coding_switchPv) for coding_switch(void*)
    main.o(i._ZN29_INTERNAL_8_main_cpp_6396510212create_tasksEv) refers to main.o(.data) for RtosHeapSize
    main.o(i._ZN29_INTERNAL_8_main_cpp_6396510212create_tasksEv) refers to discrete_out.o(i._Z12discrete_outPv) for discrete_out(void*)
    main.o(i._ZN29_INTERNAL_8_main_cpp_6396510212create_tasksEv) refers to mems.o(i._Z4memsPv) for mems(void*)
    main.o(i._ZN29_INTERNAL_8_main_cpp_6396510212create_tasksEv) refers to base_to_pc.o(i._Z10base_to_pcPv) for base_to_pc(void*)
    main.o(i._ZN29_INTERNAL_8_main_cpp_6396510212create_tasksEv) refers to base_to_sens.o(i._Z12base_to_sensPv) for base_to_sens(void*)
    main.o(i._ZN29_INTERNAL_8_main_cpp_6396510212create_tasksEv) refers to sens_to_master.o(i._Z14sens_to_masterPv) for sens_to_master(void*)
    main.o(i._ZN29_INTERNAL_8_main_cpp_6396510212create_tasksEv) refers to dev_ctrl.o(i._Z8dev_ctrlPv) for dev_ctrl(void*)
    main.o(i._ZN29_INTERNAL_8_main_cpp_6396510212create_tasksEv) refers to logger_ctrl.o(i._Z11logger_ctrlPv) for logger_ctrl(void*)
    main.o(i._ZN29_INTERNAL_8_main_cpp_6396510212create_tasksEv) refers to led_ctrl.o(i._Z8vLedCtrlPv) for vLedCtrl(void*)
    main.o(i._ZN29_INTERNAL_8_main_cpp_6396510212create_tasksEv) refers to button_poll.o(i._Z11vPushButtonPv) for vPushButton(void*)
    main.o(i._ZN29_INTERNAL_8_main_cpp_6396510212init_mx_gpioEv) refers to stm32l4xx_ll_gpio.o(i.LL_GPIO_Init) for LL_GPIO_Init
    main.o(i._ZN29_INTERNAL_8_main_cpp_6396510213create_timersEv) refers to timers.o(i.xTimerCreate) for xTimerCreate
    main.o(i._ZN29_INTERNAL_8_main_cpp_6396510213create_timersEv) refers to main.o(i._ZN29_INTERNAL_8_main_cpp_6396510218check_create_timerEPv) for [local to main_cpp]::check_create_timer(void*)
    main.o(i._ZN29_INTERNAL_8_main_cpp_6396510213create_timersEv) refers to coding_switch.o(i._Z11code_sw_tmrPv) for code_sw_tmr(void*)
    main.o(i._ZN29_INTERNAL_8_main_cpp_6396510213create_timersEv) refers to main.o(.data) for CodeSwTmr
    main.o(i._ZN29_INTERNAL_8_main_cpp_6396510213create_timersEv) refers to discrete_out.o(i._Z14do_uncalib_tmrPv) for do_uncalib_tmr(void*)
    main.o(i._ZN29_INTERNAL_8_main_cpp_6396510213create_timersEv) refers to base_to_sens.o(i._Z6pd_tmrPv) for pd_tmr(void*)
    main.o(i._ZN29_INTERNAL_8_main_cpp_6396510213create_timersEv) refers to button_poll.o(i._Z14vTimerCallbackPv) for vTimerCallback(void*)
    main.o(i._ZN29_INTERNAL_8_main_cpp_6396510214create_mutexesEv) refers to queue.o(i.xQueueCreateMutex) for xQueueCreateMutex
    main.o(i._ZN29_INTERNAL_8_main_cpp_6396510214create_mutexesEv) refers to main.o(i._ZN29_INTERNAL_8_main_cpp_6396510218check_create_mutexEPv) for [local to main_cpp]::check_create_mutex(void*)
    main.o(i._ZN29_INTERNAL_8_main_cpp_6396510214create_mutexesEv) refers to main.o(.data) for MainMut
    main.o(i._ZN29_INTERNAL_8_main_cpp_6396510214create_semphrsEv) refers to queue.o(i.xQueueGenericCreate) for xQueueGenericCreate
    main.o(i._ZN29_INTERNAL_8_main_cpp_6396510214create_semphrsEv) refers to main.o(i._ZN29_INTERNAL_8_main_cpp_6396510219check_create_semphrEPv) for [local to main_cpp]::check_create_semphr(void*)
    main.o(i._ZN29_INTERNAL_8_main_cpp_6396510214create_semphrsEv) refers to main.o(.data) for I2C_RxSem
    main.o(i._ZN29_INTERNAL_8_main_cpp_639651027init_llEv) refers to main.o(i._ZN29_INTERNAL_8_main_cpp_6396510224NVIC_GetPriorityGroupingEv) for [local to main_cpp]::NVIC_GetPriorityGrouping()
    main.o(i._ZN29_INTERNAL_8_main_cpp_639651027init_llEv) refers to main.o(i._ZN29_INTERNAL_8_main_cpp_6396510219NVIC_EncodePriorityEjjj) for [local to main_cpp]::NVIC_EncodePriority(unsigned, unsigned, unsigned)
    main.o(i._ZN29_INTERNAL_8_main_cpp_639651027init_llEv) refers to main.o(i._ZN29_INTERNAL_8_main_cpp_6396510216NVIC_SetPriorityE9IRQn_Typej) for [local to main_cpp]::NVIC_SetPriority(IRQn_Type, unsigned)
    main.o(i.__sti___8_main_cpp_63965102) refers to heap_2.o(i.xPortGetFreeHeapSize) for xPortGetFreeHeapSize
    main.o(i.__sti___8_main_cpp_63965102) refers to relay.o(i._ZN5relay6TRelayC1EP12GPIO_TypeDefjjPc) for relay::TRelay::TRelay(GPIO_TypeDef*, unsigned, unsigned, char*)
    main.o(i.__sti___8_main_cpp_63965102) refers to aeabi_atexit.o(.text) for __aeabi_atexit
    main.o(i.__sti___8_main_cpp_63965102) refers to main.o(.data) for RtosHeapSize
    main.o(i.__sti___8_main_cpp_63965102) refers to main.o(.bss) for RelTwo
    main.o(i.__sti___8_main_cpp_63965102) refers to relay.o(i._ZN5relay6TRelayD1Ev) for relay::TRelay::~TRelay()
    main.o(i.main) refers to discrete_out.o(i._ZN12TDiscreteOut4initEv) for TDiscreteOut::init()
    main.o(i.main) refers to sensdev.o(i.SetProgNum) for SetProgNum
    main.o(i.main) refers to main.o(i._ZN29_INTERNAL_8_main_cpp_639651027init_llEv) for [local to main_cpp]::init_ll()
    main.o(i.main) refers to main.o(i._Z11cfg_sys_clkv) for cfg_sys_clk()
    main.o(i.main) refers to main.o(i._ZN29_INTERNAL_8_main_cpp_6396510212init_mx_gpioEv) for [local to main_cpp]::init_mx_gpio()
    main.o(i.main) refers to dev_determ.o(i._ZN10TDevDeterm8init_tmrEv) for TDevDeterm::init_tmr()
    main.o(i.main) refers to dev_determ.o(i._ZN10TDevDeterm6is_devEv) for TDevDeterm::is_dev()
    main.o(i.main) refers to heap_2.o(i.xPortGetFreeHeapSize) for xPortGetFreeHeapSize
    main.o(i.main) refers to main.o(i._ZN29_INTERNAL_8_main_cpp_6396510214create_semphrsEv) for [local to main_cpp]::create_semphrs()
    main.o(i.main) refers to main.o(i._ZN29_INTERNAL_8_main_cpp_6396510214create_mutexesEv) for [local to main_cpp]::create_mutexes()
    main.o(i.main) refers to main.o(i._ZN29_INTERNAL_8_main_cpp_6396510213create_timersEv) for [local to main_cpp]::create_timers()
    main.o(i.main) refers to main.o(i._ZN29_INTERNAL_8_main_cpp_6396510212create_tasksEv) for [local to main_cpp]::create_tasks()
    main.o(i.main) refers to tasks.o(i.vTaskStartScheduler) for vTaskStartScheduler
    main.o(i.main) refers to discrete_out.o(.data) for Do
    main.o(i.main) refers to dev_determ.o(.bss) for DevDeterm
    main.o(i.main) refers to main.o(.data) for RtosHeapSize
    main.o(i.vApplicationStackOverflowHook) refers to main.o(.data) for vApplicationStackOverflowHook::k
    main.o(.ARM.exidx) refers to main.o(i._ZN29_INTERNAL_8_main_cpp_6396510216NVIC_SetPriorityE9IRQn_Typej) for i._ZN29_INTERNAL_8_main_cpp_6396510216NVIC_SetPriorityE9IRQn_Typej
    main.o(.ARM.exidx) refers to main.o(i._ZN29_INTERNAL_8_main_cpp_6396510219NVIC_EncodePriorityEjjj) for i._ZN29_INTERNAL_8_main_cpp_6396510219NVIC_EncodePriorityEjjj
    main.o(.ARM.exidx) refers to main.o(i._ZN29_INTERNAL_8_main_cpp_6396510217check_create_taskEl) for i._ZN29_INTERNAL_8_main_cpp_6396510217check_create_taskEl
    main.o(.ARM.exidx) refers to main.o(i._ZN29_INTERNAL_8_main_cpp_6396510212create_tasksEv) for i._ZN29_INTERNAL_8_main_cpp_6396510212create_tasksEv
    main.o(.ARM.exidx) refers to main.o(i._ZN29_INTERNAL_8_main_cpp_6396510218check_create_timerEPv) for i._ZN29_INTERNAL_8_main_cpp_6396510218check_create_timerEPv
    main.o(.ARM.exidx) refers to main.o(i._ZN29_INTERNAL_8_main_cpp_6396510213create_timersEv) for i._ZN29_INTERNAL_8_main_cpp_6396510213create_timersEv
    main.o(.ARM.exidx) refers to main.o(i._ZN29_INTERNAL_8_main_cpp_6396510218check_create_mutexEPv) for i._ZN29_INTERNAL_8_main_cpp_6396510218check_create_mutexEPv
    main.o(.ARM.exidx) refers to main.o(i._ZN29_INTERNAL_8_main_cpp_6396510214create_mutexesEv) for i._ZN29_INTERNAL_8_main_cpp_6396510214create_mutexesEv
    main.o(.ARM.exidx) refers to main.o(i._ZN29_INTERNAL_8_main_cpp_6396510219check_create_semphrEPv) for i._ZN29_INTERNAL_8_main_cpp_6396510219check_create_semphrEPv
    main.o(.ARM.exidx) refers to main.o(i._ZN29_INTERNAL_8_main_cpp_6396510214create_semphrsEv) for i._ZN29_INTERNAL_8_main_cpp_6396510214create_semphrsEv
    main.o(.ARM.exidx) refers to main.o(i._ZN29_INTERNAL_8_main_cpp_6396510212init_mx_gpioEv) for i._ZN29_INTERNAL_8_main_cpp_6396510212init_mx_gpioEv
    main.o(.ARM.exidx) refers to main.o(i._Z11cfg_sys_clkv) for i._Z11cfg_sys_clkv
    main.o(.ARM.exidx) refers to main.o(i._ZN29_INTERNAL_8_main_cpp_639651027init_llEv) for i._ZN29_INTERNAL_8_main_cpp_639651027init_llEv
    main.o(.ARM.exidx) refers to main.o(i.main) for i.main
    main.o(.ARM.exidx) refers to main.o(i.vApplicationStackOverflowHook) for i.vApplicationStackOverflowHook
    main.o(.ARM.exidx) refers to main.o(i.vApplicationIdleHook) for i.vApplicationIdleHook
    main.o(.ARM.exidx) refers to main.o(i._Z29vApplicationStackOverflowHookPPvPa) for i._Z29vApplicationStackOverflowHookPPvPa
    main.o(.ARM.exidx) refers to main.o(i._Z11err_handlerv) for i._Z11err_handlerv
    main.o(.ARM.exidx) refers to main.o(i.__sti___8_main_cpp_63965102) for i.__sti___8_main_cpp_63965102
    main.o(.ARM.exidx) refers to main.o(i._ZN29_INTERNAL_8_main_cpp_6396510224NVIC_GetPriorityGroupingEv) for i._ZN29_INTERNAL_8_main_cpp_6396510224NVIC_GetPriorityGroupingEv
    main.o(.ARM.exidx) refers to main.o(i._ZN29_INTERNAL_8_main_cpp_6396510218LL_RCC_MSI_IsReadyEv) for i._ZN29_INTERNAL_8_main_cpp_6396510218LL_RCC_MSI_IsReadyEv
    main.o(.init_array) refers to main.o(i.__sti___8_main_cpp_63965102) for __sti___8_main_cpp_63965102
    main.o(.init_array) refers to cpp_init.o(.text) for __cpp_initialize__aeabi_
    sensdev.o(i.IsEmuMode) refers to sensdev.o(.data) for emutime
    sensdev.o(i.LoadConst) refers to model.o(i._ZN6TModel8get_setsER10MySettings) for TModel::get_sets(MySettings&)
    sensdev.o(i.LoadConst) refers to sens_types.o(.bss) for DSt
    sensdev.o(i.LoadConst) refers to model.o(.bss) for Model
    sensdev.o(i.SetProgNum) refers to sensdev.o(.data) for ProgNum
    sensdev.o(i.SetTCPnt) refers to sensproc.o(i.GetAccessMode) for GetAccessMode
    sensdev.o(i.SetTCPnt) refers to port.o(i.vPortEnterCritical) for vPortEnterCritical
    sensdev.o(i.SetTCPnt) refers to port.o(i.vPortExitCritical) for vPortExitCritical
    sensdev.o(i.SetTCPnt) refers to main.o(.data) for MagCalReq
    sensdev.o(i.TCPProc) refers to sensline.o(i.tdlt) for tdlt
    sensdev.o(i.TCPProc) refers to sensdev.o(.data) for emutime
    sensdev.o(i.ThePredef) refers to sensdev.o(i._Z4MenuhPh) for Menu(unsigned char, unsigned char*)
    sensdev.o(i._Z4MenuhPh) refers to sensproc.o(i.GetAccessMode) for GetAccessMode
    sensdev.o(.ARM.exidx) refers to sensdev.o(i.ReinitMemory) for i.ReinitMemory
    sensdev.o(.ARM.exidx) refers to sensdev.o(i._Z4MenuhPh) for i._Z4MenuhPh
    sensdev.o(.ARM.exidx) refers to sensdev.o(i.ThePredef) for i.ThePredef
    sensdev.o(.ARM.exidx) refers to sensdev.o(i.LoadConst) for i.LoadConst
    sensdev.o(.ARM.exidx) refers to sensdev.o(i.SaveConst) for i.SaveConst
    sensdev.o(.ARM.exidx) refers to sensdev.o(i.HardSaveConst) for i.HardSaveConst
    sensdev.o(.ARM.exidx) refers to sensdev.o(i.ReadConst) for i.ReadConst
    sensdev.o(.ARM.exidx) refers to sensdev.o(i.ReadTCTab) for i.ReadTCTab
    sensdev.o(.ARM.exidx) refers to sensdev.o(i.SetTCPnt) for i.SetTCPnt
    sensdev.o(.ARM.exidx) refers to sensdev.o(i.IsEmuMode) for i.IsEmuMode
    sensdev.o(.ARM.exidx) refers to sensdev.o(i.TCPProc) for i.TCPProc
    sensdev.o(.ARM.exidx) refers to sensdev.o(i.SetProgNum) for i.SetProgNum
    sensdev.o(.constdata) refers to sens_types.o(.bss) for DSt
    sensdev.o(.constdata) refers to sensdev.o(.data) for ProgNum
    hard_config.o(.ARM.exidx) refers to hard_config.o(i._ZN37_INTERNAL_15_hard_config_cpp_1a7f66ee24LL_AHB2_GRP1_EnableClockEj) for i._ZN37_INTERNAL_15_hard_config_cpp_1a7f66ee24LL_AHB2_GRP1_EnableClockEj
    hard_config.o(.ARM.exidx) refers to hard_config.o(i._ZN37_INTERNAL_15_hard_config_cpp_1a7f66ee24LL_APB1_GRP1_EnableClockEj) for i._ZN37_INTERNAL_15_hard_config_cpp_1a7f66ee24LL_APB1_GRP1_EnableClockEj
    hard_config.o(.ARM.exidx) refers to hard_config.o(i._ZN37_INTERNAL_15_hard_config_cpp_1a7f66ee24LL_APB2_GRP1_EnableClockEj) for i._ZN37_INTERNAL_15_hard_config_cpp_1a7f66ee24LL_APB2_GRP1_EnableClockEj
    hard_config.o(.data) refers to hard_config.o(i._ZN37_INTERNAL_15_hard_config_cpp_1a7f66ee24LL_APB2_GRP1_EnableClockEj) for [local to hard_config_cpp]::LL_APB2_GRP1_EnableClock(unsigned)
    hard_config.o(.data) refers to hard_config.o(i._ZN37_INTERNAL_15_hard_config_cpp_1a7f66ee24LL_AHB2_GRP1_EnableClockEj) for [local to hard_config_cpp]::LL_AHB2_GRP1_EnableClock(unsigned)
    hard_config.o(.data) refers to hard_config.o(i._ZN37_INTERNAL_15_hard_config_cpp_1a7f66ee24LL_APB1_GRP1_EnableClockEj) for [local to hard_config_cpp]::LL_APB1_GRP1_EnableClock(unsigned)
    dev_determ.o(i.TIM7_IRQHandler) refers to dev_determ.o(.data) for TDevDeterm::TmrTrig
    dev_determ.o(i._ZN10TDevDeterm6is_devEv) refers to dev_determ.o(.constdata) for .constdata
    dev_determ.o(i._ZN10TDevDeterm6is_devEv) refers to dev_determ.o(.data) for TDevDeterm::TmrTrig
    dev_determ.o(i._ZN10TDevDeterm6is_devEv) refers to model.o(.bss) for Model
    dev_determ.o(i._ZN10TDevDeterm8init_tmrEv) refers to stm32l4xx_ll_rcc.o(i.LL_RCC_GetSystemClocksFreq) for LL_RCC_GetSystemClocksFreq
    dev_determ.o(i._ZN10TDevDeterm8init_tmrEv) refers to stm32l4xx_ll_tim.o(i.LL_TIM_Init) for LL_TIM_Init
    dev_determ.o(i._ZN10TDevDeterm8init_tmrEv) refers to dev_determ.o(i._ZN36_INTERNAL_14_dev_determ_cpp_339485bd23LL_TIM_ClearFlag_UPDATEEP11TIM_TypeDef) for [local to dev_determ_cpp]::LL_TIM_ClearFlag_UPDATE(TIM_TypeDef*)
    dev_determ.o(i._ZN10TDevDetermC1ERK4TPinP11TIM_TypeDef) refers to stm32l4xx_ll_gpio.o(i.LL_GPIO_Init) for LL_GPIO_Init
    dev_determ.o(i.__sti___14_dev_determ_cpp_339485bd) refers to dev_determ.o(i._ZN10TDevDetermC1ERK4TPinP11TIM_TypeDef) for TDevDeterm::TDevDeterm(const TPin&, TIM_TypeDef*)
    dev_determ.o(i.__sti___14_dev_determ_cpp_339485bd) refers to aeabi_atexit.o(.text) for __aeabi_atexit
    dev_determ.o(i.__sti___14_dev_determ_cpp_339485bd) refers to hard_config.o(.data) for DevDetect_HW
    dev_determ.o(i.__sti___14_dev_determ_cpp_339485bd) refers to dev_determ.o(.bss) for DevDeterm
    dev_determ.o(i.__sti___14_dev_determ_cpp_339485bd) refers to dev_determ.o(i._ZN10TDevDetermD1Ev) for TDevDeterm::~TDevDeterm()
    dev_determ.o(.ARM.exidx) refers to dev_determ.o(i.TIM7_IRQHandler) for i.TIM7_IRQHandler
    dev_determ.o(.ARM.exidx) refers to dev_determ.o(i._ZN10TDevDetermC1ERK4TPinP11TIM_TypeDef) for i._ZN10TDevDetermC1ERK4TPinP11TIM_TypeDef
    dev_determ.o(.ARM.exidx) refers to dev_determ.o(i._ZN10TDevDetermD1Ev) for i._ZN10TDevDetermD1Ev
    dev_determ.o(.ARM.exidx) refers to dev_determ.o(i._ZN10TDevDeterm8init_tmrEv) for i._ZN10TDevDeterm8init_tmrEv
    dev_determ.o(.ARM.exidx) refers to dev_determ.o(i._ZN10TDevDeterm6is_devEv) for i._ZN10TDevDeterm6is_devEv
    dev_determ.o(.ARM.exidx) refers to dev_determ.o(i.__sti___14_dev_determ_cpp_339485bd) for i.__sti___14_dev_determ_cpp_339485bd
    dev_determ.o(.ARM.exidx) refers to dev_determ.o(i._ZN36_INTERNAL_14_dev_determ_cpp_339485bd23LL_TIM_ClearFlag_UPDATEEP11TIM_TypeDef) for i._ZN36_INTERNAL_14_dev_determ_cpp_339485bd23LL_TIM_ClearFlag_UPDATEEP11TIM_TypeDef
    dev_determ.o(.init_array) refers to dev_determ.o(i.__sti___14_dev_determ_cpp_339485bd) for __sti___14_dev_determ_cpp_339485bd
    dev_determ.o(.init_array) refers to cpp_init.o(.text) for __cpp_initialize__aeabi_
    model.o(i._ZN6TModel10get_accessEv) refers to queue.o(i.xQueueGenericReceive) for xQueueGenericReceive
    model.o(i._ZN6TModel10get_accessEv) refers to queue.o(i.xQueueGenericSend) for xQueueGenericSend
    model.o(i._ZN6TModel10set_accessEN9TSettings7TAccessE) refers to queue.o(i.xQueueGenericReceive) for xQueueGenericReceive
    model.o(i._ZN6TModel10set_accessEN9TSettings7TAccessE) refers to queue.o(i.xQueueGenericSend) for xQueueGenericSend
    model.o(i._ZN6TModel11get_accel_zEv) refers to model.o(t._ZN6TModel11access_protIfU8__packedfEEvRT_RKT0_) for _ZN6TModel11access_protIfU8__packedfEEvRT_RKT0_
    model.o(i._ZN6TModel11get_code_swEv) refers to model.o(t._ZN6TModel11access_protIhU8__packedhEEvRT_RKT0_) for _ZN6TModel11access_protIhU8__packedhEEvRT_RKT0_
    model.o(i._ZN6TModel11get_connectEv) refers to model.o(t._ZN6TModel11access_protIN9TSettings6TStateES2_EEvRT_RKT0_) for void TModel::access_prot<TSettings::TState, TSettings::TState>(T1&, const T2&)
    model.o(i._ZN6TModel11get_hc_memsEv) refers to model.o(t._ZN6TModel11access_protIN9TSettings6TStateES2_EEvRT_RKT0_) for void TModel::access_prot<TSettings::TState, TSettings::TState>(T1&, const T2&)
    model.o(i._ZN6TModel11get_if_setsER3TIf) refers to model.o(t._ZN6TModel11access_protI3TIfS1_EEvRT_RKT0_) for void TModel::access_prot<TIf, TIf>(T1&, const T2&)
    model.o(i._ZN6TModel11get_mb_addrEv) refers to model.o(t._ZN6TModel11access_protIhU8__packedhEEvRT_RKT0_) for _ZN6TModel11access_protIhU8__packedhEEvRT_RKT0_
    model.o(i._ZN6TModel11set_accel_zEf) refers to model.o(t._ZN6TModel11access_protIU8__packedffEEvRT_RKT0_) for _ZN6TModel11access_protIU8__packedffEEvRT_RKT0_
    model.o(i._ZN6TModel11set_code_swEh) refers to model.o(t._ZN6TModel11access_protIU8__packedhhEEvRT_RKT0_) for _ZN6TModel11access_protIU8__packedhhEEvRT_RKT0_
    model.o(i._ZN6TModel11set_connectEN9TSettings8TConnectE) refers to model.o(t._ZN6TModel11access_protIN9TSettings6TStateES2_EEvRT_RKT0_) for void TModel::access_prot<TSettings::TState, TSettings::TState>(T1&, const T2&)
    model.o(i._ZN6TModel11set_hc_memsEN9TSettings10TMainStateE) refers to model.o(t._ZN6TModel11access_protIN9TSettings6TStateES2_EEvRT_RKT0_) for void TModel::access_prot<TSettings::TState, TSettings::TState>(T1&, const T2&)
    model.o(i._ZN6TModel11set_if_setsERK3TIf) refers to model.o(t._ZN6TModel11access_protI3TIfS1_EEvRT_RKT0_) for void TModel::access_prot<TIf, TIf>(T1&, const T2&)
    model.o(i._ZN6TModel11set_if_setsERK3TIf) refers to model.o(i._ZN6TModel14set_flash_dataEv) for TModel::set_flash_data()
    model.o(i._ZN6TModel11set_mb_addrEs) refers to settings.o(i._ZNK9TSettings11chk_mb_addrEs) for TSettings::chk_mb_addr(short) const
    model.o(i._ZN6TModel11set_mb_addrEs) refers to model.o(i._ZN6TModel11get_mb_addrEv) for TModel::get_mb_addr()
    model.o(i._ZN6TModel11set_mb_addrEs) refers to queue.o(i.xQueueGenericReceive) for xQueueGenericReceive
    model.o(i._ZN6TModel11set_mb_addrEs) refers to queue.o(i.xQueueGenericSend) for xQueueGenericSend
    model.o(i._ZN6TModel11set_mb_addrEs) refers to model.o(i._ZN6TModel14set_flash_dataEv) for TModel::set_flash_data()
    model.o(i._ZN6TModel12get_btn_modeEv) refers to queue.o(i.xQueueGenericReceive) for xQueueGenericReceive
    model.o(i._ZN6TModel12get_btn_modeEv) refers to queue.o(i.xQueueGenericSend) for xQueueGenericSend
    model.o(i._ZN6TModel12get_d_o_setsEv) refers to model.o(t._ZN6TModel11access_protI5TBitsS1_EEvRT_RKT0_) for void TModel::access_prot<TBits, TBits>(T1&, const T2&)
    model.o(i._ZN6TModel12get_dev_typeEv) refers to queue.o(i.xQueueGenericReceive) for xQueueGenericReceive
    model.o(i._ZN6TModel12get_dev_typeEv) refers to queue.o(i.xQueueGenericSend) for xQueueGenericSend
    model.o(i._ZN6TModel12get_hc_stateEv) refers to model.o(t._ZN6TModel11access_protIN9TSettings6TStateES2_EEvRT_RKT0_) for void TModel::access_prot<TSettings::TState, TSettings::TState>(T1&, const T2&)
    model.o(i._ZN6TModel12get_led_modeEv) refers to queue.o(i.xQueueGenericReceive) for xQueueGenericReceive
    model.o(i._ZN6TModel12get_led_modeEv) refers to queue.o(i.xQueueGenericSend) for xQueueGenericSend
    model.o(i._ZN6TModel12get_my_angleEv) refers to model.o(t._ZN6TModel11access_protIsU8__packedsEEvRT_RKT0_) for _ZN6TModel11access_protIsU8__packedsEEvRT_RKT0_
    model.o(i._ZN6TModel12get_raw_rollEv) refers to model.o(t._ZN6TModel11access_protIaU8__packedaEEvRT_RKT0_) for _ZN6TModel11access_protIaU8__packedaEEvRT_RKT0_
    model.o(i._ZN6TModel12set_btn_modeEN9TSettings6TPressE) refers to queue.o(i.xQueueGenericReceive) for xQueueGenericReceive
    model.o(i._ZN6TModel12set_btn_modeEN9TSettings6TPressE) refers to queue.o(i.xQueueGenericSend) for xQueueGenericSend
    model.o(i._ZN6TModel12set_d_o_setsE8TContact) refers to model.o(t._ZN6TModel11access_protI5TBitsS1_EEvRT_RKT0_) for void TModel::access_prot<TBits, TBits>(T1&, const T2&)
    model.o(i._ZN6TModel12set_d_o_setsE8TContact) refers to model.o(i._ZN6TModel14set_flash_dataEv) for TModel::set_flash_data()
    model.o(i._ZN6TModel12set_hc_stateEN9TSettings3THCE) refers to model.o(t._ZN6TModel11access_protIN9TSettings6TStateES2_EEvRT_RKT0_) for void TModel::access_prot<TSettings::TState, TSettings::TState>(T1&, const T2&)
    model.o(i._ZN6TModel12set_led_modeEN9TSettings8TLedModeE) refers to queue.o(i.xQueueGenericReceive) for xQueueGenericReceive
    model.o(i._ZN6TModel12set_led_modeEN9TSettings8TLedModeE) refers to queue.o(i.xQueueGenericSend) for xQueueGenericSend
    model.o(i._ZN6TModel12set_my_angleEs) refers to model.o(t._ZN6TModel11access_protIU8__packedssEEvRT_RKT0_) for _ZN6TModel11access_protIU8__packedssEEvRT_RKT0_
    model.o(i._ZN6TModel12set_raw_rollEa) refers to model.o(t._ZN6TModel11access_protIU8__packedaaEEvRT_RKT0_) for _ZN6TModel11access_protIU8__packedaaEEvRT_RKT0_
    model.o(i._ZN6TModel13get_acc_calibEv) refers to model.o(i._ZN6TModel20get_accel_calib_signEv) for TModel::get_accel_calib_sign()
    model.o(i._ZN6TModel13get_acc_calibEv) refers to model.o(i._ZN6TModel13set_acc_calibEN9TSettings6TCalibE) for TModel::set_acc_calib(TSettings::TCalib)
    model.o(i._ZN6TModel13get_base_memsEv) refers to model.o(t._ZN6TModel11access_protIN9TSettings6TStateES2_EEvRT_RKT0_) for void TModel::access_prot<TSettings::TState, TSettings::TState>(T1&, const T2&)
    model.o(i._ZN6TModel13get_dev_stateEv) refers to model.o(t._ZN6TModel11access_protIN9TSettings6TStateES2_EEvRT_RKT0_) for void TModel::access_prot<TSettings::TState, TSettings::TState>(T1&, const T2&)
    model.o(i._ZN6TModel13get_interconnEv) refers to model.o(t._ZN6TModel11access_protI5TBitsS1_EEvRT_RKT0_) for void TModel::access_prot<TBits, TBits>(T1&, const T2&)
    model.o(i._ZN6TModel13get_psw_adminEv) refers to model.o(t._ZN6TModel11access_protIfU8__packedfEEvRT_RKT0_) for _ZN6TModel11access_protIfU8__packedfEEvRT_RKT0_
    model.o(i._ZN6TModel13get_psw_superEv) refers to model.o(t._ZN6TModel11access_protIfU8__packedfEEvRT_RKT0_) for _ZN6TModel11access_protIfU8__packedfEEvRT_RKT0_
    model.o(i._ZN6TModel13get_raw_pitchEv) refers to model.o(t._ZN6TModel11access_protIaU8__packedaEEvRT_RKT0_) for _ZN6TModel11access_protIaU8__packedaEEvRT_RKT0_
    model.o(i._ZN6TModel13get_sens_addrEv) refers to model.o(t._ZN6TModel11access_protIhU8__packedhEEvRT_RKT0_) for _ZN6TModel11access_protIhU8__packedhEEvRT_RKT0_
    model.o(i._ZN6TModel13handler_calibEsPb) refers to model.o(i._ZN6TModel17get_calib_processEv) for TModel::get_calib_process()
    model.o(i._ZN6TModel13handler_calibEsPb) refers to model.o(i._ZN6TModel10get_accessEv) for TModel::get_access()
    model.o(i._ZN6TModel13handler_calibEsPb) refers to model.o(i._ZN6TModel17set_calib_processEN9TSettings13TCalibProcessE) for TModel::set_calib_process(TSettings::TCalibProcess)
    model.o(i._ZN6TModel13handler_calibEsPb) refers to queue.o(i.xQueueGenericSend) for xQueueGenericSend
    model.o(i._ZN6TModel13set_acc_calibEN9TSettings6TCalibE) refers to model.o(t._ZN6TModel11access_protIN9TSettings6TStateES2_EEvRT_RKT0_) for void TModel::access_prot<TSettings::TState, TSettings::TState>(T1&, const T2&)
    model.o(i._ZN6TModel13set_base_memsEN9TSettings10TMainStateE) refers to model.o(t._ZN6TModel11access_protIN9TSettings6TStateES2_EEvRT_RKT0_) for void TModel::access_prot<TSettings::TState, TSettings::TState>(T1&, const T2&)
    model.o(i._ZN6TModel13set_calib_cmdEt) refers to memcpya.o(.text) for __aeabi_memcpy4
    model.o(i._ZN6TModel13set_calib_cmdEt) refers to model.o(i._ZN6TModel17set_calib_processEN9TSettings13TCalibProcessE) for TModel::set_calib_process(TSettings::TCalibProcess)
    model.o(i._ZN6TModel13set_calib_cmdEt) refers to model.o(.constdata) for .constdata
    model.o(i._ZN6TModel13set_interconnE10TInterconn) refers to model.o(t._ZN6TModel11access_protI5TBitsS1_EEvRT_RKT0_) for void TModel::access_prot<TBits, TBits>(T1&, const T2&)
    model.o(i._ZN6TModel13set_interconnE10TInterconn) refers to model.o(i._ZN6TModel14set_flash_dataEv) for TModel::set_flash_data()
    model.o(i._ZN6TModel13set_psw_adminEf) refers to model.o(i._ZN6TModel13get_psw_adminEv) for TModel::get_psw_admin()
    model.o(i._ZN6TModel13set_psw_adminEf) refers to model.o(t._ZN6TModel11access_protIU8__packedffEEvRT_RKT0_) for _ZN6TModel11access_protIU8__packedffEEvRT_RKT0_
    model.o(i._ZN6TModel13set_psw_adminEf) refers to model.o(i._ZN6TModel14set_flash_dataEv) for TModel::set_flash_data()
    model.o(i._ZN6TModel13set_psw_superEf) refers to model.o(i._ZN6TModel13get_psw_superEv) for TModel::get_psw_super()
    model.o(i._ZN6TModel13set_psw_superEf) refers to model.o(t._ZN6TModel11access_protIU8__packedffEEvRT_RKT0_) for _ZN6TModel11access_protIU8__packedffEEvRT_RKT0_
    model.o(i._ZN6TModel13set_psw_superEf) refers to model.o(i._ZN6TModel14set_flash_dataEv) for TModel::set_flash_data()
    model.o(i._ZN6TModel13set_raw_pitchEa) refers to model.o(t._ZN6TModel11access_protIU8__packedaaEEvRT_RKT0_) for _ZN6TModel11access_protIU8__packedaaEEvRT_RKT0_
    model.o(i._ZN6TModel13set_sens_addrERKh) refers to model.o(t._ZN6TModel11access_protIU8__packedhhEEvRT_RKT0_) for _ZN6TModel11access_protIU8__packedhhEEvRT_RKT0_
    model.o(i._ZN6TModel13set_sens_addrERKh) refers to model.o(i._ZN6TModel14set_flash_dataEv) for TModel::set_flash_data()
    model.o(i._ZN6TModel14get_flash_dataERN9TSettings10TFlashDataE) refers to model.o(t._ZN6TModel11access_protIN9TSettings10TFlashDataES2_EEvRT_RKT0_) for void TModel::access_prot<TSettings::TFlashData, TSettings::TFlashData>(T1&, const T2&)
    model.o(i._ZN6TModel14get_hc_code_swEv) refers to model.o(t._ZN6TModel11access_protIhU8__packedhEEvRT_RKT0_) for _ZN6TModel11access_protIhU8__packedhEEvRT_RKT0_
    model.o(i._ZN6TModel14get_hc_pos_errEv) refers to model.o(t._ZN6TModel11access_protIN9TSettings6TStateES2_EEvRT_RKT0_) for void TModel::access_prot<TSettings::TState, TSettings::TState>(T1&, const T2&)
    model.o(i._ZN6TModel14get_open_angleEv) refers to model.o(t._ZN6TModel11access_protIfU8__packedfEEvRT_RKT0_) for _ZN6TModel11access_protIfU8__packedfEEvRT_RKT0_
    model.o(i._ZN6TModel14get_sens_angleEv) refers to model.o(t._ZN6TModel11access_protIsU8__packedsEEvRT_RKT0_) for _ZN6TModel11access_protIsU8__packedsEEvRT_RKT0_
    model.o(i._ZN6TModel14handler_accessEsPb) refers to model.o(i._ZN6TModel22set_authorize_item_ptrEPKNS_10TAuthorizeE) for TModel::set_authorize_item_ptr(const TModel::TAuthorize*)
    model.o(i._ZN6TModel14handler_accessEsPb) refers to model.o(i._ZN6TModel17set_calib_processEN9TSettings13TCalibProcessE) for TModel::set_calib_process(TSettings::TCalibProcess)
    model.o(i._ZN6TModel14handler_accessEsPb) refers to model.o(i._ZN6TModel10set_accessEN9TSettings7TAccessE) for TModel::set_access(TSettings::TAccess)
    model.o(i._ZN6TModel14set_flash_dataEv) refers to model.o(t._ZN6TModel11access_protIN9TSettings10TFlashDataES2_EEvRT_RKT0_) for void TModel::access_prot<TSettings::TFlashData, TSettings::TFlashData>(T1&, const T2&)
    model.o(i._ZN6TModel14set_flash_dataEv) refers to flash_driver.o(i._ZN6TFlash10write_setsEPKht) for TFlash::write_sets(const unsigned char*, unsigned short)
    model.o(i._ZN6TModel14set_flash_dataEv) refers to flash_driver.o(.data) for Flash
    model.o(i._ZN6TModel14set_hc_code_swEh) refers to model.o(t._ZN6TModel11access_protIU8__packedhhEEvRT_RKT0_) for _ZN6TModel11access_protIU8__packedhhEEvRT_RKT0_
    model.o(i._ZN6TModel14set_hc_pos_errEN9TSettings7TPosErrE) refers to model.o(t._ZN6TModel11access_protIN9TSettings6TStateES2_EEvRT_RKT0_) for void TModel::access_prot<TSettings::TState, TSettings::TState>(T1&, const T2&)
    model.o(i._ZN6TModel14set_open_angleEf) refers to model.o(t._ZN6TModel11access_protIU8__packedffEEvRT_RKT0_) for _ZN6TModel11access_protIU8__packedffEEvRT_RKT0_
    model.o(i._ZN6TModel14set_sens_angleEs) refers to model.o(t._ZN6TModel11access_protIU8__packedssEEvRT_RKT0_) for _ZN6TModel11access_protIU8__packedssEEvRT_RKT0_
    model.o(i._ZN6TModel15get_axis_rotateEv) refers to model.o(t._ZN6TModel11access_protIhU8__packedhEEvRT_RKT0_) for _ZN6TModel11access_protIhU8__packedhEEvRT_RKT0_
    model.o(i._ZN6TModel15get_hc_prog_nbrEv) refers to queue.o(i.xQueueGenericReceive) for xQueueGenericReceive
    model.o(i._ZN6TModel15get_hc_prog_nbrEv) refers to queue.o(i.xQueueGenericSend) for xQueueGenericSend
    model.o(i._ZN6TModel15get_pd_pressureEv) refers to model.o(t._ZN6TModel11access_protIfU8__packedfEEvRT_RKT0_) for _ZN6TModel11access_protIfU8__packedfEEvRT_RKT0_
    model.o(i._ZN6TModel15get_u_baud_rateEv) refers to model.o(t._ZN6TModel11access_protIhU8__packedhEEvRT_RKT0_) for _ZN6TModel11access_protIhU8__packedhEEvRT_RKT0_
    model.o(i._ZN6TModel15set_axis_rotateEh) refers to settings.o(i._ZNK9TSettings15chk_axis_rotateEs) for TSettings::chk_axis_rotate(short) const
    model.o(i._ZN6TModel15set_axis_rotateEh) refers to model.o(i._ZN6TModel15get_axis_rotateEv) for TModel::get_axis_rotate()
    model.o(i._ZN6TModel15set_axis_rotateEh) refers to model.o(t._ZN6TModel11access_protIU8__packedhhEEvRT_RKT0_) for _ZN6TModel11access_protIU8__packedhhEEvRT_RKT0_
    model.o(i._ZN6TModel15set_axis_rotateEh) refers to model.o(i._ZN6TModel14set_flash_dataEv) for TModel::set_flash_data()
    model.o(i._ZN6TModel15set_hc_prog_nbrEt) refers to queue.o(i.xQueueGenericReceive) for xQueueGenericReceive
    model.o(i._ZN6TModel15set_hc_prog_nbrEt) refers to queue.o(i.xQueueGenericSend) for xQueueGenericSend
    model.o(i._ZN6TModel15set_pd_pressureEf) refers to model.o(i._ZN6TModel13get_psw_adminEv) for TModel::get_psw_admin()
    model.o(i._ZN6TModel15set_pd_pressureEf) refers to model.o(t._ZN6TModel11access_protIU8__packedffEEvRT_RKT0_) for _ZN6TModel11access_protIU8__packedffEEvRT_RKT0_
    model.o(i._ZN6TModel15set_pd_pressureEf) refers to model.o(i._ZN6TModel14set_flash_dataEv) for TModel::set_flash_data()
    model.o(i._ZN6TModel15set_u_baud_rateEh) refers to settings.o(i._ZNK9TSettings15chk_u_baud_rateEs) for TSettings::chk_u_baud_rate(short) const
    model.o(i._ZN6TModel15set_u_baud_rateEh) refers to model.o(i._ZN6TModel15get_u_baud_rateEv) for TModel::get_u_baud_rate()
    model.o(i._ZN6TModel15set_u_baud_rateEh) refers to model.o(t._ZN6TModel11access_protIU8__packedhhEEvRT_RKT0_) for _ZN6TModel11access_protIU8__packedhhEEvRT_RKT0_
    model.o(i._ZN6TModel15set_u_baud_rateEh) refers to model.o(i._ZN6TModel14set_flash_dataEv) for TModel::set_flash_data()
    model.o(i._ZN6TModel16get_base_pos_errEv) refers to model.o(t._ZN6TModel11access_protIN9TSettings6TStateES2_EEvRT_RKT0_) for void TModel::access_prot<TSettings::TState, TSettings::TState>(T1&, const T2&)
    model.o(i._ZN6TModel16get_hc_acc_calibEv) refers to model.o(t._ZN6TModel11access_protIN9TSettings6TStateES2_EEvRT_RKT0_) for void TModel::access_prot<TSettings::TState, TSettings::TState>(T1&, const T2&)
    model.o(i._ZN6TModel16set_base_pos_errEN9TSettings7TPosErrE) refers to model.o(t._ZN6TModel11access_protIN9TSettings6TStateES2_EEvRT_RKT0_) for void TModel::access_prot<TSettings::TState, TSettings::TState>(T1&, const T2&)
    model.o(i._ZN6TModel16set_hc_acc_calibEN9TSettings6TCalibE) refers to model.o(t._ZN6TModel11access_protIN9TSettings6TStateES2_EEvRT_RKT0_) for void TModel::access_prot<TSettings::TState, TSettings::TState>(T1&, const T2&)
    model.o(i._ZN6TModel17get_calib_processEv) refers to queue.o(i.xQueueGenericReceive) for xQueueGenericReceive
    model.o(i._ZN6TModel17get_calib_processEv) refers to queue.o(i.xQueueGenericSend) for xQueueGenericSend
    model.o(i._ZN6TModel17get_transact_signERh) refers to model.o(t._ZN6TModel11access_protIhU8__packedhEEvRT_RKT0_) for _ZN6TModel11access_protIhU8__packedhEEvRT_RKT0_
    model.o(i._ZN6TModel17set_calib_processEN9TSettings13TCalibProcessE) refers to queue.o(i.xQueueGenericReceive) for xQueueGenericReceive
    model.o(i._ZN6TModel17set_calib_processEN9TSettings13TCalibProcessE) refers to queue.o(i.xQueueGenericSend) for xQueueGenericSend
    model.o(i._ZN6TModel17set_transact_signERKh) refers to model.o(t._ZN6TModel11access_protIU8__packedhhEEvRT_RKT0_) for _ZN6TModel11access_protIU8__packedhhEEvRT_RKT0_
    model.o(i._ZN6TModel18get_start_meas_cmdEv) refers to model.o(i._ZN6TModel20get_communicate_byteEv) for TModel::get_communicate_byte()
    model.o(i._ZN6TModel18set_start_meas_cmdEN9TSettings5TMeasE) refers to model.o(i._ZN6TModel20get_communicate_byteEv) for TModel::get_communicate_byte()
    model.o(i._ZN6TModel18set_start_meas_cmdEN9TSettings5TMeasE) refers to model.o(t._ZN6TModel11access_protIN9TSettings12TCommunicateES2_EEvRT_RKT0_) for void TModel::access_prot<TSettings::TCommunicate, TSettings::TCommunicate>(T1&, const T2&)
    model.o(i._ZN6TModel19get_calib_parameterEv) refers to model.o(t._ZN6TModel11access_protIfU8__packedfEEvRT_RKT0_) for _ZN6TModel11access_protIfU8__packedfEEvRT_RKT0_
    model.o(i._ZN6TModel19get_flash_prog_signEv) refers to queue.o(i.xQueueGenericReceive) for xQueueGenericReceive
    model.o(i._ZN6TModel19get_flash_prog_signEv) refers to queue.o(i.xQueueGenericSend) for xQueueGenericSend
    model.o(i._ZN6TModel19get_roll_bias_angleEv) refers to model.o(t._ZN6TModel11access_protIaU8__packedaEEvRT_RKT0_) for _ZN6TModel11access_protIaU8__packedaEEvRT_RKT0_
    model.o(i._ZN6TModel19set_calib_parameterEf) refers to model.o(t._ZN6TModel11access_protIU8__packedffEEvRT_RKT0_) for _ZN6TModel11access_protIU8__packedffEEvRT_RKT0_
    model.o(i._ZN6TModel19set_flash_prog_signERKN9TSettings12TIsFlashProgE) refers to queue.o(i.xQueueGenericReceive) for xQueueGenericReceive
    model.o(i._ZN6TModel19set_flash_prog_signERKN9TSettings12TIsFlashProgE) refers to queue.o(i.xQueueGenericSend) for xQueueGenericSend
    model.o(i._ZN6TModel19set_flash_prog_signERKN9TSettings12TIsFlashProgE) refers to model.o(i._ZN6TModel14set_flash_dataEv) for TModel::set_flash_data()
    model.o(i._ZN6TModel19set_roll_bias_angleEa) refers to settings.o(i._ZNK9TSettings19chk_roll_bias_angleEs) for TSettings::chk_roll_bias_angle(short) const
    model.o(i._ZN6TModel19set_roll_bias_angleEa) refers to model.o(i._ZN6TModel19get_roll_bias_angleEv) for TModel::get_roll_bias_angle()
    model.o(i._ZN6TModel19set_roll_bias_angleEa) refers to model.o(t._ZN6TModel11access_protIU8__packedaaEEvRT_RKT0_) for _ZN6TModel11access_protIU8__packedaaEEvRT_RKT0_
    model.o(i._ZN6TModel19set_roll_bias_angleEa) refers to model.o(i._ZN6TModel14set_flash_dataEv) for TModel::set_flash_data()
    model.o(i._ZN6TModel20get_accel_calib_dataERN9TSettings11TAccCalDataE) refers to model.o(t._ZN6TModel11access_protIN9TSettings11TAccCalDataES2_EEvRT_RKT0_) for void TModel::access_prot<TSettings::TAccCalData, TSettings::TAccCalData>(T1&, const T2&)
    model.o(i._ZN6TModel20get_accel_calib_signEv) refers to queue.o(i.xQueueGenericReceive) for xQueueGenericReceive
    model.o(i._ZN6TModel20get_accel_calib_signEv) refers to queue.o(i.xQueueGenericSend) for xQueueGenericSend
    model.o(i._ZN6TModel20get_communicate_byteEv) refers to model.o(t._ZN6TModel11access_protIN9TSettings12TCommunicateES2_EEvRT_RKT0_) for void TModel::access_prot<TSettings::TCommunicate, TSettings::TCommunicate>(T1&, const T2&)
    model.o(i._ZN6TModel20get_pitch_bias_angleEv) refers to model.o(t._ZN6TModel11access_protIaU8__packedaEEvRT_RKT0_) for _ZN6TModel11access_protIaU8__packedaEEvRT_RKT0_
    model.o(i._ZN6TModel20get_sens_axis_rotateEv) refers to model.o(t._ZN6TModel11access_protIhU8__packedhEEvRT_RKT0_) for _ZN6TModel11access_protIhU8__packedhEEvRT_RKT0_
    model.o(i._ZN6TModel20set_accel_calib_dataERKN9TSettings11TAccCalDataE) refers to model.o(t._ZN6TModel11access_protIN9TSettings11TAccCalDataES2_EEvRT_RKT0_) for void TModel::access_prot<TSettings::TAccCalData, TSettings::TAccCalData>(T1&, const T2&)
    model.o(i._ZN6TModel20set_accel_calib_dataERKN9TSettings11TAccCalDataE) refers to model.o(i._ZN6TModel14set_flash_dataEv) for TModel::set_flash_data()
    model.o(i._ZN6TModel20set_accel_calib_signERKN9TSettings11TIsAccCalibE) refers to queue.o(i.xQueueGenericReceive) for xQueueGenericReceive
    model.o(i._ZN6TModel20set_accel_calib_signERKN9TSettings11TIsAccCalibE) refers to queue.o(i.xQueueGenericSend) for xQueueGenericSend
    model.o(i._ZN6TModel20set_accel_calib_signERKN9TSettings11TIsAccCalibE) refers to model.o(i._ZN6TModel14set_flash_dataEv) for TModel::set_flash_data()
    model.o(i._ZN6TModel20set_communicate_byteEN9TSettings12TCommunicateE) refers to model.o(t._ZN6TModel11access_protIN9TSettings12TCommunicateES2_EEvRT_RKT0_) for void TModel::access_prot<TSettings::TCommunicate, TSettings::TCommunicate>(T1&, const T2&)
    model.o(i._ZN6TModel20set_pitch_bias_angleEa) refers to settings.o(i._ZNK9TSettings20chk_pitch_bias_angleEs) for TSettings::chk_pitch_bias_angle(short) const
    model.o(i._ZN6TModel20set_pitch_bias_angleEa) refers to model.o(i._ZN6TModel20get_pitch_bias_angleEv) for TModel::get_pitch_bias_angle()
    model.o(i._ZN6TModel20set_pitch_bias_angleEa) refers to model.o(t._ZN6TModel11access_protIU8__packedaaEEvRT_RKT0_) for _ZN6TModel11access_protIU8__packedaaEEvRT_RKT0_
    model.o(i._ZN6TModel20set_pitch_bias_angleEa) refers to model.o(i._ZN6TModel14set_flash_dataEv) for TModel::set_flash_data()
    model.o(i._ZN6TModel20set_sens_axis_rotateEh) refers to settings.o(i._ZNK9TSettings15chk_axis_rotateEs) for TSettings::chk_axis_rotate(short) const
    model.o(i._ZN6TModel20set_sens_axis_rotateEh) refers to model.o(i._ZN6TModel20get_sens_axis_rotateEv) for TModel::get_sens_axis_rotate()
    model.o(i._ZN6TModel20set_sens_axis_rotateEh) refers to model.o(t._ZN6TModel11access_protIU8__packedhhEEvRT_RKT0_) for _ZN6TModel11access_protIU8__packedhhEEvRT_RKT0_
    model.o(i._ZN6TModel20set_sens_axis_rotateEh) refers to model.o(i._ZN6TModel14set_flash_dataEv) for TModel::set_flash_data()
    model.o(i._ZN6TModel21get_sample_valid_signEv) refers to model.o(i._ZN6TModel20get_communicate_byteEv) for TModel::get_communicate_byte()
    model.o(i._ZN6TModel21set_sample_valid_signEN9TSettings10TValidSignE) refers to model.o(i._ZN6TModel20get_communicate_byteEv) for TModel::get_communicate_byte()
    model.o(i._ZN6TModel21set_sample_valid_signEN9TSettings10TValidSignE) refers to model.o(t._ZN6TModel11access_protIN9TSettings12TCommunicateES2_EEvRT_RKT0_) for void TModel::access_prot<TSettings::TCommunicate, TSettings::TCommunicate>(T1&, const T2&)
    model.o(i._ZN6TModel22clr_calib_position_ctrENS_11TMemsOrientE) refers to model.o(i._ZN6TModel22get_calib_position_ctrEv) for TModel::get_calib_position_ctr()
    model.o(i._ZN6TModel22clr_calib_position_ctrENS_11TMemsOrientE) refers to model.o(t._ZN6TModel11access_protIU8__packedjjEEvRT_RKT0_) for _ZN6TModel11access_protIU8__packedjjEEvRT_RKT0_
    model.o(i._ZN6TModel22get_calib_position_ctrEv) refers to queue.o(i.xQueueGenericReceive) for xQueueGenericReceive
    model.o(i._ZN6TModel22get_calib_position_ctrEv) refers to queue.o(i.xQueueGenericSend) for xQueueGenericSend
    model.o(i._ZN6TModel22set_calib_position_ctrENS_11TMemsOrientE) refers to model.o(t._ZN6TModel11access_protIU8__packedjjEEvRT_RKT0_) for _ZN6TModel11access_protIU8__packedjjEEvRT_RKT0_
    model.o(i._ZN6TModel22set_calib_position_ctrENS_11TMemsOrientE) refers to model.o(i._ZN6TModel22get_calib_position_ctrEv) for TModel::get_calib_position_ctr()
    model.o(i._ZN6TModel24get_sens_buf_axis_rotateEv) refers to model.o(t._ZN6TModel11access_protIhU8__packedhEEvRT_RKT0_) for _ZN6TModel11access_protIhU8__packedhEEvRT_RKT0_
    model.o(i._ZN6TModel24get_sens_roll_bias_angleEv) refers to model.o(t._ZN6TModel11access_protIaU8__packedaEEvRT_RKT0_) for _ZN6TModel11access_protIaU8__packedaEEvRT_RKT0_
    model.o(i._ZN6TModel24set_sens_buf_axis_rotateEh) refers to settings.o(i._ZNK9TSettings15chk_axis_rotateEs) for TSettings::chk_axis_rotate(short) const
    model.o(i._ZN6TModel24set_sens_buf_axis_rotateEh) refers to model.o(t._ZN6TModel11access_protIU8__packedhhEEvRT_RKT0_) for _ZN6TModel11access_protIU8__packedhhEEvRT_RKT0_
    model.o(i._ZN6TModel24set_sens_roll_bias_angleEa) refers to model.o(t._ZN6TModel11access_protIU8__packedaaEEvRT_RKT0_) for _ZN6TModel11access_protIU8__packedaaEEvRT_RKT0_
    model.o(i._ZN6TModel25get_sens_pitch_bias_angleEv) refers to model.o(t._ZN6TModel11access_protIaU8__packedaEEvRT_RKT0_) for _ZN6TModel11access_protIaU8__packedaEEvRT_RKT0_
    model.o(i._ZN6TModel25set_sens_pitch_bias_angleEa) refers to model.o(t._ZN6TModel11access_protIU8__packedaaEEvRT_RKT0_) for _ZN6TModel11access_protIU8__packedaaEEvRT_RKT0_
    model.o(i._ZN6TModel26get_sens_sample_valid_signEv) refers to queue.o(i.xQueueGenericReceive) for xQueueGenericReceive
    model.o(i._ZN6TModel26get_sens_sample_valid_signEv) refers to queue.o(i.xQueueGenericSend) for xQueueGenericSend
    model.o(i._ZN6TModel26get_u_baud_rate_bit_to_secEv) refers to model.o(t._ZN6TModel11access_protIhU8__packedhEEvRT_RKT0_) for _ZN6TModel11access_protIhU8__packedhEEvRT_RKT0_
    model.o(i._ZN6TModel26get_u_baud_rate_bit_to_secEv) refers to memcpya.o(.text) for __aeabi_memcpy4
    model.o(i._ZN6TModel26get_u_baud_rate_bit_to_secEv) refers to model.o(.constdata) for .constdata
    model.o(i._ZN6TModel26set_sens_sample_valid_signEN9TSettings10TValidSignE) refers to queue.o(i.xQueueGenericReceive) for xQueueGenericReceive
    model.o(i._ZN6TModel26set_sens_sample_valid_signEN9TSettings10TValidSignE) refers to queue.o(i.xQueueGenericSend) for xQueueGenericSend
    model.o(i._ZN6TModel7get_thrEv) refers to model.o(t._ZN6TModel11access_protIhU8__packedhEEvRT_RKT0_) for _ZN6TModel11access_protIhU8__packedhEEvRT_RKT0_
    model.o(i._ZN6TModel7set_thrEh) refers to settings.o(i._ZNK9TSettings7chk_thrEs) for TSettings::chk_thr(short) const
    model.o(i._ZN6TModel7set_thrEh) refers to model.o(i._ZN6TModel7get_thrEv) for TModel::get_thr()
    model.o(i._ZN6TModel7set_thrEh) refers to model.o(t._ZN6TModel11access_protIU8__packedhhEEvRT_RKT0_) for _ZN6TModel11access_protIU8__packedhhEEvRT_RKT0_
    model.o(i._ZN6TModel7set_thrEh) refers to model.o(i._ZN6TModel14set_flash_dataEv) for TModel::set_flash_data()
    model.o(i._ZN6TModel8get_biasEv) refers to model.o(t._ZN6TModel11access_protIaU8__packedaEEvRT_RKT0_) for _ZN6TModel11access_protIaU8__packedaEEvRT_RKT0_
    model.o(i._ZN6TModel8get_hystEv) refers to model.o(t._ZN6TModel11access_protIhU8__packedhEEvRT_RKT0_) for _ZN6TModel11access_protIhU8__packedhEEvRT_RKT0_
    model.o(i._ZN6TModel8get_setsER10MySettings) refers to model.o(t._ZN6TModel11access_protI10MySettingsS1_EEvRT_RKT0_) for void TModel::access_prot<MySettings, MySettings>(T1&, const T2&)
    model.o(i._ZN6TModel8set_biasEa) refers to settings.o(i._ZNK9TSettings8chk_biasEs) for TSettings::chk_bias(short) const
    model.o(i._ZN6TModel8set_biasEa) refers to model.o(i._ZN6TModel8get_biasEv) for TModel::get_bias()
    model.o(i._ZN6TModel8set_biasEa) refers to model.o(t._ZN6TModel11access_protIU8__packedaaEEvRT_RKT0_) for _ZN6TModel11access_protIU8__packedaaEEvRT_RKT0_
    model.o(i._ZN6TModel8set_biasEa) refers to model.o(i._ZN6TModel14set_flash_dataEv) for TModel::set_flash_data()
    model.o(i._ZN6TModel8set_hystEh) refers to settings.o(i._ZNK9TSettings8chk_hystEs) for TSettings::chk_hyst(short) const
    model.o(i._ZN6TModel8set_hystEh) refers to model.o(i._ZN6TModel8get_hystEv) for TModel::get_hyst()
    model.o(i._ZN6TModel8set_hystEh) refers to model.o(t._ZN6TModel11access_protIU8__packedhhEEvRT_RKT0_) for _ZN6TModel11access_protIU8__packedhhEEvRT_RKT0_
    model.o(i._ZN6TModel8set_hystEh) refers to model.o(i._ZN6TModel14set_flash_dataEv) for TModel::set_flash_data()
    model.o(i._ZN6TModel8set_setsERK10MySettings) refers to model.o(t._ZN6TModel11access_protI10MySettingsS1_EEvRT_RKT0_) for void TModel::access_prot<MySettings, MySettings>(T1&, const T2&)
    model.o(i._ZN6TModel8set_setsERK10MySettings) refers to model.o(i._ZN6TModel14set_flash_dataEv) for TModel::set_flash_data()
    model.o(i._ZN6TModel9get_u_parEv) refers to model.o(t._ZN6TModel11access_protIhU8__packedhEEvRT_RKT0_) for _ZN6TModel11access_protIhU8__packedhEEvRT_RKT0_
    model.o(i._ZN6TModel9set_u_parEh) refers to settings.o(i._ZNK9TSettings9chk_u_parEs) for TSettings::chk_u_par(short) const
    model.o(i._ZN6TModel9set_u_parEh) refers to model.o(i._ZN6TModel9get_u_parEv) for TModel::get_u_par()
    model.o(i._ZN6TModel9set_u_parEh) refers to model.o(t._ZN6TModel11access_protIU8__packedhhEEvRT_RKT0_) for _ZN6TModel11access_protIU8__packedhhEEvRT_RKT0_
    model.o(i._ZN6TModel9set_u_parEh) refers to model.o(i._ZN6TModel14set_flash_dataEv) for TModel::set_flash_data()
    model.o(i._ZN6TModelC1ERPv) refers to settings.o(i._ZN9TSettingsC1Ev) for TSettings::TSettings()
    model.o(i._ZN6TModelC1ERPv) refers to memcpya.o(.text) for __aeabi_memcpy4
    model.o(i._ZN6TModelC1ERPv) refers to flash_driver.o(i._ZN6TFlash8get_setsEPht) for TFlash::get_sets(unsigned char*, unsigned short)
    model.o(i._ZN6TModelC1ERPv) refers to flash_driver.o(i._ZN6TFlash10write_setsEPKht) for TFlash::write_sets(const unsigned char*, unsigned short)
    model.o(i._ZN6TModelC1ERPv) refers to model.o(.constdata) for <Data1>
    model.o(i._ZN6TModelC1ERPv) refers to flash_driver.o(.data) for Flash
    model.o(i._ZN6TModelC1ERPv) refers to sens_types.o(.constdata) for DefDSt
    model.o(i._ZN6TModelD1Ev) refers to settings.o(i._ZN9TSettingsD1Ev) for TSettings::~TSettings()
    model.o(i.__sti___9_model_cpp_Model) refers to model.o(i._ZN6TModelC1ERPv) for TModel::TModel(void*&)
    model.o(i.__sti___9_model_cpp_Model) refers to aeabi_atexit.o(.text) for __aeabi_atexit
    model.o(i.__sti___9_model_cpp_Model) refers to main.o(.data) for MainMut
    model.o(i.__sti___9_model_cpp_Model) refers to model.o(.bss) for Model
    model.o(i.__sti___9_model_cpp_Model) refers to model.o(i._ZN6TModelD1Ev) for TModel::~TModel()
    model.o(.ARM.exidx) refers to model.o(i._ZN6TModelC1ERPv) for i._ZN6TModelC1ERPv
    model.o(.ARM.exidx) refers to model.o(i._ZN6TModelD1Ev) for i._ZN6TModelD1Ev
    model.o(.ARM.exidx) refers to model.o(i._ZN6TModel12get_dev_typeEv) for i._ZN6TModel12get_dev_typeEv
    model.o(.ARM.exidx) refers to model.o(i._ZN6TModel12get_btn_modeEv) for i._ZN6TModel12get_btn_modeEv
    model.o(.ARM.exidx) refers to model.o(i._ZN6TModel12set_btn_modeEN9TSettings6TPressE) for i._ZN6TModel12set_btn_modeEN9TSettings6TPressE
    model.o(.ARM.exidx) refers to model.o(i._ZN6TModel12get_led_modeEv) for i._ZN6TModel12get_led_modeEv
    model.o(.ARM.exidx) refers to model.o(i._ZN6TModel12set_led_modeEN9TSettings8TLedModeE) for i._ZN6TModel12set_led_modeEN9TSettings8TLedModeE
    model.o(.ARM.exidx) refers to model.o(i._ZN6TModel11get_code_swEv) for i._ZN6TModel11get_code_swEv
    model.o(.ARM.exidx) refers to model.o(i._ZN6TModel11set_code_swEh) for i._ZN6TModel11set_code_swEh
    model.o(.ARM.exidx) refers to model.o(i._ZN6TModel14get_hc_code_swEv) for i._ZN6TModel14get_hc_code_swEv
    model.o(.ARM.exidx) refers to model.o(i._ZN6TModel14set_hc_code_swEh) for i._ZN6TModel14set_hc_code_swEh
    model.o(.ARM.exidx) refers to model.o(i._ZN6TModel15get_hc_prog_nbrEv) for i._ZN6TModel15get_hc_prog_nbrEv
    model.o(.ARM.exidx) refers to model.o(i._ZN6TModel15set_hc_prog_nbrEt) for i._ZN6TModel15set_hc_prog_nbrEt
    model.o(.ARM.exidx) refers to model.o(i._ZN6TModel14get_open_angleEv) for i._ZN6TModel14get_open_angleEv
    model.o(.ARM.exidx) refers to model.o(i._ZN6TModel14set_open_angleEf) for i._ZN6TModel14set_open_angleEf
    model.o(.ARM.exidx) refers to model.o(i._ZN6TModel12get_hc_stateEv) for i._ZN6TModel12get_hc_stateEv
    model.o(.ARM.exidx) refers to model.o(i._ZN6TModel12set_hc_stateEN9TSettings3THCE) for i._ZN6TModel12set_hc_stateEN9TSettings3THCE
    model.o(.ARM.exidx) refers to model.o(i._ZN6TModel14get_hc_pos_errEv) for i._ZN6TModel14get_hc_pos_errEv
    model.o(.ARM.exidx) refers to model.o(i._ZN6TModel14set_hc_pos_errEN9TSettings7TPosErrE) for i._ZN6TModel14set_hc_pos_errEN9TSettings7TPosErrE
    model.o(.ARM.exidx) refers to model.o(i._ZN6TModel16get_base_pos_errEv) for i._ZN6TModel16get_base_pos_errEv
    model.o(.ARM.exidx) refers to model.o(i._ZN6TModel16set_base_pos_errEN9TSettings7TPosErrE) for i._ZN6TModel16set_base_pos_errEN9TSettings7TPosErrE
    model.o(.ARM.exidx) refers to model.o(i._ZN6TModel11get_connectEv) for i._ZN6TModel11get_connectEv
    model.o(.ARM.exidx) refers to model.o(i._ZN6TModel11set_connectEN9TSettings8TConnectE) for i._ZN6TModel11set_connectEN9TSettings8TConnectE
    model.o(.ARM.exidx) refers to model.o(i._ZN6TModel16get_hc_acc_calibEv) for i._ZN6TModel16get_hc_acc_calibEv
    model.o(.ARM.exidx) refers to model.o(i._ZN6TModel16set_hc_acc_calibEN9TSettings6TCalibE) for i._ZN6TModel16set_hc_acc_calibEN9TSettings6TCalibE
    model.o(.ARM.exidx) refers to model.o(i._ZN6TModel13set_acc_calibEN9TSettings6TCalibE) for i._ZN6TModel13set_acc_calibEN9TSettings6TCalibE
    model.o(.ARM.exidx) refers to model.o(i._ZN6TModel20get_accel_calib_signEv) for i._ZN6TModel20get_accel_calib_signEv
    model.o(.ARM.exidx) refers to model.o(i._ZN6TModel13get_acc_calibEv) for i._ZN6TModel13get_acc_calibEv
    model.o(.ARM.exidx) refers to model.o(i._ZN6TModel11get_hc_memsEv) for i._ZN6TModel11get_hc_memsEv
    model.o(.ARM.exidx) refers to model.o(i._ZN6TModel11set_hc_memsEN9TSettings10TMainStateE) for i._ZN6TModel11set_hc_memsEN9TSettings10TMainStateE
    model.o(.ARM.exidx) refers to model.o(i._ZN6TModel13get_base_memsEv) for i._ZN6TModel13get_base_memsEv
    model.o(.ARM.exidx) refers to model.o(i._ZN6TModel13set_base_memsEN9TSettings10TMainStateE) for i._ZN6TModel13set_base_memsEN9TSettings10TMainStateE
    model.o(.ARM.exidx) refers to model.o(i._ZN6TModel13get_dev_stateEv) for i._ZN6TModel13get_dev_stateEv
    model.o(.ARM.exidx) refers to model.o(i._ZN6TModel12get_my_angleEv) for i._ZN6TModel12get_my_angleEv
    model.o(.ARM.exidx) refers to model.o(i._ZN6TModel12set_my_angleEs) for i._ZN6TModel12set_my_angleEs
    model.o(.ARM.exidx) refers to model.o(i._ZN6TModel14get_sens_angleEv) for i._ZN6TModel14get_sens_angleEv
    model.o(.ARM.exidx) refers to model.o(i._ZN6TModel14set_sens_angleEs) for i._ZN6TModel14set_sens_angleEs
    model.o(.ARM.exidx) refers to model.o(i._ZN6TModel26get_sens_sample_valid_signEv) for i._ZN6TModel26get_sens_sample_valid_signEv
    model.o(.ARM.exidx) refers to model.o(i._ZN6TModel26set_sens_sample_valid_signEN9TSettings10TValidSignE) for i._ZN6TModel26set_sens_sample_valid_signEN9TSettings10TValidSignE
    model.o(.ARM.exidx) refers to model.o(i._ZN6TModel20get_sens_axis_rotateEv) for i._ZN6TModel20get_sens_axis_rotateEv
    model.o(.ARM.exidx) refers to model.o(i._ZN6TModel14set_flash_dataEv) for i._ZN6TModel14set_flash_dataEv
    model.o(.ARM.exidx) refers to model.o(i._ZN6TModel20set_sens_axis_rotateEh) for i._ZN6TModel20set_sens_axis_rotateEh
    model.o(.ARM.exidx) refers to model.o(i._ZN6TModel24get_sens_buf_axis_rotateEv) for i._ZN6TModel24get_sens_buf_axis_rotateEv
    model.o(.ARM.exidx) refers to model.o(i._ZN6TModel24set_sens_buf_axis_rotateEh) for i._ZN6TModel24set_sens_buf_axis_rotateEh
    model.o(.ARM.exidx) refers to model.o(i._ZN6TModel24get_sens_roll_bias_angleEv) for i._ZN6TModel24get_sens_roll_bias_angleEv
    model.o(.ARM.exidx) refers to model.o(i._ZN6TModel24set_sens_roll_bias_angleEa) for i._ZN6TModel24set_sens_roll_bias_angleEa
    model.o(.ARM.exidx) refers to model.o(i._ZN6TModel25get_sens_pitch_bias_angleEv) for i._ZN6TModel25get_sens_pitch_bias_angleEv
    model.o(.ARM.exidx) refers to model.o(i._ZN6TModel25set_sens_pitch_bias_angleEa) for i._ZN6TModel25set_sens_pitch_bias_angleEa
    model.o(.ARM.exidx) refers to model.o(i._ZN6TModel13get_raw_pitchEv) for i._ZN6TModel13get_raw_pitchEv
    model.o(.ARM.exidx) refers to model.o(i._ZN6TModel13set_raw_pitchEa) for i._ZN6TModel13set_raw_pitchEa
    model.o(.ARM.exidx) refers to model.o(i._ZN6TModel12get_raw_rollEv) for i._ZN6TModel12get_raw_rollEv
    model.o(.ARM.exidx) refers to model.o(i._ZN6TModel12set_raw_rollEa) for i._ZN6TModel12set_raw_rollEa
    model.o(.ARM.exidx) refers to model.o(i._ZN6TModel11get_accel_zEv) for i._ZN6TModel11get_accel_zEv
    model.o(.ARM.exidx) refers to model.o(i._ZN6TModel11set_accel_zEf) for i._ZN6TModel11set_accel_zEf
    model.o(.ARM.exidx) refers to model.o(i._ZN6TModel17get_calib_processEv) for i._ZN6TModel17get_calib_processEv
    model.o(.ARM.exidx) refers to model.o(i._ZN6TModel17set_calib_processEN9TSettings13TCalibProcessE) for i._ZN6TModel17set_calib_processEN9TSettings13TCalibProcessE
    model.o(.ARM.exidx) refers to model.o(i._ZN6TModel13set_calib_cmdEt) for i._ZN6TModel13set_calib_cmdEt
    model.o(.ARM.exidx) refers to model.o(i._ZN6TModel10get_accessEv) for i._ZN6TModel10get_accessEv
    model.o(.ARM.exidx) refers to model.o(i._ZN6TModel13handler_calibEsPb) for i._ZN6TModel13handler_calibEsPb
    model.o(.ARM.exidx) refers to model.o(i._ZN6TModel22set_authorize_item_ptrEPKNS_10TAuthorizeE) for i._ZN6TModel22set_authorize_item_ptrEPKNS_10TAuthorizeE
    model.o(.ARM.exidx) refers to model.o(i._ZN6TModel10set_accessEN9TSettings7TAccessE) for i._ZN6TModel10set_accessEN9TSettings7TAccessE
    model.o(.ARM.exidx) refers to model.o(i._ZN6TModel14handler_accessEsPb) for i._ZN6TModel14handler_accessEsPb
    model.o(.ARM.exidx) refers to model.o(i._ZN6TModel22get_calib_position_ctrEv) for i._ZN6TModel22get_calib_position_ctrEv
    model.o(.ARM.exidx) refers to model.o(i._ZN6TModel22set_calib_position_ctrENS_11TMemsOrientE) for i._ZN6TModel22set_calib_position_ctrENS_11TMemsOrientE
    model.o(.ARM.exidx) refers to model.o(i._ZN6TModel22clr_calib_position_ctrENS_11TMemsOrientE) for i._ZN6TModel22clr_calib_position_ctrENS_11TMemsOrientE
    model.o(.ARM.exidx) refers to model.o(i._ZN6TModel19get_calib_parameterEv) for i._ZN6TModel19get_calib_parameterEv
    model.o(.ARM.exidx) refers to model.o(i._ZN6TModel19set_calib_parameterEf) for i._ZN6TModel19set_calib_parameterEf
    model.o(.ARM.exidx) refers to model.o(i._ZN6TModel17get_transact_signERh) for i._ZN6TModel17get_transact_signERh
    model.o(.ARM.exidx) refers to model.o(i._ZN6TModel17set_transact_signERKh) for i._ZN6TModel17set_transact_signERKh
    model.o(.ARM.exidx) refers to model.o(i._ZN6TModel22get_authorize_item_ptrEv) for i._ZN6TModel22get_authorize_item_ptrEv
    model.o(.ARM.exidx) refers to model.o(i._ZN6TModel20get_communicate_byteEv) for i._ZN6TModel20get_communicate_byteEv
    model.o(.ARM.exidx) refers to model.o(i._ZN6TModel20set_communicate_byteEN9TSettings12TCommunicateE) for i._ZN6TModel20set_communicate_byteEN9TSettings12TCommunicateE
    model.o(.ARM.exidx) refers to model.o(i._ZN6TModel21get_sample_valid_signEv) for i._ZN6TModel21get_sample_valid_signEv
    model.o(.ARM.exidx) refers to model.o(i._ZN6TModel21set_sample_valid_signEN9TSettings10TValidSignE) for i._ZN6TModel21set_sample_valid_signEN9TSettings10TValidSignE
    model.o(.ARM.exidx) refers to model.o(i._ZN6TModel18get_start_meas_cmdEv) for i._ZN6TModel18get_start_meas_cmdEv
    model.o(.ARM.exidx) refers to model.o(i._ZN6TModel18set_start_meas_cmdEN9TSettings5TMeasE) for i._ZN6TModel18set_start_meas_cmdEN9TSettings5TMeasE
    model.o(.ARM.exidx) refers to model.o(i._ZN6TModel19get_flash_prog_signEv) for i._ZN6TModel19get_flash_prog_signEv
    model.o(.ARM.exidx) refers to model.o(i._ZN6TModel19set_flash_prog_signERKN9TSettings12TIsFlashProgE) for i._ZN6TModel19set_flash_prog_signERKN9TSettings12TIsFlashProgE
    model.o(.ARM.exidx) refers to model.o(i._ZN6TModel20set_accel_calib_signERKN9TSettings11TIsAccCalibE) for i._ZN6TModel20set_accel_calib_signERKN9TSettings11TIsAccCalibE
    model.o(.ARM.exidx) refers to model.o(i._ZN6TModel13get_sens_addrEv) for i._ZN6TModel13get_sens_addrEv
    model.o(.ARM.exidx) refers to model.o(i._ZN6TModel13set_sens_addrERKh) for i._ZN6TModel13set_sens_addrERKh
    model.o(.ARM.exidx) refers to model.o(i._ZN6TModel13get_psw_adminEv) for i._ZN6TModel13get_psw_adminEv
    model.o(.ARM.exidx) refers to model.o(i._ZN6TModel13set_psw_adminEf) for i._ZN6TModel13set_psw_adminEf
    model.o(.ARM.exidx) refers to model.o(i._ZN6TModel13get_psw_superEv) for i._ZN6TModel13get_psw_superEv
    model.o(.ARM.exidx) refers to model.o(i._ZN6TModel13set_psw_superEf) for i._ZN6TModel13set_psw_superEf
    model.o(.ARM.exidx) refers to model.o(i._ZN6TModel7get_thrEv) for i._ZN6TModel7get_thrEv
    model.o(.ARM.exidx) refers to model.o(i._ZN6TModel7set_thrEh) for i._ZN6TModel7set_thrEh
    model.o(.ARM.exidx) refers to model.o(i._ZN6TModel8get_hystEv) for i._ZN6TModel8get_hystEv
    model.o(.ARM.exidx) refers to model.o(i._ZN6TModel8set_hystEh) for i._ZN6TModel8set_hystEh
    model.o(.ARM.exidx) refers to model.o(i._ZN6TModel8get_biasEv) for i._ZN6TModel8get_biasEv
    model.o(.ARM.exidx) refers to model.o(i._ZN6TModel8set_biasEa) for i._ZN6TModel8set_biasEa
    model.o(.ARM.exidx) refers to model.o(i._ZN6TModel15get_axis_rotateEv) for i._ZN6TModel15get_axis_rotateEv
    model.o(.ARM.exidx) refers to model.o(i._ZN6TModel15set_axis_rotateEh) for i._ZN6TModel15set_axis_rotateEh
    model.o(.ARM.exidx) refers to model.o(i._ZN6TModel19get_roll_bias_angleEv) for i._ZN6TModel19get_roll_bias_angleEv
    model.o(.ARM.exidx) refers to model.o(i._ZN6TModel19set_roll_bias_angleEa) for i._ZN6TModel19set_roll_bias_angleEa
    model.o(.ARM.exidx) refers to model.o(i._ZN6TModel20get_pitch_bias_angleEv) for i._ZN6TModel20get_pitch_bias_angleEv
    model.o(.ARM.exidx) refers to model.o(i._ZN6TModel20set_pitch_bias_angleEa) for i._ZN6TModel20set_pitch_bias_angleEa
    model.o(.ARM.exidx) refers to model.o(i._ZN6TModel12get_d_o_setsEv) for i._ZN6TModel12get_d_o_setsEv
    model.o(.ARM.exidx) refers to model.o(i._ZN6TModel12set_d_o_setsE8TContact) for i._ZN6TModel12set_d_o_setsE8TContact
    model.o(.ARM.exidx) refers to model.o(i._ZN6TModel13get_interconnEv) for i._ZN6TModel13get_interconnEv
    model.o(.ARM.exidx) refers to model.o(i._ZN6TModel13set_interconnE10TInterconn) for i._ZN6TModel13set_interconnE10TInterconn
    model.o(.ARM.exidx) refers to model.o(i._ZN6TModel11get_mb_addrEv) for i._ZN6TModel11get_mb_addrEv
    model.o(.ARM.exidx) refers to model.o(i._ZN6TModel11set_mb_addrEs) for i._ZN6TModel11set_mb_addrEs
    model.o(.ARM.exidx) refers to model.o(i._ZN6TModel15get_u_baud_rateEv) for i._ZN6TModel15get_u_baud_rateEv
    model.o(.ARM.exidx) refers to model.o(i._ZN6TModel15set_u_baud_rateEh) for i._ZN6TModel15set_u_baud_rateEh
    model.o(.ARM.exidx) refers to model.o(i._ZN6TModel26get_u_baud_rate_bit_to_secEv) for i._ZN6TModel26get_u_baud_rate_bit_to_secEv
    model.o(.ARM.exidx) refers to model.o(i._ZN6TModel9get_u_parEv) for i._ZN6TModel9get_u_parEv
    model.o(.ARM.exidx) refers to model.o(i._ZN6TModel9set_u_parEh) for i._ZN6TModel9set_u_parEh
    model.o(.ARM.exidx) refers to model.o(i._ZN6TModel8get_setsER10MySettings) for i._ZN6TModel8get_setsER10MySettings
    model.o(.ARM.exidx) refers to model.o(i._ZN6TModel8set_setsERK10MySettings) for i._ZN6TModel8set_setsERK10MySettings
    model.o(.ARM.exidx) refers to model.o(i._ZN6TModel11get_if_setsER3TIf) for i._ZN6TModel11get_if_setsER3TIf
    model.o(.ARM.exidx) refers to model.o(i._ZN6TModel11set_if_setsERK3TIf) for i._ZN6TModel11set_if_setsERK3TIf
    model.o(.ARM.exidx) refers to model.o(i._ZN6TModel20get_accel_calib_dataERN9TSettings11TAccCalDataE) for i._ZN6TModel20get_accel_calib_dataERN9TSettings11TAccCalDataE
    model.o(.ARM.exidx) refers to model.o(i._ZN6TModel20set_accel_calib_dataERKN9TSettings11TAccCalDataE) for i._ZN6TModel20set_accel_calib_dataERKN9TSettings11TAccCalDataE
    model.o(.ARM.exidx) refers to model.o(i._ZN6TModel14get_flash_dataERN9TSettings10TFlashDataE) for i._ZN6TModel14get_flash_dataERN9TSettings10TFlashDataE
    model.o(.ARM.exidx) refers to model.o(i._ZN6TModel15get_pd_pressureEv) for i._ZN6TModel15get_pd_pressureEv
    model.o(.ARM.exidx) refers to model.o(i._ZN6TModel15set_pd_pressureEf) for i._ZN6TModel15set_pd_pressureEf
    model.o(.ARM.exidx) refers to model.o(i.__sti___9_model_cpp_Model) for i.__sti___9_model_cpp_Model
    model.o(.constdata) refers to main.o(.data) for AccCalib_X_UP_Sem
    model.o(.constdata) refers to model.o(i._ZN6TModel13get_psw_adminEv) for TModel::get_psw_admin()
    model.o(.constdata) refers to model.o(i._ZN6TModel13get_psw_superEv) for TModel::get_psw_super()
    model.o(.constdata) refers to settings.o(i._ZNK9TSettings9chk_calibEs) for TSettings::chk_calib(short) const
    model.o(.constdata) refers to model.o(i._ZN6TModel13handler_calibEsPb) for TModel::handler_calib(short, bool*)
    model.o(.constdata) refers to settings.o(i._ZNK9TSettings10chk_accessEs) for TSettings::chk_access(short) const
    model.o(.constdata) refers to model.o(i._ZN6TModel14handler_accessEsPb) for TModel::handler_access(short, bool*)
    model.o(.init_array) refers to model.o(i.__sti___9_model_cpp_Model) for __sti___9_model_cpp_Model
    model.o(.init_array) refers to cpp_init.o(.text) for __cpp_initialize__aeabi_
    median_filter.o(.ARM.exidx) refers to median_filter.o(i._ZN13TMedianFilterC1Es) for i._ZN13TMedianFilterC1Es
    median_filter.o(.ARM.exidx) refers to median_filter.o(i._ZN13TMedianFilterD1Ev) for i._ZN13TMedianFilterD1Ev
    median_filter.o(.ARM.exidx) refers to median_filter.o(i._ZN13TMedianFilter7processEs) for i._ZN13TMedianFilter7processEs
    usart_driver_.o(i._ZN6TUsart10set_485_hdEjj) refers to usart_driver_.o(i._ZN39_INTERNAL_17_usart_driver__cpp_b612a17520LL_USART_SetBaudRateEP13USART_TypeDefjjj) for [local to usart_driver__cpp]::LL_USART_SetBaudRate(USART_TypeDef*, unsigned, unsigned, unsigned)
    usart_driver_.o(i._ZN6TUsart13en_eob_detectEh) refers to usart_driver_.o(i._ZN39_INTERNAL_17_usart_driver__cpp_b612a17522LL_USART_ClearFlag_RTOEP13USART_TypeDef) for [local to usart_driver__cpp]::LL_USART_ClearFlag_RTO(USART_TypeDef*)
    usart_driver_.o(i._ZN6TUsart14dis_eob_detectEv) refers to usart_driver_.o(i._ZN39_INTERNAL_17_usart_driver__cpp_b612a17522LL_USART_ClearFlag_RTOEP13USART_TypeDef) for [local to usart_driver__cpp]::LL_USART_ClearFlag_RTO(USART_TypeDef*)
    usart_driver_.o(i._ZN6TUsart14pin_clk_configEv) refers to stm32l4xx_ll_gpio.o(i.LL_GPIO_Init) for LL_GPIO_Init
    usart_driver_.o(i._ZN6TUsart7hw_initEh) refers to memcpya.o(.text) for __aeabi_memcpy4
    usart_driver_.o(i._ZN6TUsart7hw_initEh) refers to stm32l4xx_ll_usart.o(i.LL_USART_Init) for LL_USART_Init
    usart_driver_.o(i._ZN6TUsart7hw_initEh) refers to stm32l4xx_ll_rcc.o(i.LL_RCC_GetUSARTClockFreq) for LL_RCC_GetUSARTClockFreq
    usart_driver_.o(i._ZN6TUsart7hw_initEh) refers to usart_driver_.o(i._ZN6TUsart13en_eob_detectEh) for TUsart::en_eob_detect(unsigned char)
    usart_driver_.o(i._ZN6TUsart7hw_initEh) refers to usart_driver_.o(i._ZN6TUsart13set_interruptEv) for TUsart::set_interrupt()
    usart_driver_.o(i._ZN6TUsart7hw_initEh) refers to rs-485_phy.o(i._ZN12T_RS_485_phy10get_configEv) for T_RS_485_phy::get_config()
    usart_driver_.o(i._ZN6TUsart7hw_initEh) refers to usart_driver_.o(i._ZN6TUsart10set_485_hdEjj) for TUsart::set_485_hd(unsigned, unsigned)
    usart_driver_.o(i._ZN6TUsart7hw_initEh) refers to usart_driver_.o(i._ZN6TUsart7set_232Ejj) for TUsart::set_232(unsigned, unsigned)
    usart_driver_.o(i._ZN6TUsart7hw_initEh) refers to usart_driver_.o(.constdata) for .constdata
    usart_driver_.o(i._ZN6TUsart7set_232Ejj) refers to usart_driver_.o(i._ZN39_INTERNAL_17_usart_driver__cpp_b612a17520LL_USART_SetBaudRateEP13USART_TypeDefjjj) for [local to usart_driver__cpp]::LL_USART_SetBaudRate(USART_TypeDef*, unsigned, unsigned, unsigned)
    usart_driver_.o(i._ZN6TUsart8set_setsERKNS_5TSetsE) refers to usart_driver_.o(i._ZN6TUsart8chk_setsERKNS_5TSetsE) for TUsart::chk_sets(const TUsart::TSets&)
    usart_driver_.o(i._ZN6TUsart8set_setsERKNS_5TSetsE) refers to usart_driver_.o(i._ZN6TUsart6dis_ifEv) for TUsart::dis_if()
    usart_driver_.o(i._ZN6TUsart8set_setsERKNS_5TSetsE) refers to usart_driver_.o(i._ZN6TUsart7hw_initEh) for TUsart::hw_init(unsigned char)
    usart_driver_.o(i._ZN6TUsartC1ERK9TUsart_HWRKNS_5TSetsENS_5TModeE) refers to rs-485_phy.o(i._ZN12T_RS_485_phyC1Ev) for T_RS_485_phy::T_RS_485_phy()
    usart_driver_.o(i._ZN6TUsartD1Ev) refers to rs-485_phy.o(i._ZN12T_RS_485_phyD1Ev) for T_RS_485_phy::~T_RS_485_phy()
    usart_driver_.o(.ARM.exidx) refers to usart_driver_.o(i._ZN39_INTERNAL_17_usart_driver__cpp_b612a17520LL_USART_SetBaudRateEP13USART_TypeDefjjj) for i._ZN39_INTERNAL_17_usart_driver__cpp_b612a17520LL_USART_SetBaudRateEP13USART_TypeDefjjj
    usart_driver_.o(.ARM.exidx) refers to usart_driver_.o(i._ZN6TUsartC1ERK9TUsart_HWRKNS_5TSetsENS_5TModeE) for i._ZN6TUsartC1ERK9TUsart_HWRKNS_5TSetsENS_5TModeE
    usart_driver_.o(.ARM.exidx) refers to usart_driver_.o(i._ZN6TUsartD1Ev) for i._ZN6TUsartD1Ev
    usart_driver_.o(.ARM.exidx) refers to usart_driver_.o(i._ZN6TUsart14pin_clk_configEv) for i._ZN6TUsart14pin_clk_configEv
    usart_driver_.o(.ARM.exidx) refers to usart_driver_.o(i._ZN6TUsart7set_232Ejj) for i._ZN6TUsart7set_232Ejj
    usart_driver_.o(.ARM.exidx) refers to usart_driver_.o(i._ZN6TUsart10set_485_hdEjj) for i._ZN6TUsart10set_485_hdEjj
    usart_driver_.o(.ARM.exidx) refers to usart_driver_.o(i._ZN6TUsart13set_interruptEv) for i._ZN6TUsart13set_interruptEv
    usart_driver_.o(.ARM.exidx) refers to usart_driver_.o(i._ZN6TUsart13en_eob_detectEh) for i._ZN6TUsart13en_eob_detectEh
    usart_driver_.o(.ARM.exidx) refers to usart_driver_.o(i._ZN6TUsart7hw_initEh) for i._ZN6TUsart7hw_initEh
    usart_driver_.o(.ARM.exidx) refers to usart_driver_.o(i._ZN6TUsart6dis_ifEv) for i._ZN6TUsart6dis_ifEv
    usart_driver_.o(.ARM.exidx) refers to usart_driver_.o(i._ZN6TUsart8chk_setsERKNS_5TSetsE) for i._ZN6TUsart8chk_setsERKNS_5TSetsE
    usart_driver_.o(.ARM.exidx) refers to usart_driver_.o(i._ZN6TUsart8set_setsERKNS_5TSetsE) for i._ZN6TUsart8set_setsERKNS_5TSetsE
    usart_driver_.o(.ARM.exidx) refers to usart_driver_.o(i._ZN6TUsart14dis_eob_detectEv) for i._ZN6TUsart14dis_eob_detectEv
    usart_driver_.o(.ARM.exidx) refers to usart_driver_.o(i._ZNK6TUsart8get_setsEv) for i._ZNK6TUsart8get_setsEv
    usart_driver_.o(.ARM.exidx) refers to usart_driver_.o(i._ZN39_INTERNAL_17_usart_driver__cpp_b612a17522LL_USART_ClearFlag_RTOEP13USART_TypeDef) for i._ZN39_INTERNAL_17_usart_driver__cpp_b612a17522LL_USART_ClearFlag_RTOEP13USART_TypeDef
    flash_driver.o(i.FLASH_IRQHandler) refers to flash_driver.o(.data) for FLASH_IRQHandler::Ctr
    flash_driver.o(i.TIM6_DAC_IRQHandler) refers to flash_driver.o(.data) for FlashTmrTrig
    flash_driver.o(i._ZN6TFlash10write_dataEPKh) refers to old_flash_lib.o(i._Z15FLASH_GetStatusv) for FLASH_GetStatus()
    flash_driver.o(i._ZN6TFlash10write_dataEPKh) refers to flash_driver.o(i._ZNK6TFlash10erase_pageEj) for TFlash::erase_page(unsigned) const
    flash_driver.o(i._ZN6TFlash10write_dataEPKh) refers to flash_driver.o(i._ZNK6TFlash10write_pageEPKhtj) for TFlash::write_page(const unsigned char*, unsigned short, unsigned) const
    flash_driver.o(i._ZN6TFlash10write_setsEPKht) refers to old_flash_lib.o(i._Z15FLASH_GetStatusv) for FLASH_GetStatus()
    flash_driver.o(i._ZN6TFlash10write_setsEPKht) refers to flash_driver.o(i._ZNK6TFlash10erase_pageEj) for TFlash::erase_page(unsigned) const
    flash_driver.o(i._ZN6TFlash10write_setsEPKht) refers to flash_driver.o(i._ZNK6TFlash10write_pageEPKhtj) for TFlash::write_page(const unsigned char*, unsigned short, unsigned) const
    flash_driver.o(i._ZN6TFlash8init_tmrEv) refers to stm32l4xx_ll_rcc.o(i.LL_RCC_GetSystemClocksFreq) for LL_RCC_GetSystemClocksFreq
    flash_driver.o(i._ZN6TFlash8init_tmrEv) refers to stm32l4xx_ll_tim.o(i.LL_TIM_Init) for LL_TIM_Init
    flash_driver.o(i._ZN6TFlash8init_tmrEv) refers to flash_driver.o(i._ZN38_INTERNAL_16_Flash_driver_cpp_d50a58b423LL_TIM_ClearFlag_UPDATEEP11TIM_TypeDef) for [local to Flash_driver_cpp]::LL_TIM_ClearFlag_UPDATE(TIM_TypeDef*)
    flash_driver.o(i._ZN6TFlashC1Ev) refers to flash_driver.o(i._ZN6TFlash8init_tmrEv) for TFlash::init_tmr()
    flash_driver.o(i._ZNK6TFlash10erase_pageEj) refers to old_flash_lib.o(i._Z12FLASH_Unlockv) for FLASH_Unlock()
    flash_driver.o(i._ZNK6TFlash10erase_pageEj) refers to flash_driver.o(i._ZNK6TFlash15clear_all_errorEv) for TFlash::clear_all_error() const
    flash_driver.o(i._ZNK6TFlash10erase_pageEj) refers to old_flash_lib.o(i._Z15FLASH_GetStatusv) for FLASH_GetStatus()
    flash_driver.o(i._ZNK6TFlash10erase_pageEj) refers to old_flash_lib.o(i._Z10FLASH_Lockv) for FLASH_Lock()
    flash_driver.o(i._ZNK6TFlash10write_pageEPKhtj) refers to old_flash_lib.o(i._Z12FLASH_Unlockv) for FLASH_Unlock()
    flash_driver.o(i._ZNK6TFlash10write_pageEPKhtj) refers to flash_driver.o(i._ZNK6TFlash4progEPKjjj) for TFlash::prog(const unsigned*, unsigned, unsigned) const
    flash_driver.o(i._ZNK6TFlash10write_pageEPKhtj) refers to old_flash_lib.o(i._Z10FLASH_Lockv) for FLASH_Lock()
    flash_driver.o(i._ZNK6TFlash4progEPKjjj) refers to flash_driver.o(i._ZNK6TFlash15clear_all_errorEv) for TFlash::clear_all_error() const
    flash_driver.o(i._ZNK6TFlash4progEPKjjj) refers to old_flash_lib.o(i._Z15FLASH_GetStatusv) for FLASH_GetStatus()
    flash_driver.o(i._ZNK6TFlash4progEPKjjj) refers to flash_driver.o(i._ZNK6TFlash9start_tmrEv) for TFlash::start_tmr() const
    flash_driver.o(i._ZNK6TFlash4progEPKjjj) refers to flash_driver.o(i._ZNK6TFlash8stop_tmrEv) for TFlash::stop_tmr() const
    flash_driver.o(i._ZNK6TFlash4progEPKjjj) refers to flash_driver.o(.data) for FlashTmrTrig
    flash_driver.o(i._ZNK6TFlash6rdp_obEv) refers to old_flash_lib.o(i._Z15FLASH_GetStatusv) for FLASH_GetStatus()
    flash_driver.o(i._ZNK6TFlash6rdp_obEv) refers to old_flash_lib.o(i._Z12FLASH_Unlockv) for FLASH_Unlock()
    flash_driver.o(i._ZNK6TFlash6rdp_obEv) refers to old_flash_lib.o(i._Z15FLASH_OB_Unlockv) for FLASH_OB_Unlock()
    flash_driver.o(i.__sti___16_Flash_driver_cpp_d50a58b4) refers to flash_driver.o(i._ZN6TFlashC1Ev) for TFlash::TFlash()
    flash_driver.o(i.__sti___16_Flash_driver_cpp_d50a58b4) refers to aeabi_atexit.o(.text) for __aeabi_atexit
    flash_driver.o(i.__sti___16_Flash_driver_cpp_d50a58b4) refers to flash_driver.o(.data) for Flash
    flash_driver.o(i.__sti___16_Flash_driver_cpp_d50a58b4) refers to flash_driver.o(i._ZN6TFlashD1Ev) for TFlash::~TFlash()
    flash_driver.o(.ARM.exidx) refers to flash_driver.o(i.FLASH_IRQHandler) for i.FLASH_IRQHandler
    flash_driver.o(.ARM.exidx) refers to flash_driver.o(i.TIM6_DAC_IRQHandler) for i.TIM6_DAC_IRQHandler
    flash_driver.o(.ARM.exidx) refers to flash_driver.o(i._ZN6TFlash8init_tmrEv) for i._ZN6TFlash8init_tmrEv
    flash_driver.o(.ARM.exidx) refers to flash_driver.o(i._ZN6TFlashC1Ev) for i._ZN6TFlashC1Ev
    flash_driver.o(.ARM.exidx) refers to flash_driver.o(i._ZN6TFlashD1Ev) for i._ZN6TFlashD1Ev
    flash_driver.o(.ARM.exidx) refers to flash_driver.o(i._ZN6TFlash8get_setsEPht) for i._ZN6TFlash8get_setsEPht
    flash_driver.o(.ARM.exidx) refers to flash_driver.o(i._ZNK6TFlash8stop_tmrEv) for i._ZNK6TFlash8stop_tmrEv
    flash_driver.o(.ARM.exidx) refers to flash_driver.o(i._ZNK6TFlash9start_tmrEv) for i._ZNK6TFlash9start_tmrEv
    flash_driver.o(.ARM.exidx) refers to flash_driver.o(i._ZNK6TFlash15clear_all_errorEv) for i._ZNK6TFlash15clear_all_errorEv
    flash_driver.o(.ARM.exidx) refers to flash_driver.o(i._ZNK6TFlash4progEPKjjj) for i._ZNK6TFlash4progEPKjjj
    flash_driver.o(.ARM.exidx) refers to flash_driver.o(i._ZNK6TFlash10write_pageEPKhtj) for i._ZNK6TFlash10write_pageEPKhtj
    flash_driver.o(.ARM.exidx) refers to flash_driver.o(i._ZNK6TFlash10erase_pageEj) for i._ZNK6TFlash10erase_pageEj
    flash_driver.o(.ARM.exidx) refers to flash_driver.o(i._ZN6TFlash10write_setsEPKht) for i._ZN6TFlash10write_setsEPKht
    flash_driver.o(.ARM.exidx) refers to flash_driver.o(i._ZN6TFlash10write_dataEPKh) for i._ZN6TFlash10write_dataEPKh
    flash_driver.o(.ARM.exidx) refers to flash_driver.o(i._ZNK6TFlash6rdp_obEv) for i._ZNK6TFlash6rdp_obEv
    flash_driver.o(.ARM.exidx) refers to flash_driver.o(i.__sti___16_Flash_driver_cpp_d50a58b4) for i.__sti___16_Flash_driver_cpp_d50a58b4
    flash_driver.o(.ARM.exidx) refers to flash_driver.o(i._ZN38_INTERNAL_16_Flash_driver_cpp_d50a58b423LL_TIM_ClearFlag_UPDATEEP11TIM_TypeDef) for i._ZN38_INTERNAL_16_Flash_driver_cpp_d50a58b423LL_TIM_ClearFlag_UPDATEEP11TIM_TypeDef
    flash_driver.o(.init_array) refers to flash_driver.o(i.__sti___16_Flash_driver_cpp_d50a58b4) for __sti___16_Flash_driver_cpp_d50a58b4
    flash_driver.o(.init_array) refers to cpp_init.o(.text) for __cpp_initialize__aeabi_
    i2c_driver.o(i.I2C1_EV_IRQHandler) refers to i2c_driver.o(i._ZN36_INTERNAL_14_I2C_driver_cpp_0101a1c115dks_txis_activeEv) for [local to I2C_driver_cpp]::dks_txis_active()
    i2c_driver.o(i.I2C1_EV_IRQHandler) refers to i2c_driver.o(i._ZN36_INTERNAL_14_I2C_driver_cpp_0101a1c115dks_rxne_activeEv) for [local to I2C_driver_cpp]::dks_rxne_active()
    i2c_driver.o(i.I2C1_EV_IRQHandler) refers to i2c_driver.o(i._ZN36_INTERNAL_14_I2C_driver_cpp_0101a1c115dks_stop_activeEv) for [local to I2C_driver_cpp]::dks_stop_active()
    i2c_driver.o(i.I2C1_EV_IRQHandler) refers to i2c_driver.o(i._ZN36_INTERNAL_14_I2C_driver_cpp_0101a1c113dks_tc_activeEv) for [local to I2C_driver_cpp]::dks_tc_active()
    i2c_driver.o(i.I2C1_EV_IRQHandler) refers to i2c_driver.o(.data) for OperationFlag
    i2c_driver.o(i._ZN36_INTERNAL_14_I2C_driver_cpp_0101a1c113dks_tc_activeEv) refers to i2c_driver.o(i._ZN36_INTERNAL_14_I2C_driver_cpp_0101a1c119LL_I2C_SetSlaveAddrEP11I2C_TypeDefj) for [local to I2C_driver_cpp]::LL_I2C_SetSlaveAddr(I2C_TypeDef*, unsigned)
    i2c_driver.o(i._ZN36_INTERNAL_14_I2C_driver_cpp_0101a1c113dks_tc_activeEv) refers to i2c_driver.o(i._ZN36_INTERNAL_14_I2C_driver_cpp_0101a1c125LL_I2C_SetTransferRequestEP11I2C_TypeDefj) for [local to I2C_driver_cpp]::LL_I2C_SetTransferRequest(I2C_TypeDef*, unsigned)
    i2c_driver.o(i._ZN36_INTERNAL_14_I2C_driver_cpp_0101a1c113dks_tc_activeEv) refers to i2c_driver.o(i._ZN36_INTERNAL_14_I2C_driver_cpp_0101a1c122LL_I2C_SetTransferSizeEP11I2C_TypeDefj) for [local to I2C_driver_cpp]::LL_I2C_SetTransferSize(I2C_TypeDef*, unsigned)
    i2c_driver.o(i._ZN36_INTERNAL_14_I2C_driver_cpp_0101a1c113dks_tc_activeEv) refers to i2c_driver.o(i._ZN36_INTERNAL_14_I2C_driver_cpp_0101a1c119LL_I2C_DisableIT_TXEP11I2C_TypeDef) for [local to I2C_driver_cpp]::LL_I2C_DisableIT_TX(I2C_TypeDef*)
    i2c_driver.o(i._ZN36_INTERNAL_14_I2C_driver_cpp_0101a1c113dks_tc_activeEv) refers to i2c_driver.o(i._ZN36_INTERNAL_14_I2C_driver_cpp_0101a1c119LL_I2C_DisableIT_TCEP11I2C_TypeDef) for [local to I2C_driver_cpp]::LL_I2C_DisableIT_TC(I2C_TypeDef*)
    i2c_driver.o(i._ZN36_INTERNAL_14_I2C_driver_cpp_0101a1c113dks_tc_activeEv) refers to i2c_driver.o(i._ZN36_INTERNAL_14_I2C_driver_cpp_0101a1c129LL_I2C_GenerateStartConditionEP11I2C_TypeDef) for [local to I2C_driver_cpp]::LL_I2C_GenerateStartCondition(I2C_TypeDef*)
    i2c_driver.o(i._ZN36_INTERNAL_14_I2C_driver_cpp_0101a1c113dks_tc_activeEv) refers to queue.o(i.xQueueGiveFromISR) for xQueueGiveFromISR
    i2c_driver.o(i._ZN36_INTERNAL_14_I2C_driver_cpp_0101a1c113dks_tc_activeEv) refers to i2c_driver.o(.data) for OperationFlag
    i2c_driver.o(i._ZN36_INTERNAL_14_I2C_driver_cpp_0101a1c113dks_tc_activeEv) refers to main.o(.data) for I2C_TxSem
    i2c_driver.o(i._ZN36_INTERNAL_14_I2C_driver_cpp_0101a1c115dks_rxne_activeEv) refers to i2c_driver.o(.data) for OperationFlag
    i2c_driver.o(i._ZN36_INTERNAL_14_I2C_driver_cpp_0101a1c115dks_stop_activeEv) refers to i2c_driver.o(i._ZN36_INTERNAL_14_I2C_driver_cpp_0101a1c121LL_I2C_ClearFlag_STOPEP11I2C_TypeDef) for [local to I2C_driver_cpp]::LL_I2C_ClearFlag_STOP(I2C_TypeDef*)
    i2c_driver.o(i._ZN36_INTERNAL_14_I2C_driver_cpp_0101a1c115dks_stop_activeEv) refers to queue.o(i.xQueueGiveFromISR) for xQueueGiveFromISR
    i2c_driver.o(i._ZN36_INTERNAL_14_I2C_driver_cpp_0101a1c115dks_stop_activeEv) refers to i2c_driver.o(.data) for OperationFlag
    i2c_driver.o(i._ZN36_INTERNAL_14_I2C_driver_cpp_0101a1c115dks_stop_activeEv) refers to main.o(.data) for I2C_RxSem
    i2c_driver.o(i._ZN36_INTERNAL_14_I2C_driver_cpp_0101a1c115dks_txis_activeEv) refers to i2c_driver.o(i._ZN36_INTERNAL_14_I2C_driver_cpp_0101a1c121LL_I2C_ClearFlag_STOPEP11I2C_TypeDef) for [local to I2C_driver_cpp]::LL_I2C_ClearFlag_STOP(I2C_TypeDef*)
    i2c_driver.o(i._ZN36_INTERNAL_14_I2C_driver_cpp_0101a1c115dks_txis_activeEv) refers to i2c_driver.o(i._ZN36_INTERNAL_14_I2C_driver_cpp_0101a1c120LL_I2C_TransmitData8EP11I2C_TypeDefh) for [local to I2C_driver_cpp]::LL_I2C_TransmitData8(I2C_TypeDef*, unsigned char)
    i2c_driver.o(i._ZN36_INTERNAL_14_I2C_driver_cpp_0101a1c115dks_txis_activeEv) refers to i2c_driver.o(i._ZN36_INTERNAL_14_I2C_driver_cpp_0101a1c119LL_I2C_DisableIT_TXEP11I2C_TypeDef) for [local to I2C_driver_cpp]::LL_I2C_DisableIT_TX(I2C_TypeDef*)
    i2c_driver.o(i._ZN36_INTERNAL_14_I2C_driver_cpp_0101a1c115dks_txis_activeEv) refers to i2c_driver.o(.data) for IsTxSlaveRegAddr
    i2c_driver.o(i._ZN3I2C4TI2C10read_burstEPhhhh) refers to i2c_driver.o(i._ZN36_INTERNAL_14_I2C_driver_cpp_0101a1c122LL_I2C_SetTransferSizeEP11I2C_TypeDefj) for [local to I2C_driver_cpp]::LL_I2C_SetTransferSize(I2C_TypeDef*, unsigned)
    i2c_driver.o(i._ZN3I2C4TI2C10read_burstEPhhhh) refers to i2c_driver.o(i._ZN3I2C4TI2C14start_transferEh) for I2C::TI2C::start_transfer(unsigned char)
    i2c_driver.o(i._ZN3I2C4TI2C10read_burstEPhhhh) refers to queue.o(i.xQueueGenericReceive) for xQueueGenericReceive
    i2c_driver.o(i._ZN3I2C4TI2C10read_burstEPhhhh) refers to i2c_driver.o(i._ZN36_INTERNAL_14_I2C_driver_cpp_0101a1c114LL_I2C_DisableEP11I2C_TypeDef) for [local to I2C_driver_cpp]::LL_I2C_Disable(I2C_TypeDef*)
    i2c_driver.o(i._ZN3I2C4TI2C10read_burstEPhhhh) refers to i2c_driver.o(i._ZN36_INTERNAL_14_I2C_driver_cpp_0101a1c121LL_I2C_ClearFlag_ARLOEP11I2C_TypeDef) for [local to I2C_driver_cpp]::LL_I2C_ClearFlag_ARLO(I2C_TypeDef*)
    i2c_driver.o(i._ZN3I2C4TI2C10read_burstEPhhhh) refers to i2c_driver.o(i._ZN36_INTERNAL_14_I2C_driver_cpp_0101a1c113LL_I2C_EnableEP11I2C_TypeDef) for [local to I2C_driver_cpp]::LL_I2C_Enable(I2C_TypeDef*)
    i2c_driver.o(i._ZN3I2C4TI2C10read_burstEPhhhh) refers to i2c_driver.o(.data) for OperationFlag
    i2c_driver.o(i._ZN3I2C4TI2C10read_burstEPhhhh) refers to main.o(.data) for I2C_RxSem
    i2c_driver.o(i._ZN3I2C4TI2C11i2c_hw_initEv) refers to i2c_driver.o(i._ZN36_INTERNAL_14_I2C_driver_cpp_0101a1c114LL_I2C_DisableEP11I2C_TypeDef) for [local to I2C_driver_cpp]::LL_I2C_Disable(I2C_TypeDef*)
    i2c_driver.o(i._ZN3I2C4TI2C11i2c_hw_initEv) refers to stm32l4xx_ll_i2c.o(i.LL_I2C_Init) for LL_I2C_Init
    i2c_driver.o(i._ZN3I2C4TI2C11i2c_hw_initEv) refers to i2c_driver.o(i._ZN36_INTERNAL_14_I2C_driver_cpp_0101a1c130LL_I2C_SetMasterAddressingModeEP11I2C_TypeDefj) for [local to I2C_driver_cpp]::LL_I2C_SetMasterAddressingMode(I2C_TypeDef*, unsigned)
    i2c_driver.o(i._ZN3I2C4TI2C11i2c_hw_initEv) refers to i2c_driver.o(i._ZN3I2C4TI2C17i2c_set_interruptEv) for I2C::TI2C::i2c_set_interrupt()
    i2c_driver.o(i._ZN3I2C4TI2C11i2c_hw_initEv) refers to i2c_driver.o(i._ZN36_INTERNAL_14_I2C_driver_cpp_0101a1c113LL_I2C_EnableEP11I2C_TypeDef) for [local to I2C_driver_cpp]::LL_I2C_Enable(I2C_TypeDef*)
    i2c_driver.o(i._ZN3I2C4TI2C11write_burstEPhhhh) refers to i2c_driver.o(i._ZN36_INTERNAL_14_I2C_driver_cpp_0101a1c122LL_I2C_SetTransferSizeEP11I2C_TypeDefj) for [local to I2C_driver_cpp]::LL_I2C_SetTransferSize(I2C_TypeDef*, unsigned)
    i2c_driver.o(i._ZN3I2C4TI2C11write_burstEPhhhh) refers to i2c_driver.o(i._ZN3I2C4TI2C14start_transferEh) for I2C::TI2C::start_transfer(unsigned char)
    i2c_driver.o(i._ZN3I2C4TI2C11write_burstEPhhhh) refers to queue.o(i.xQueueGenericReceive) for xQueueGenericReceive
    i2c_driver.o(i._ZN3I2C4TI2C11write_burstEPhhhh) refers to i2c_driver.o(i._ZN36_INTERNAL_14_I2C_driver_cpp_0101a1c114LL_I2C_DisableEP11I2C_TypeDef) for [local to I2C_driver_cpp]::LL_I2C_Disable(I2C_TypeDef*)
    i2c_driver.o(i._ZN3I2C4TI2C11write_burstEPhhhh) refers to i2c_driver.o(i._ZN36_INTERNAL_14_I2C_driver_cpp_0101a1c121LL_I2C_ClearFlag_ARLOEP11I2C_TypeDef) for [local to I2C_driver_cpp]::LL_I2C_ClearFlag_ARLO(I2C_TypeDef*)
    i2c_driver.o(i._ZN3I2C4TI2C11write_burstEPhhhh) refers to i2c_driver.o(i._ZN36_INTERNAL_14_I2C_driver_cpp_0101a1c113LL_I2C_EnableEP11I2C_TypeDef) for [local to I2C_driver_cpp]::LL_I2C_Enable(I2C_TypeDef*)
    i2c_driver.o(i._ZN3I2C4TI2C11write_burstEPhhhh) refers to i2c_driver.o(.data) for TxBufSize
    i2c_driver.o(i._ZN3I2C4TI2C11write_burstEPhhhh) refers to main.o(.data) for I2C_TxSem
    i2c_driver.o(i._ZN3I2C4TI2C14pin_clk_configEv) refers to stm32l4xx_ll_gpio.o(i.LL_GPIO_Init) for LL_GPIO_Init
    i2c_driver.o(i._ZN3I2C4TI2C14start_transferEh) refers to i2c_driver.o(i._ZN36_INTERNAL_14_I2C_driver_cpp_0101a1c130LL_I2C_SetMasterAddressingModeEP11I2C_TypeDefj) for [local to I2C_driver_cpp]::LL_I2C_SetMasterAddressingMode(I2C_TypeDef*, unsigned)
    i2c_driver.o(i._ZN3I2C4TI2C14start_transferEh) refers to i2c_driver.o(i._ZN36_INTERNAL_14_I2C_driver_cpp_0101a1c119LL_I2C_SetSlaveAddrEP11I2C_TypeDefj) for [local to I2C_driver_cpp]::LL_I2C_SetSlaveAddr(I2C_TypeDef*, unsigned)
    i2c_driver.o(i._ZN3I2C4TI2C14start_transferEh) refers to i2c_driver.o(i._ZN36_INTERNAL_14_I2C_driver_cpp_0101a1c125LL_I2C_SetTransferRequestEP11I2C_TypeDefj) for [local to I2C_driver_cpp]::LL_I2C_SetTransferRequest(I2C_TypeDef*, unsigned)
    i2c_driver.o(i._ZN3I2C4TI2C14start_transferEh) refers to i2c_driver.o(i._ZN36_INTERNAL_14_I2C_driver_cpp_0101a1c129LL_I2C_GenerateStartConditionEP11I2C_TypeDef) for [local to I2C_driver_cpp]::LL_I2C_GenerateStartCondition(I2C_TypeDef*)
    i2c_driver.o(i._ZN3I2C4TI2C14start_transferEh) refers to i2c_driver.o(.data) for IsTxSlaveRegAddr
    i2c_driver.o(i._ZN3I2C4TI2C16read_single_byteEPhhh) refers to i2c_driver.o(i._ZN36_INTERNAL_14_I2C_driver_cpp_0101a1c122LL_I2C_SetTransferSizeEP11I2C_TypeDefj) for [local to I2C_driver_cpp]::LL_I2C_SetTransferSize(I2C_TypeDef*, unsigned)
    i2c_driver.o(i._ZN3I2C4TI2C16read_single_byteEPhhh) refers to i2c_driver.o(i._ZN3I2C4TI2C14start_transferEh) for I2C::TI2C::start_transfer(unsigned char)
    i2c_driver.o(i._ZN3I2C4TI2C16read_single_byteEPhhh) refers to heap_2.o(i.xPortGetFreeHeapSize) for xPortGetFreeHeapSize
    i2c_driver.o(i._ZN3I2C4TI2C16read_single_byteEPhhh) refers to queue.o(i.xQueueGenericReceive) for xQueueGenericReceive
    i2c_driver.o(i._ZN3I2C4TI2C16read_single_byteEPhhh) refers to i2c_driver.o(i._ZN36_INTERNAL_14_I2C_driver_cpp_0101a1c114LL_I2C_DisableEP11I2C_TypeDef) for [local to I2C_driver_cpp]::LL_I2C_Disable(I2C_TypeDef*)
    i2c_driver.o(i._ZN3I2C4TI2C16read_single_byteEPhhh) refers to i2c_driver.o(i._ZN36_INTERNAL_14_I2C_driver_cpp_0101a1c121LL_I2C_ClearFlag_ARLOEP11I2C_TypeDef) for [local to I2C_driver_cpp]::LL_I2C_ClearFlag_ARLO(I2C_TypeDef*)
    i2c_driver.o(i._ZN3I2C4TI2C16read_single_byteEPhhh) refers to i2c_driver.o(i._ZN36_INTERNAL_14_I2C_driver_cpp_0101a1c113LL_I2C_EnableEP11I2C_TypeDef) for [local to I2C_driver_cpp]::LL_I2C_Enable(I2C_TypeDef*)
    i2c_driver.o(i._ZN3I2C4TI2C16read_single_byteEPhhh) refers to i2c_driver.o(.data) for OperationFlag
    i2c_driver.o(i._ZN3I2C4TI2C16read_single_byteEPhhh) refers to main.o(.data) for I2C_RxSem
    i2c_driver.o(i._ZN3I2C4TI2C17write_single_byteEPhhh) refers to i2c_driver.o(i._ZN36_INTERNAL_14_I2C_driver_cpp_0101a1c122LL_I2C_SetTransferSizeEP11I2C_TypeDefj) for [local to I2C_driver_cpp]::LL_I2C_SetTransferSize(I2C_TypeDef*, unsigned)
    i2c_driver.o(i._ZN3I2C4TI2C17write_single_byteEPhhh) refers to i2c_driver.o(i._ZN3I2C4TI2C14start_transferEh) for I2C::TI2C::start_transfer(unsigned char)
    i2c_driver.o(i._ZN3I2C4TI2C17write_single_byteEPhhh) refers to queue.o(i.xQueueGenericReceive) for xQueueGenericReceive
    i2c_driver.o(i._ZN3I2C4TI2C17write_single_byteEPhhh) refers to i2c_driver.o(i._ZN36_INTERNAL_14_I2C_driver_cpp_0101a1c114LL_I2C_DisableEP11I2C_TypeDef) for [local to I2C_driver_cpp]::LL_I2C_Disable(I2C_TypeDef*)
    i2c_driver.o(i._ZN3I2C4TI2C17write_single_byteEPhhh) refers to i2c_driver.o(i._ZN36_INTERNAL_14_I2C_driver_cpp_0101a1c121LL_I2C_ClearFlag_ARLOEP11I2C_TypeDef) for [local to I2C_driver_cpp]::LL_I2C_ClearFlag_ARLO(I2C_TypeDef*)
    i2c_driver.o(i._ZN3I2C4TI2C17write_single_byteEPhhh) refers to i2c_driver.o(i._ZN36_INTERNAL_14_I2C_driver_cpp_0101a1c113LL_I2C_EnableEP11I2C_TypeDef) for [local to I2C_driver_cpp]::LL_I2C_Enable(I2C_TypeDef*)
    i2c_driver.o(i._ZN3I2C4TI2C17write_single_byteEPhhh) refers to i2c_driver.o(.data) for TxBufSize
    i2c_driver.o(i._ZN3I2C4TI2C17write_single_byteEPhhh) refers to main.o(.data) for I2C_TxSem
    i2c_driver.o(i._ZN3I2C4TI2CC1ERK7TI2C_HWNS_5TModeENS_5TRateENS_11TAddressingE) refers to memcpya.o(.text) for __aeabi_memcpy4
    i2c_driver.o(.ARM.exidx) refers to i2c_driver.o(i.I2C1_EV_IRQHandler) for i.I2C1_EV_IRQHandler
    i2c_driver.o(.ARM.exidx) refers to i2c_driver.o(i.I2C1_ER_IRQHandler) for i.I2C1_ER_IRQHandler
    i2c_driver.o(.ARM.exidx) refers to i2c_driver.o(i.I2C2_EV_IRQHandler) for i.I2C2_EV_IRQHandler
    i2c_driver.o(.ARM.exidx) refers to i2c_driver.o(i.I2C2_ER_IRQHandler) for i.I2C2_ER_IRQHandler
    i2c_driver.o(.ARM.exidx) refers to i2c_driver.o(i._ZN3I2C4TI2CC1ERK7TI2C_HWNS_5TModeENS_5TRateENS_11TAddressingE) for i._ZN3I2C4TI2CC1ERK7TI2C_HWNS_5TModeENS_5TRateENS_11TAddressingE
    i2c_driver.o(.ARM.exidx) refers to i2c_driver.o(i._ZN3I2C4TI2CD1Ev) for i._ZN3I2C4TI2CD1Ev
    i2c_driver.o(.ARM.exidx) refers to i2c_driver.o(i._ZNK3I2C4TI2C12get_i2c_signEv) for i._ZNK3I2C4TI2C12get_i2c_signEv
    i2c_driver.o(.ARM.exidx) refers to i2c_driver.o(i._ZN3I2C4TI2C14pin_clk_configEv) for i._ZN3I2C4TI2C14pin_clk_configEv
    i2c_driver.o(.ARM.exidx) refers to i2c_driver.o(i._ZN3I2C4TI2C17i2c_set_interruptEv) for i._ZN3I2C4TI2C17i2c_set_interruptEv
    i2c_driver.o(.ARM.exidx) refers to i2c_driver.o(i._ZN3I2C4TI2C11i2c_hw_initEv) for i._ZN3I2C4TI2C11i2c_hw_initEv
    i2c_driver.o(.ARM.exidx) refers to i2c_driver.o(i._ZN3I2C4TI2C14start_transferEh) for i._ZN3I2C4TI2C14start_transferEh
    i2c_driver.o(.ARM.exidx) refers to i2c_driver.o(i._ZN3I2C4TI2C17write_single_byteEPhhh) for i._ZN3I2C4TI2C17write_single_byteEPhhh
    i2c_driver.o(.ARM.exidx) refers to i2c_driver.o(i._ZN3I2C4TI2C11write_burstEPhhhh) for i._ZN3I2C4TI2C11write_burstEPhhhh
    i2c_driver.o(.ARM.exidx) refers to i2c_driver.o(i._ZN3I2C4TI2C16read_single_byteEPhhh) for i._ZN3I2C4TI2C16read_single_byteEPhhh
    i2c_driver.o(.ARM.exidx) refers to i2c_driver.o(i._ZN3I2C4TI2C10read_burstEPhhhh) for i._ZN3I2C4TI2C10read_burstEPhhhh
    i2c_driver.o(.ARM.exidx) refers to i2c_driver.o(i._ZN36_INTERNAL_14_I2C_driver_cpp_0101a1c113LL_I2C_EnableEP11I2C_TypeDef) for i._ZN36_INTERNAL_14_I2C_driver_cpp_0101a1c113LL_I2C_EnableEP11I2C_TypeDef
    i2c_driver.o(.ARM.exidx) refers to i2c_driver.o(i._ZN36_INTERNAL_14_I2C_driver_cpp_0101a1c114LL_I2C_DisableEP11I2C_TypeDef) for i._ZN36_INTERNAL_14_I2C_driver_cpp_0101a1c114LL_I2C_DisableEP11I2C_TypeDef
    i2c_driver.o(.ARM.exidx) refers to i2c_driver.o(i._ZN36_INTERNAL_14_I2C_driver_cpp_0101a1c130LL_I2C_SetMasterAddressingModeEP11I2C_TypeDefj) for i._ZN36_INTERNAL_14_I2C_driver_cpp_0101a1c130LL_I2C_SetMasterAddressingModeEP11I2C_TypeDefj
    i2c_driver.o(.ARM.exidx) refers to i2c_driver.o(i._ZN36_INTERNAL_14_I2C_driver_cpp_0101a1c121LL_I2C_ClearFlag_ARLOEP11I2C_TypeDef) for i._ZN36_INTERNAL_14_I2C_driver_cpp_0101a1c121LL_I2C_ClearFlag_ARLOEP11I2C_TypeDef
    i2c_driver.o(.ARM.exidx) refers to i2c_driver.o(i._ZN36_INTERNAL_14_I2C_driver_cpp_0101a1c122LL_I2C_SetTransferSizeEP11I2C_TypeDefj) for i._ZN36_INTERNAL_14_I2C_driver_cpp_0101a1c122LL_I2C_SetTransferSizeEP11I2C_TypeDefj
    i2c_driver.o(.ARM.exidx) refers to i2c_driver.o(i._ZN36_INTERNAL_14_I2C_driver_cpp_0101a1c129LL_I2C_GenerateStartConditionEP11I2C_TypeDef) for i._ZN36_INTERNAL_14_I2C_driver_cpp_0101a1c129LL_I2C_GenerateStartConditionEP11I2C_TypeDef
    i2c_driver.o(.ARM.exidx) refers to i2c_driver.o(i._ZN36_INTERNAL_14_I2C_driver_cpp_0101a1c125LL_I2C_SetTransferRequestEP11I2C_TypeDefj) for i._ZN36_INTERNAL_14_I2C_driver_cpp_0101a1c125LL_I2C_SetTransferRequestEP11I2C_TypeDefj
    i2c_driver.o(.ARM.exidx) refers to i2c_driver.o(i._ZN36_INTERNAL_14_I2C_driver_cpp_0101a1c119LL_I2C_SetSlaveAddrEP11I2C_TypeDefj) for i._ZN36_INTERNAL_14_I2C_driver_cpp_0101a1c119LL_I2C_SetSlaveAddrEP11I2C_TypeDefj
    i2c_driver.o(.ARM.exidx) refers to i2c_driver.o(i._ZN36_INTERNAL_14_I2C_driver_cpp_0101a1c115dks_txis_activeEv) for i._ZN36_INTERNAL_14_I2C_driver_cpp_0101a1c115dks_txis_activeEv
    i2c_driver.o(.ARM.exidx) refers to i2c_driver.o(i._ZN36_INTERNAL_14_I2C_driver_cpp_0101a1c115dks_rxne_activeEv) for i._ZN36_INTERNAL_14_I2C_driver_cpp_0101a1c115dks_rxne_activeEv
    i2c_driver.o(.ARM.exidx) refers to i2c_driver.o(i._ZN36_INTERNAL_14_I2C_driver_cpp_0101a1c115dks_stop_activeEv) for i._ZN36_INTERNAL_14_I2C_driver_cpp_0101a1c115dks_stop_activeEv
    i2c_driver.o(.ARM.exidx) refers to i2c_driver.o(i._ZN36_INTERNAL_14_I2C_driver_cpp_0101a1c113dks_tc_activeEv) for i._ZN36_INTERNAL_14_I2C_driver_cpp_0101a1c113dks_tc_activeEv
    i2c_driver.o(.ARM.exidx) refers to i2c_driver.o(i._ZN36_INTERNAL_14_I2C_driver_cpp_0101a1c119LL_I2C_DisableIT_TXEP11I2C_TypeDef) for i._ZN36_INTERNAL_14_I2C_driver_cpp_0101a1c119LL_I2C_DisableIT_TXEP11I2C_TypeDef
    i2c_driver.o(.ARM.exidx) refers to i2c_driver.o(i._ZN36_INTERNAL_14_I2C_driver_cpp_0101a1c119LL_I2C_DisableIT_TCEP11I2C_TypeDef) for i._ZN36_INTERNAL_14_I2C_driver_cpp_0101a1c119LL_I2C_DisableIT_TCEP11I2C_TypeDef
    i2c_driver.o(.ARM.exidx) refers to i2c_driver.o(i._ZN36_INTERNAL_14_I2C_driver_cpp_0101a1c121LL_I2C_ClearFlag_STOPEP11I2C_TypeDef) for i._ZN36_INTERNAL_14_I2C_driver_cpp_0101a1c121LL_I2C_ClearFlag_STOPEP11I2C_TypeDef
    i2c_driver.o(.ARM.exidx) refers to i2c_driver.o(i._ZN36_INTERNAL_14_I2C_driver_cpp_0101a1c120LL_I2C_TransmitData8EP11I2C_TypeDefh) for i._ZN36_INTERNAL_14_I2C_driver_cpp_0101a1c120LL_I2C_TransmitData8EP11I2C_TypeDefh
    old_flash_lib.o(.ARM.exidx) refers to old_flash_lib.o(i._Z15FLASH_GetStatusv) for i._Z15FLASH_GetStatusv
    old_flash_lib.o(.ARM.exidx) refers to old_flash_lib.o(i._Z12FLASH_Unlockv) for i._Z12FLASH_Unlockv
    old_flash_lib.o(.ARM.exidx) refers to old_flash_lib.o(i._Z15FLASH_OB_Unlockv) for i._Z15FLASH_OB_Unlockv
    old_flash_lib.o(.ARM.exidx) refers to old_flash_lib.o(i._Z10FLASH_Lockv) for i._Z10FLASH_Lockv
    spi_dirver.o(i._ZN4TSPI10check_busyEv) refers to spi_dirver.o(i._ZN36_INTERNAL_14_SPI_dirver_cpp_4f82068423LL_SPI_IsActiveFlag_BSYEP11SPI_TypeDef) for [local to SPI_dirver_cpp]::LL_SPI_IsActiveFlag_BSY(SPI_TypeDef*)
    spi_dirver.o(i._ZN4TSPI10write_byteEh) refers to spi_dirver.o(i._ZN4TSPI10check_busyEv) for TSPI::check_busy()
    spi_dirver.o(i._ZN4TSPI14pin_clk_configEv) refers to stm32l4xx_ll_gpio.o(i.LL_GPIO_Init) for LL_GPIO_Init
    spi_dirver.o(i._ZN4TSPI7hw_initEv) refers to stm32l4xx_ll_rcc.o(i.LL_RCC_GetSystemClocksFreq) for LL_RCC_GetSystemClocksFreq
    spi_dirver.o(i._ZN4TSPI7hw_initEv) refers to memcpya.o(.text) for __aeabi_memcpy4
    spi_dirver.o(i._ZN4TSPI7hw_initEv) refers to stm32l4xx_ll_spi.o(i.LL_SPI_DeInit) for LL_SPI_DeInit
    spi_dirver.o(i._ZN4TSPI7hw_initEv) refers to stm32l4xx_ll_spi.o(i.LL_SPI_Init) for LL_SPI_Init
    spi_dirver.o(i._ZN4TSPI7hw_initEv) refers to spi_dirver.o(.constdata) for .constdata
    spi_dirver.o(i._ZN4TSPI8dma_initEv) refers to memcpya.o(.text) for __aeabi_memcpy4
    spi_dirver.o(i._ZN4TSPI8dma_initEv) refers to spi_dirver.o(.constdata) for .constdata
    spi_dirver.o(i._ZN4TSPIC1ERK7TSpi_HWNS_5TRateE) refers to memcpya.o(.text) for __aeabi_memcpy4
    spi_dirver.o(.ARM.exidx) refers to spi_dirver.o(i._ZN4TSPIC1ERK7TSpi_HWNS_5TRateE) for i._ZN4TSPIC1ERK7TSpi_HWNS_5TRateE
    spi_dirver.o(.ARM.exidx) refers to spi_dirver.o(i._ZN4TSPID1Ev) for i._ZN4TSPID1Ev
    spi_dirver.o(.ARM.exidx) refers to spi_dirver.o(i._ZN4TSPI14pin_clk_configEv) for i._ZN4TSPI14pin_clk_configEv
    spi_dirver.o(.ARM.exidx) refers to spi_dirver.o(i._ZN4TSPI7hw_initEv) for i._ZN4TSPI7hw_initEv
    spi_dirver.o(.ARM.exidx) refers to spi_dirver.o(i._ZN4TSPI11write_frameEPKhh) for i._ZN4TSPI11write_frameEPKhh
    spi_dirver.o(.ARM.exidx) refers to spi_dirver.o(i._ZN4TSPI10read_frameEv) for i._ZN4TSPI10read_frameEv
    spi_dirver.o(.ARM.exidx) refers to spi_dirver.o(i._ZN4TSPI10check_busyEv) for i._ZN4TSPI10check_busyEv
    spi_dirver.o(.ARM.exidx) refers to spi_dirver.o(i._ZN4TSPI10write_byteEh) for i._ZN4TSPI10write_byteEh
    spi_dirver.o(.ARM.exidx) refers to spi_dirver.o(i._ZN4TSPI8dma_initEv) for i._ZN4TSPI8dma_initEv
    spi_dirver.o(.ARM.exidx) refers to spi_dirver.o(i._ZN36_INTERNAL_14_SPI_dirver_cpp_4f82068424LL_AHB1_GRP1_EnableClockEj) for i._ZN36_INTERNAL_14_SPI_dirver_cpp_4f82068424LL_AHB1_GRP1_EnableClockEj
    spi_dirver.o(.ARM.exidx) refers to spi_dirver.o(i._ZN36_INTERNAL_14_SPI_dirver_cpp_4f82068420LL_DMA_ClearFlag_TC2EP11DMA_TypeDef) for i._ZN36_INTERNAL_14_SPI_dirver_cpp_4f82068420LL_DMA_ClearFlag_TC2EP11DMA_TypeDef
    spi_dirver.o(.ARM.exidx) refers to spi_dirver.o(i._ZN36_INTERNAL_14_SPI_dirver_cpp_4f82068420LL_DMA_ClearFlag_TC3EP11DMA_TypeDef) for i._ZN36_INTERNAL_14_SPI_dirver_cpp_4f82068420LL_DMA_ClearFlag_TC3EP11DMA_TypeDef
    spi_dirver.o(.ARM.exidx) refers to spi_dirver.o(i._ZN36_INTERNAL_14_SPI_dirver_cpp_4f82068420LL_DMA_ClearFlag_TC4EP11DMA_TypeDef) for i._ZN36_INTERNAL_14_SPI_dirver_cpp_4f82068420LL_DMA_ClearFlag_TC4EP11DMA_TypeDef
    spi_dirver.o(.ARM.exidx) refers to spi_dirver.o(i._ZN36_INTERNAL_14_SPI_dirver_cpp_4f82068420LL_DMA_ClearFlag_TC5EP11DMA_TypeDef) for i._ZN36_INTERNAL_14_SPI_dirver_cpp_4f82068420LL_DMA_ClearFlag_TC5EP11DMA_TypeDef
    spi_dirver.o(.ARM.exidx) refers to spi_dirver.o(i._ZN36_INTERNAL_14_SPI_dirver_cpp_4f82068423LL_SPI_IsActiveFlag_BSYEP11SPI_TypeDef) for i._ZN36_INTERNAL_14_SPI_dirver_cpp_4f82068423LL_SPI_IsActiveFlag_BSYEP11SPI_TypeDef
    spi_dirver.o(.constdata) refers to spi_dirver.o(i._ZN36_INTERNAL_14_SPI_dirver_cpp_4f82068424LL_AHB1_GRP1_EnableClockEj) for [local to SPI_dirver_cpp]::LL_AHB1_GRP1_EnableClock(unsigned)
    spi_dirver.o(.constdata) refers to spi_dirver.o(i._ZN36_INTERNAL_14_SPI_dirver_cpp_4f82068420LL_DMA_ClearFlag_TC3EP11DMA_TypeDef) for [local to SPI_dirver_cpp]::LL_DMA_ClearFlag_TC3(DMA_TypeDef*)
    spi_dirver.o(.constdata) refers to spi_dirver.o(i._ZN36_INTERNAL_14_SPI_dirver_cpp_4f82068420LL_DMA_ClearFlag_TC4EP11DMA_TypeDef) for [local to SPI_dirver_cpp]::LL_DMA_ClearFlag_TC4(DMA_TypeDef*)
    spi_dirver.o(.constdata) refers to spi_dirver.o(i._ZN36_INTERNAL_14_SPI_dirver_cpp_4f82068420LL_DMA_ClearFlag_TC5EP11DMA_TypeDef) for [local to SPI_dirver_cpp]::LL_DMA_ClearFlag_TC5(DMA_TypeDef*)
    spi_dirver.o(.constdata) refers to spi_dirver.o(i._ZN36_INTERNAL_14_SPI_dirver_cpp_4f82068420LL_DMA_ClearFlag_TC2EP11DMA_TypeDef) for [local to SPI_dirver_cpp]::LL_DMA_ClearFlag_TC2(DMA_TypeDef*)
    heap_2.o(i.prvHeapInit) refers to heap_2.o(.bss) for ucHeap
    heap_2.o(i.prvHeapInit) refers to heap_2.o(.data) for xStart
    heap_2.o(i.pvPortMalloc) refers to tasks.o(i.vTaskSuspendAll) for vTaskSuspendAll
    heap_2.o(i.pvPortMalloc) refers to heap_2.o(i.prvHeapInit) for prvHeapInit
    heap_2.o(i.pvPortMalloc) refers to tasks.o(i.xTaskResumeAll) for xTaskResumeAll
    heap_2.o(i.pvPortMalloc) refers to heap_2.o(.data) for xHeapHasBeenInitialised
    heap_2.o(i.vPortFree) refers to tasks.o(i.vTaskSuspendAll) for vTaskSuspendAll
    heap_2.o(i.vPortFree) refers to tasks.o(i.xTaskResumeAll) for xTaskResumeAll
    heap_2.o(i.vPortFree) refers to heap_2.o(.data) for xStart
    heap_2.o(i.xPortGetFreeHeapSize) refers to heap_2.o(.data) for xFreeBytesRemaining
    port.o(.emb_text) refers to tasks.o(i.vTaskSwitchContext) for vTaskSwitchContext
    port.o(.emb_text) refers to tasks.o(.data) for pxCurrentTCB
    port.o(i.SysTick_Handler) refers to tasks.o(i.xTaskIncrementTick) for xTaskIncrementTick
    port.o(i.prvTaskExitError) refers to port.o(.data) for uxCriticalNesting
    port.o(i.pxPortInitialiseStack) refers to port.o(i.prvTaskExitError) for prvTaskExitError
    port.o(i.vPortEndScheduler) refers to port.o(.data) for uxCriticalNesting
    port.o(i.vPortEnterCritical) refers to port.o(.data) for uxCriticalNesting
    port.o(i.vPortExitCritical) refers to port.o(.data) for uxCriticalNesting
    port.o(i.vPortValidateInterruptPriority) refers to port.o(.emb_text) for vPortGetIPSR
    port.o(i.vPortValidateInterruptPriority) refers to port.o(.data) for ucMaxSysCallPriority
    port.o(i.xPortStartScheduler) refers to port.o(i.vPortSetupTimerInterrupt) for vPortSetupTimerInterrupt
    port.o(i.xPortStartScheduler) refers to port.o(.emb_text) for __asm___6_port_c_39a90d8d__prvEnableVFP
    port.o(i.xPortStartScheduler) refers to port.o(.data) for ucMaxSysCallPriority
    queue.o(i.pcQueueGetName) refers to queue.o(.bss) for xQueueRegistry
    queue.o(i.prvCopyDataFromQueue) refers to memcpya.o(.text) for __aeabi_memcpy
    queue.o(i.prvCopyDataToQueue) refers to tasks.o(i.xTaskPriorityDisinherit) for xTaskPriorityDisinherit
    queue.o(i.prvCopyDataToQueue) refers to memcpya.o(.text) for __aeabi_memcpy
    queue.o(i.prvInitialiseMutex) refers to queue.o(i.xQueueGenericSend) for xQueueGenericSend
    queue.o(i.prvInitialiseNewQueue) refers to queue.o(i.xQueueGenericReset) for xQueueGenericReset
    queue.o(i.prvIsQueueEmpty) refers to port.o(i.vPortEnterCritical) for vPortEnterCritical
    queue.o(i.prvIsQueueEmpty) refers to port.o(i.vPortExitCritical) for vPortExitCritical
    queue.o(i.prvIsQueueFull) refers to port.o(i.vPortEnterCritical) for vPortEnterCritical
    queue.o(i.prvIsQueueFull) refers to port.o(i.vPortExitCritical) for vPortExitCritical
    queue.o(i.prvUnlockQueue) refers to port.o(i.vPortEnterCritical) for vPortEnterCritical
    queue.o(i.prvUnlockQueue) refers to tasks.o(i.xTaskRemoveFromEventList) for xTaskRemoveFromEventList
    queue.o(i.prvUnlockQueue) refers to tasks.o(i.vTaskMissedYield) for vTaskMissedYield
    queue.o(i.prvUnlockQueue) refers to port.o(i.vPortExitCritical) for vPortExitCritical
    queue.o(i.uxQueueMessagesWaiting) refers to port.o(i.vPortEnterCritical) for vPortEnterCritical
    queue.o(i.uxQueueMessagesWaiting) refers to port.o(i.vPortExitCritical) for vPortExitCritical
    queue.o(i.uxQueueSpacesAvailable) refers to port.o(i.vPortEnterCritical) for vPortEnterCritical
    queue.o(i.uxQueueSpacesAvailable) refers to port.o(i.vPortExitCritical) for vPortExitCritical
    queue.o(i.vQueueAddToRegistry) refers to queue.o(.bss) for xQueueRegistry
    queue.o(i.vQueueDelete) refers to queue.o(i.vQueueUnregisterQueue) for vQueueUnregisterQueue
    queue.o(i.vQueueDelete) refers to heap_2.o(i.vPortFree) for vPortFree
    queue.o(i.vQueueUnregisterQueue) refers to queue.o(.bss) for xQueueRegistry
    queue.o(i.vQueueWaitForMessageRestricted) refers to port.o(i.vPortEnterCritical) for vPortEnterCritical
    queue.o(i.vQueueWaitForMessageRestricted) refers to port.o(i.vPortExitCritical) for vPortExitCritical
    queue.o(i.vQueueWaitForMessageRestricted) refers to tasks.o(i.vTaskPlaceOnEventListRestricted) for vTaskPlaceOnEventListRestricted
    queue.o(i.vQueueWaitForMessageRestricted) refers to queue.o(i.prvUnlockQueue) for prvUnlockQueue
    queue.o(i.xQueueCreateCountingSemaphore) refers to queue.o(i.xQueueGenericCreate) for xQueueGenericCreate
    queue.o(i.xQueueCreateMutex) refers to queue.o(i.xQueueGenericCreate) for xQueueGenericCreate
    queue.o(i.xQueueCreateMutex) refers to queue.o(i.prvInitialiseMutex) for prvInitialiseMutex
    queue.o(i.xQueueGenericCreate) refers to heap_2.o(i.pvPortMalloc) for pvPortMalloc
    queue.o(i.xQueueGenericCreate) refers to queue.o(i.prvInitialiseNewQueue) for prvInitialiseNewQueue
    queue.o(i.xQueueGenericReceive) refers to tasks.o(i.xTaskGetSchedulerState) for xTaskGetSchedulerState
    queue.o(i.xQueueGenericReceive) refers to port.o(i.vPortEnterCritical) for vPortEnterCritical
    queue.o(i.xQueueGenericReceive) refers to queue.o(i.prvCopyDataFromQueue) for prvCopyDataFromQueue
    queue.o(i.xQueueGenericReceive) refers to tasks.o(i.pvTaskIncrementMutexHeldCount) for pvTaskIncrementMutexHeldCount
    queue.o(i.xQueueGenericReceive) refers to tasks.o(i.xTaskRemoveFromEventList) for xTaskRemoveFromEventList
    queue.o(i.xQueueGenericReceive) refers to port.o(i.vPortExitCritical) for vPortExitCritical
    queue.o(i.xQueueGenericReceive) refers to tasks.o(i.vTaskSetTimeOutState) for vTaskSetTimeOutState
    queue.o(i.xQueueGenericReceive) refers to tasks.o(i.vTaskSuspendAll) for vTaskSuspendAll
    queue.o(i.xQueueGenericReceive) refers to tasks.o(i.xTaskCheckForTimeOut) for xTaskCheckForTimeOut
    queue.o(i.xQueueGenericReceive) refers to queue.o(i.prvIsQueueEmpty) for prvIsQueueEmpty
    queue.o(i.xQueueGenericReceive) refers to tasks.o(i.vTaskPriorityInherit) for vTaskPriorityInherit
    queue.o(i.xQueueGenericReceive) refers to tasks.o(i.vTaskPlaceOnEventList) for vTaskPlaceOnEventList
    queue.o(i.xQueueGenericReceive) refers to queue.o(i.prvUnlockQueue) for prvUnlockQueue
    queue.o(i.xQueueGenericReceive) refers to tasks.o(i.xTaskResumeAll) for xTaskResumeAll
    queue.o(i.xQueueGenericReset) refers to port.o(i.vPortEnterCritical) for vPortEnterCritical
    queue.o(i.xQueueGenericReset) refers to tasks.o(i.xTaskRemoveFromEventList) for xTaskRemoveFromEventList
    queue.o(i.xQueueGenericReset) refers to list.o(i.vListInitialise) for vListInitialise
    queue.o(i.xQueueGenericReset) refers to port.o(i.vPortExitCritical) for vPortExitCritical
    queue.o(i.xQueueGenericSend) refers to tasks.o(i.xTaskGetSchedulerState) for xTaskGetSchedulerState
    queue.o(i.xQueueGenericSend) refers to port.o(i.vPortEnterCritical) for vPortEnterCritical
    queue.o(i.xQueueGenericSend) refers to queue.o(i.prvCopyDataToQueue) for prvCopyDataToQueue
    queue.o(i.xQueueGenericSend) refers to tasks.o(i.xTaskRemoveFromEventList) for xTaskRemoveFromEventList
    queue.o(i.xQueueGenericSend) refers to port.o(i.vPortExitCritical) for vPortExitCritical
    queue.o(i.xQueueGenericSend) refers to tasks.o(i.vTaskSetTimeOutState) for vTaskSetTimeOutState
    queue.o(i.xQueueGenericSend) refers to tasks.o(i.vTaskSuspendAll) for vTaskSuspendAll
    queue.o(i.xQueueGenericSend) refers to tasks.o(i.xTaskCheckForTimeOut) for xTaskCheckForTimeOut
    queue.o(i.xQueueGenericSend) refers to queue.o(i.prvIsQueueFull) for prvIsQueueFull
    queue.o(i.xQueueGenericSend) refers to tasks.o(i.vTaskPlaceOnEventList) for vTaskPlaceOnEventList
    queue.o(i.xQueueGenericSend) refers to queue.o(i.prvUnlockQueue) for prvUnlockQueue
    queue.o(i.xQueueGenericSend) refers to tasks.o(i.xTaskResumeAll) for xTaskResumeAll
    queue.o(i.xQueueGenericSendFromISR) refers to port.o(i.vPortValidateInterruptPriority) for vPortValidateInterruptPriority
    queue.o(i.xQueueGenericSendFromISR) refers to queue.o(i.prvCopyDataToQueue) for prvCopyDataToQueue
    queue.o(i.xQueueGenericSendFromISR) refers to tasks.o(i.xTaskRemoveFromEventList) for xTaskRemoveFromEventList
    queue.o(i.xQueueGetMutexHolder) refers to port.o(i.vPortEnterCritical) for vPortEnterCritical
    queue.o(i.xQueueGetMutexHolder) refers to port.o(i.vPortExitCritical) for vPortExitCritical
    queue.o(i.xQueueGiveFromISR) refers to port.o(i.vPortValidateInterruptPriority) for vPortValidateInterruptPriority
    queue.o(i.xQueueGiveFromISR) refers to tasks.o(i.xTaskRemoveFromEventList) for xTaskRemoveFromEventList
    queue.o(i.xQueueGiveMutexRecursive) refers to tasks.o(i.xTaskGetCurrentTaskHandle) for xTaskGetCurrentTaskHandle
    queue.o(i.xQueueGiveMutexRecursive) refers to queue.o(i.xQueueGenericSend) for xQueueGenericSend
    queue.o(i.xQueuePeekFromISR) refers to port.o(i.vPortValidateInterruptPriority) for vPortValidateInterruptPriority
    queue.o(i.xQueuePeekFromISR) refers to queue.o(i.prvCopyDataFromQueue) for prvCopyDataFromQueue
    queue.o(i.xQueueReceiveFromISR) refers to port.o(i.vPortValidateInterruptPriority) for vPortValidateInterruptPriority
    queue.o(i.xQueueReceiveFromISR) refers to queue.o(i.prvCopyDataFromQueue) for prvCopyDataFromQueue
    queue.o(i.xQueueReceiveFromISR) refers to tasks.o(i.xTaskRemoveFromEventList) for xTaskRemoveFromEventList
    queue.o(i.xQueueTakeMutexRecursive) refers to tasks.o(i.xTaskGetCurrentTaskHandle) for xTaskGetCurrentTaskHandle
    queue.o(i.xQueueTakeMutexRecursive) refers to queue.o(i.xQueueGenericReceive) for xQueueGenericReceive
    tasks.o(i.eTaskGetState) refers to port.o(i.vPortEnterCritical) for vPortEnterCritical
    tasks.o(i.eTaskGetState) refers to port.o(i.vPortExitCritical) for vPortExitCritical
    tasks.o(i.eTaskGetState) refers to tasks.o(.data) for pxCurrentTCB
    tasks.o(i.eTaskGetState) refers to tasks.o(.bss) for xSuspendedTaskList
    tasks.o(i.pcTaskGetName) refers to tasks.o(.data) for pxCurrentTCB
    tasks.o(i.prvAddCurrentTaskToDelayedList) refers to list.o(i.uxListRemove) for uxListRemove
    tasks.o(i.prvAddCurrentTaskToDelayedList) refers to list.o(i.vListInsertEnd) for vListInsertEnd
    tasks.o(i.prvAddCurrentTaskToDelayedList) refers to list.o(i.vListInsert) for vListInsert
    tasks.o(i.prvAddCurrentTaskToDelayedList) refers to tasks.o(.data) for xTickCount
    tasks.o(i.prvAddCurrentTaskToDelayedList) refers to tasks.o(.bss) for xSuspendedTaskList
    tasks.o(i.prvAddNewTaskToReadyList) refers to port.o(i.vPortEnterCritical) for vPortEnterCritical
    tasks.o(i.prvAddNewTaskToReadyList) refers to tasks.o(i.prvInitialiseTaskLists) for prvInitialiseTaskLists
    tasks.o(i.prvAddNewTaskToReadyList) refers to list.o(i.vListInsertEnd) for vListInsertEnd
    tasks.o(i.prvAddNewTaskToReadyList) refers to port.o(i.vPortExitCritical) for vPortExitCritical
    tasks.o(i.prvAddNewTaskToReadyList) refers to tasks.o(.data) for uxCurrentNumberOfTasks
    tasks.o(i.prvAddNewTaskToReadyList) refers to tasks.o(.bss) for pxReadyTasksLists
    tasks.o(i.prvCheckTasksWaitingTermination) refers to tasks.o(i.vTaskSuspendAll) for vTaskSuspendAll
    tasks.o(i.prvCheckTasksWaitingTermination) refers to tasks.o(i.xTaskResumeAll) for xTaskResumeAll
    tasks.o(i.prvCheckTasksWaitingTermination) refers to port.o(i.vPortEnterCritical) for vPortEnterCritical
    tasks.o(i.prvCheckTasksWaitingTermination) refers to list.o(i.uxListRemove) for uxListRemove
    tasks.o(i.prvCheckTasksWaitingTermination) refers to port.o(i.vPortExitCritical) for vPortExitCritical
    tasks.o(i.prvCheckTasksWaitingTermination) refers to tasks.o(i.prvDeleteTCB) for prvDeleteTCB
    tasks.o(i.prvCheckTasksWaitingTermination) refers to tasks.o(.bss) for xTasksWaitingTermination
    tasks.o(i.prvCheckTasksWaitingTermination) refers to tasks.o(.data) for uxCurrentNumberOfTasks
    tasks.o(i.prvDeleteTCB) refers to heap_2.o(i.vPortFree) for vPortFree
    tasks.o(i.prvIdleTask) refers to tasks.o(i.prvCheckTasksWaitingTermination) for prvCheckTasksWaitingTermination
    tasks.o(i.prvIdleTask) refers to main.o(i.vApplicationIdleHook) for vApplicationIdleHook
    tasks.o(i.prvInitialiseNewTask) refers to memseta.o(.text) for __aeabi_memset
    tasks.o(i.prvInitialiseNewTask) refers to list.o(i.vListInitialiseItem) for vListInitialiseItem
    tasks.o(i.prvInitialiseNewTask) refers to port.o(i.pxPortInitialiseStack) for pxPortInitialiseStack
    tasks.o(i.prvInitialiseTaskLists) refers to list.o(i.vListInitialise) for vListInitialise
    tasks.o(i.prvInitialiseTaskLists) refers to tasks.o(.bss) for pxReadyTasksLists
    tasks.o(i.prvInitialiseTaskLists) refers to tasks.o(.data) for pxDelayedTaskList
    tasks.o(i.prvListTasksWithinSingleList) refers to tasks.o(i.vTaskGetInfo) for vTaskGetInfo
    tasks.o(i.prvResetNextTaskUnblockTime) refers to tasks.o(.data) for pxDelayedTaskList
    tasks.o(i.prvTaskIsTaskSuspended) refers to tasks.o(.bss) for xSuspendedTaskList
    tasks.o(i.pvTaskIncrementMutexHeldCount) refers to tasks.o(.data) for pxCurrentTCB
    tasks.o(i.ulTaskNotifyTake) refers to port.o(i.vPortEnterCritical) for vPortEnterCritical
    tasks.o(i.ulTaskNotifyTake) refers to tasks.o(i.prvAddCurrentTaskToDelayedList) for prvAddCurrentTaskToDelayedList
    tasks.o(i.ulTaskNotifyTake) refers to port.o(i.vPortExitCritical) for vPortExitCritical
    tasks.o(i.ulTaskNotifyTake) refers to tasks.o(.data) for pxCurrentTCB
    tasks.o(i.uxTaskGetNumberOfTasks) refers to tasks.o(.data) for uxCurrentNumberOfTasks
    tasks.o(i.uxTaskGetSystemState) refers to tasks.o(i.vTaskSuspendAll) for vTaskSuspendAll
    tasks.o(i.uxTaskGetSystemState) refers to tasks.o(i.prvListTasksWithinSingleList) for prvListTasksWithinSingleList
    tasks.o(i.uxTaskGetSystemState) refers to tasks.o(i.xTaskResumeAll) for xTaskResumeAll
    tasks.o(i.uxTaskGetSystemState) refers to tasks.o(.data) for uxCurrentNumberOfTasks
    tasks.o(i.uxTaskGetSystemState) refers to tasks.o(.bss) for pxReadyTasksLists
    tasks.o(i.uxTaskPriorityGet) refers to port.o(i.vPortEnterCritical) for vPortEnterCritical
    tasks.o(i.uxTaskPriorityGet) refers to port.o(i.vPortExitCritical) for vPortExitCritical
    tasks.o(i.uxTaskPriorityGet) refers to tasks.o(.data) for pxCurrentTCB
    tasks.o(i.uxTaskPriorityGetFromISR) refers to port.o(i.vPortValidateInterruptPriority) for vPortValidateInterruptPriority
    tasks.o(i.uxTaskPriorityGetFromISR) refers to tasks.o(.data) for pxCurrentTCB
    tasks.o(i.uxTaskResetEventItemValue) refers to tasks.o(.data) for pxCurrentTCB
    tasks.o(i.vTaskDelay) refers to tasks.o(i.vTaskSuspendAll) for vTaskSuspendAll
    tasks.o(i.vTaskDelay) refers to tasks.o(i.prvAddCurrentTaskToDelayedList) for prvAddCurrentTaskToDelayedList
    tasks.o(i.vTaskDelay) refers to tasks.o(i.xTaskResumeAll) for xTaskResumeAll
    tasks.o(i.vTaskDelay) refers to tasks.o(.data) for uxSchedulerSuspended
    tasks.o(i.vTaskDelayUntil) refers to tasks.o(i.vTaskSuspendAll) for vTaskSuspendAll
    tasks.o(i.vTaskDelayUntil) refers to tasks.o(i.prvAddCurrentTaskToDelayedList) for prvAddCurrentTaskToDelayedList
    tasks.o(i.vTaskDelayUntil) refers to tasks.o(i.xTaskResumeAll) for xTaskResumeAll
    tasks.o(i.vTaskDelayUntil) refers to tasks.o(.data) for uxSchedulerSuspended
    tasks.o(i.vTaskDelete) refers to port.o(i.vPortEnterCritical) for vPortEnterCritical
    tasks.o(i.vTaskDelete) refers to list.o(i.uxListRemove) for uxListRemove
    tasks.o(i.vTaskDelete) refers to list.o(i.vListInsertEnd) for vListInsertEnd
    tasks.o(i.vTaskDelete) refers to tasks.o(i.prvDeleteTCB) for prvDeleteTCB
    tasks.o(i.vTaskDelete) refers to tasks.o(i.prvResetNextTaskUnblockTime) for prvResetNextTaskUnblockTime
    tasks.o(i.vTaskDelete) refers to port.o(i.vPortExitCritical) for vPortExitCritical
    tasks.o(i.vTaskDelete) refers to tasks.o(.data) for pxCurrentTCB
    tasks.o(i.vTaskDelete) refers to tasks.o(.bss) for pxReadyTasksLists
    tasks.o(i.vTaskEndScheduler) refers to port.o(i.vPortEndScheduler) for vPortEndScheduler
    tasks.o(i.vTaskEndScheduler) refers to tasks.o(.data) for xSchedulerRunning
    tasks.o(i.vTaskGetInfo) refers to tasks.o(i.vTaskSuspendAll) for vTaskSuspendAll
    tasks.o(i.vTaskGetInfo) refers to tasks.o(i.xTaskResumeAll) for xTaskResumeAll
    tasks.o(i.vTaskGetInfo) refers to tasks.o(i.eTaskGetState) for eTaskGetState
    tasks.o(i.vTaskGetInfo) refers to tasks.o(i.prvTaskCheckFreeStackSpace) for prvTaskCheckFreeStackSpace
    tasks.o(i.vTaskGetInfo) refers to tasks.o(.data) for pxCurrentTCB
    tasks.o(i.vTaskMissedYield) refers to tasks.o(.data) for xYieldPending
    tasks.o(i.vTaskNotifyGiveFromISR) refers to port.o(i.vPortValidateInterruptPriority) for vPortValidateInterruptPriority
    tasks.o(i.vTaskNotifyGiveFromISR) refers to list.o(i.uxListRemove) for uxListRemove
    tasks.o(i.vTaskNotifyGiveFromISR) refers to list.o(i.vListInsertEnd) for vListInsertEnd
    tasks.o(i.vTaskNotifyGiveFromISR) refers to tasks.o(.data) for uxSchedulerSuspended
    tasks.o(i.vTaskNotifyGiveFromISR) refers to tasks.o(.bss) for pxReadyTasksLists
    tasks.o(i.vTaskPlaceOnEventList) refers to list.o(i.vListInsert) for vListInsert
    tasks.o(i.vTaskPlaceOnEventList) refers to tasks.o(i.prvAddCurrentTaskToDelayedList) for prvAddCurrentTaskToDelayedList
    tasks.o(i.vTaskPlaceOnEventList) refers to tasks.o(.data) for pxCurrentTCB
    tasks.o(i.vTaskPlaceOnEventListRestricted) refers to list.o(i.vListInsertEnd) for vListInsertEnd
    tasks.o(i.vTaskPlaceOnEventListRestricted) refers to tasks.o(i.prvAddCurrentTaskToDelayedList) for prvAddCurrentTaskToDelayedList
    tasks.o(i.vTaskPlaceOnEventListRestricted) refers to tasks.o(.data) for pxCurrentTCB
    tasks.o(i.vTaskPlaceOnUnorderedEventList) refers to list.o(i.vListInsertEnd) for vListInsertEnd
    tasks.o(i.vTaskPlaceOnUnorderedEventList) refers to tasks.o(i.prvAddCurrentTaskToDelayedList) for prvAddCurrentTaskToDelayedList
    tasks.o(i.vTaskPlaceOnUnorderedEventList) refers to tasks.o(.data) for uxSchedulerSuspended
    tasks.o(i.vTaskPriorityInherit) refers to list.o(i.uxListRemove) for uxListRemove
    tasks.o(i.vTaskPriorityInherit) refers to list.o(i.vListInsertEnd) for vListInsertEnd
    tasks.o(i.vTaskPriorityInherit) refers to tasks.o(.data) for pxCurrentTCB
    tasks.o(i.vTaskPriorityInherit) refers to tasks.o(.bss) for pxReadyTasksLists
    tasks.o(i.vTaskPrioritySet) refers to port.o(i.vPortEnterCritical) for vPortEnterCritical
    tasks.o(i.vTaskPrioritySet) refers to list.o(i.uxListRemove) for uxListRemove
    tasks.o(i.vTaskPrioritySet) refers to list.o(i.vListInsertEnd) for vListInsertEnd
    tasks.o(i.vTaskPrioritySet) refers to port.o(i.vPortExitCritical) for vPortExitCritical
    tasks.o(i.vTaskPrioritySet) refers to tasks.o(.data) for pxCurrentTCB
    tasks.o(i.vTaskPrioritySet) refers to tasks.o(.bss) for pxReadyTasksLists
    tasks.o(i.vTaskResume) refers to port.o(i.vPortEnterCritical) for vPortEnterCritical
    tasks.o(i.vTaskResume) refers to tasks.o(i.prvTaskIsTaskSuspended) for prvTaskIsTaskSuspended
    tasks.o(i.vTaskResume) refers to list.o(i.uxListRemove) for uxListRemove
    tasks.o(i.vTaskResume) refers to list.o(i.vListInsertEnd) for vListInsertEnd
    tasks.o(i.vTaskResume) refers to port.o(i.vPortExitCritical) for vPortExitCritical
    tasks.o(i.vTaskResume) refers to tasks.o(.data) for pxCurrentTCB
    tasks.o(i.vTaskResume) refers to tasks.o(.bss) for pxReadyTasksLists
    tasks.o(i.vTaskSetTimeOutState) refers to tasks.o(.data) for xNumOfOverflows
    tasks.o(i.vTaskStartScheduler) refers to tasks.o(i.xTaskCreate) for xTaskCreate
    tasks.o(i.vTaskStartScheduler) refers to timers.o(i.xTimerCreateTimerTask) for xTimerCreateTimerTask
    tasks.o(i.vTaskStartScheduler) refers to port.o(i.xPortStartScheduler) for xPortStartScheduler
    tasks.o(i.vTaskStartScheduler) refers to tasks.o(.data) for xIdleTaskHandle
    tasks.o(i.vTaskStartScheduler) refers to tasks.o(i.prvIdleTask) for prvIdleTask
    tasks.o(i.vTaskSuspend) refers to port.o(i.vPortEnterCritical) for vPortEnterCritical
    tasks.o(i.vTaskSuspend) refers to list.o(i.uxListRemove) for uxListRemove
    tasks.o(i.vTaskSuspend) refers to list.o(i.vListInsertEnd) for vListInsertEnd
    tasks.o(i.vTaskSuspend) refers to port.o(i.vPortExitCritical) for vPortExitCritical
    tasks.o(i.vTaskSuspend) refers to tasks.o(i.prvResetNextTaskUnblockTime) for prvResetNextTaskUnblockTime
    tasks.o(i.vTaskSuspend) refers to tasks.o(i.vTaskSwitchContext) for vTaskSwitchContext
    tasks.o(i.vTaskSuspend) refers to tasks.o(.data) for pxCurrentTCB
    tasks.o(i.vTaskSuspend) refers to tasks.o(.bss) for pxReadyTasksLists
    tasks.o(i.vTaskSuspendAll) refers to tasks.o(.data) for uxSchedulerSuspended
    tasks.o(i.vTaskSwitchContext) refers to main.o(i.vApplicationStackOverflowHook) for vApplicationStackOverflowHook
    tasks.o(i.vTaskSwitchContext) refers to tasks.o(.data) for uxSchedulerSuspended
    tasks.o(i.vTaskSwitchContext) refers to tasks.o(.bss) for pxReadyTasksLists
    tasks.o(i.xTaskCheckForTimeOut) refers to port.o(i.vPortEnterCritical) for vPortEnterCritical
    tasks.o(i.xTaskCheckForTimeOut) refers to tasks.o(i.vTaskSetTimeOutState) for vTaskSetTimeOutState
    tasks.o(i.xTaskCheckForTimeOut) refers to port.o(i.vPortExitCritical) for vPortExitCritical
    tasks.o(i.xTaskCheckForTimeOut) refers to tasks.o(.data) for xTickCount
    tasks.o(i.xTaskCreate) refers to heap_2.o(i.pvPortMalloc) for pvPortMalloc
    tasks.o(i.xTaskCreate) refers to heap_2.o(i.vPortFree) for vPortFree
    tasks.o(i.xTaskCreate) refers to tasks.o(i.prvInitialiseNewTask) for prvInitialiseNewTask
    tasks.o(i.xTaskCreate) refers to tasks.o(i.prvAddNewTaskToReadyList) for prvAddNewTaskToReadyList
    tasks.o(i.xTaskGenericNotify) refers to port.o(i.vPortEnterCritical) for vPortEnterCritical
    tasks.o(i.xTaskGenericNotify) refers to list.o(i.uxListRemove) for uxListRemove
    tasks.o(i.xTaskGenericNotify) refers to list.o(i.vListInsertEnd) for vListInsertEnd
    tasks.o(i.xTaskGenericNotify) refers to port.o(i.vPortExitCritical) for vPortExitCritical
    tasks.o(i.xTaskGenericNotify) refers to tasks.o(.data) for uxTopReadyPriority
    tasks.o(i.xTaskGenericNotify) refers to tasks.o(.bss) for pxReadyTasksLists
    tasks.o(i.xTaskGenericNotifyFromISR) refers to port.o(i.vPortValidateInterruptPriority) for vPortValidateInterruptPriority
    tasks.o(i.xTaskGenericNotifyFromISR) refers to list.o(i.uxListRemove) for uxListRemove
    tasks.o(i.xTaskGenericNotifyFromISR) refers to list.o(i.vListInsertEnd) for vListInsertEnd
    tasks.o(i.xTaskGenericNotifyFromISR) refers to tasks.o(.data) for uxSchedulerSuspended
    tasks.o(i.xTaskGenericNotifyFromISR) refers to tasks.o(.bss) for pxReadyTasksLists
    tasks.o(i.xTaskGetCurrentTaskHandle) refers to tasks.o(.data) for pxCurrentTCB
    tasks.o(i.xTaskGetSchedulerState) refers to tasks.o(.data) for xSchedulerRunning
    tasks.o(i.xTaskGetTickCount) refers to tasks.o(.data) for xTickCount
    tasks.o(i.xTaskGetTickCountFromISR) refers to port.o(i.vPortValidateInterruptPriority) for vPortValidateInterruptPriority
    tasks.o(i.xTaskGetTickCountFromISR) refers to tasks.o(.data) for xTickCount
    tasks.o(i.xTaskIncrementTick) refers to tasks.o(i.prvResetNextTaskUnblockTime) for prvResetNextTaskUnblockTime
    tasks.o(i.xTaskIncrementTick) refers to list.o(i.uxListRemove) for uxListRemove
    tasks.o(i.xTaskIncrementTick) refers to list.o(i.vListInsertEnd) for vListInsertEnd
    tasks.o(i.xTaskIncrementTick) refers to tasks.o(.data) for uxSchedulerSuspended
    tasks.o(i.xTaskIncrementTick) refers to tasks.o(.bss) for pxReadyTasksLists
    tasks.o(i.xTaskNotifyStateClear) refers to port.o(i.vPortEnterCritical) for vPortEnterCritical
    tasks.o(i.xTaskNotifyStateClear) refers to port.o(i.vPortExitCritical) for vPortExitCritical
    tasks.o(i.xTaskNotifyStateClear) refers to tasks.o(.data) for pxCurrentTCB
    tasks.o(i.xTaskNotifyWait) refers to port.o(i.vPortEnterCritical) for vPortEnterCritical
    tasks.o(i.xTaskNotifyWait) refers to tasks.o(i.prvAddCurrentTaskToDelayedList) for prvAddCurrentTaskToDelayedList
    tasks.o(i.xTaskNotifyWait) refers to port.o(i.vPortExitCritical) for vPortExitCritical
    tasks.o(i.xTaskNotifyWait) refers to tasks.o(.data) for pxCurrentTCB
    tasks.o(i.xTaskPriorityDisinherit) refers to list.o(i.uxListRemove) for uxListRemove
    tasks.o(i.xTaskPriorityDisinherit) refers to list.o(i.vListInsertEnd) for vListInsertEnd
    tasks.o(i.xTaskPriorityDisinherit) refers to tasks.o(.data) for pxCurrentTCB
    tasks.o(i.xTaskPriorityDisinherit) refers to tasks.o(.bss) for pxReadyTasksLists
    tasks.o(i.xTaskRemoveFromEventList) refers to list.o(i.uxListRemove) for uxListRemove
    tasks.o(i.xTaskRemoveFromEventList) refers to list.o(i.vListInsertEnd) for vListInsertEnd
    tasks.o(i.xTaskRemoveFromEventList) refers to tasks.o(.data) for uxSchedulerSuspended
    tasks.o(i.xTaskRemoveFromEventList) refers to tasks.o(.bss) for pxReadyTasksLists
    tasks.o(i.xTaskRemoveFromUnorderedEventList) refers to list.o(i.uxListRemove) for uxListRemove
    tasks.o(i.xTaskRemoveFromUnorderedEventList) refers to list.o(i.vListInsertEnd) for vListInsertEnd
    tasks.o(i.xTaskRemoveFromUnorderedEventList) refers to tasks.o(.data) for uxSchedulerSuspended
    tasks.o(i.xTaskRemoveFromUnorderedEventList) refers to tasks.o(.bss) for pxReadyTasksLists
    tasks.o(i.xTaskResumeAll) refers to port.o(i.vPortEnterCritical) for vPortEnterCritical
    tasks.o(i.xTaskResumeAll) refers to list.o(i.uxListRemove) for uxListRemove
    tasks.o(i.xTaskResumeAll) refers to list.o(i.vListInsertEnd) for vListInsertEnd
    tasks.o(i.xTaskResumeAll) refers to tasks.o(i.prvResetNextTaskUnblockTime) for prvResetNextTaskUnblockTime
    tasks.o(i.xTaskResumeAll) refers to tasks.o(i.xTaskIncrementTick) for xTaskIncrementTick
    tasks.o(i.xTaskResumeAll) refers to port.o(i.vPortExitCritical) for vPortExitCritical
    tasks.o(i.xTaskResumeAll) refers to tasks.o(.data) for uxSchedulerSuspended
    tasks.o(i.xTaskResumeAll) refers to tasks.o(.bss) for xPendingReadyList
    tasks.o(i.xTaskResumeFromISR) refers to port.o(i.vPortValidateInterruptPriority) for vPortValidateInterruptPriority
    tasks.o(i.xTaskResumeFromISR) refers to tasks.o(i.prvTaskIsTaskSuspended) for prvTaskIsTaskSuspended
    tasks.o(i.xTaskResumeFromISR) refers to list.o(i.uxListRemove) for uxListRemove
    tasks.o(i.xTaskResumeFromISR) refers to list.o(i.vListInsertEnd) for vListInsertEnd
    tasks.o(i.xTaskResumeFromISR) refers to tasks.o(.data) for uxSchedulerSuspended
    tasks.o(i.xTaskResumeFromISR) refers to tasks.o(.bss) for pxReadyTasksLists
    timers.o(i.prvCheckForValidListAndQueue) refers to port.o(i.vPortEnterCritical) for vPortEnterCritical
    timers.o(i.prvCheckForValidListAndQueue) refers to list.o(i.vListInitialise) for vListInitialise
    timers.o(i.prvCheckForValidListAndQueue) refers to queue.o(i.xQueueGenericCreate) for xQueueGenericCreate
    timers.o(i.prvCheckForValidListAndQueue) refers to queue.o(i.vQueueAddToRegistry) for vQueueAddToRegistry
    timers.o(i.prvCheckForValidListAndQueue) refers to port.o(i.vPortExitCritical) for vPortExitCritical
    timers.o(i.prvCheckForValidListAndQueue) refers to timers.o(.data) for xTimerQueue
    timers.o(i.prvCheckForValidListAndQueue) refers to timers.o(.bss) for xActiveTimerList1
    timers.o(i.prvGetNextExpireTime) refers to timers.o(.data) for pxCurrentTimerList
    timers.o(i.prvInitialiseNewTimer) refers to timers.o(i.prvCheckForValidListAndQueue) for prvCheckForValidListAndQueue
    timers.o(i.prvInitialiseNewTimer) refers to list.o(i.vListInitialiseItem) for vListInitialiseItem
    timers.o(i.prvInsertTimerInActiveList) refers to list.o(i.vListInsert) for vListInsert
    timers.o(i.prvInsertTimerInActiveList) refers to timers.o(.data) for pxOverflowTimerList
    timers.o(i.prvProcessExpiredTimer) refers to list.o(i.uxListRemove) for uxListRemove
    timers.o(i.prvProcessExpiredTimer) refers to timers.o(i.prvInsertTimerInActiveList) for prvInsertTimerInActiveList
    timers.o(i.prvProcessExpiredTimer) refers to timers.o(i.xTimerGenericCommand) for xTimerGenericCommand
    timers.o(i.prvProcessExpiredTimer) refers to timers.o(.data) for pxCurrentTimerList
    timers.o(i.prvProcessReceivedCommands) refers to list.o(i.uxListRemove) for uxListRemove
    timers.o(i.prvProcessReceivedCommands) refers to timers.o(i.prvSampleTimeNow) for prvSampleTimeNow
    timers.o(i.prvProcessReceivedCommands) refers to timers.o(i.prvInsertTimerInActiveList) for prvInsertTimerInActiveList
    timers.o(i.prvProcessReceivedCommands) refers to timers.o(i.xTimerGenericCommand) for xTimerGenericCommand
    timers.o(i.prvProcessReceivedCommands) refers to heap_2.o(i.vPortFree) for vPortFree
    timers.o(i.prvProcessReceivedCommands) refers to queue.o(i.xQueueGenericReceive) for xQueueGenericReceive
    timers.o(i.prvProcessReceivedCommands) refers to timers.o(.data) for xTimerQueue
    timers.o(i.prvProcessTimerOrBlockTask) refers to tasks.o(i.vTaskSuspendAll) for vTaskSuspendAll
    timers.o(i.prvProcessTimerOrBlockTask) refers to timers.o(i.prvSampleTimeNow) for prvSampleTimeNow
    timers.o(i.prvProcessTimerOrBlockTask) refers to tasks.o(i.xTaskResumeAll) for xTaskResumeAll
    timers.o(i.prvProcessTimerOrBlockTask) refers to timers.o(i.prvProcessExpiredTimer) for prvProcessExpiredTimer
    timers.o(i.prvProcessTimerOrBlockTask) refers to queue.o(i.vQueueWaitForMessageRestricted) for vQueueWaitForMessageRestricted
    timers.o(i.prvProcessTimerOrBlockTask) refers to timers.o(.data) for pxOverflowTimerList
    timers.o(i.prvSampleTimeNow) refers to tasks.o(i.xTaskGetTickCount) for xTaskGetTickCount
    timers.o(i.prvSampleTimeNow) refers to timers.o(i.prvSwitchTimerLists) for prvSwitchTimerLists
    timers.o(i.prvSampleTimeNow) refers to timers.o(.data) for xLastTime
    timers.o(i.prvSwitchTimerLists) refers to list.o(i.uxListRemove) for uxListRemove
    timers.o(i.prvSwitchTimerLists) refers to list.o(i.vListInsert) for vListInsert
    timers.o(i.prvSwitchTimerLists) refers to timers.o(i.xTimerGenericCommand) for xTimerGenericCommand
    timers.o(i.prvSwitchTimerLists) refers to timers.o(.data) for pxCurrentTimerList
    timers.o(i.prvTimerTask) refers to timers.o(i.prvGetNextExpireTime) for prvGetNextExpireTime
    timers.o(i.prvTimerTask) refers to timers.o(i.prvProcessTimerOrBlockTask) for prvProcessTimerOrBlockTask
    timers.o(i.prvTimerTask) refers to timers.o(i.prvProcessReceivedCommands) for prvProcessReceivedCommands
    timers.o(i.pvTimerGetTimerID) refers to port.o(i.vPortEnterCritical) for vPortEnterCritical
    timers.o(i.pvTimerGetTimerID) refers to port.o(i.vPortExitCritical) for vPortExitCritical
    timers.o(i.vTimerSetTimerID) refers to port.o(i.vPortEnterCritical) for vPortEnterCritical
    timers.o(i.vTimerSetTimerID) refers to port.o(i.vPortExitCritical) for vPortExitCritical
    timers.o(i.xTimerCreate) refers to heap_2.o(i.pvPortMalloc) for pvPortMalloc
    timers.o(i.xTimerCreate) refers to timers.o(i.prvInitialiseNewTimer) for prvInitialiseNewTimer
    timers.o(i.xTimerCreateTimerTask) refers to timers.o(i.prvCheckForValidListAndQueue) for prvCheckForValidListAndQueue
    timers.o(i.xTimerCreateTimerTask) refers to tasks.o(i.xTaskCreate) for xTaskCreate
    timers.o(i.xTimerCreateTimerTask) refers to timers.o(.data) for xTimerQueue
    timers.o(i.xTimerCreateTimerTask) refers to timers.o(i.prvTimerTask) for prvTimerTask
    timers.o(i.xTimerGenericCommand) refers to tasks.o(i.xTaskGetSchedulerState) for xTaskGetSchedulerState
    timers.o(i.xTimerGenericCommand) refers to queue.o(i.xQueueGenericSend) for xQueueGenericSend
    timers.o(i.xTimerGenericCommand) refers to queue.o(i.xQueueGenericSendFromISR) for xQueueGenericSendFromISR
    timers.o(i.xTimerGenericCommand) refers to timers.o(.data) for xTimerQueue
    timers.o(i.xTimerGetTimerDaemonTaskHandle) refers to timers.o(.data) for xTimerTaskHandle
    timers.o(i.xTimerIsTimerActive) refers to port.o(i.vPortEnterCritical) for vPortEnterCritical
    timers.o(i.xTimerIsTimerActive) refers to port.o(i.vPortExitCritical) for vPortExitCritical
    modbus_app.o(i._ZN10TModbusApp11cmp_if_setsEv) refers to usart_driver_.o(i._ZNK6TUsart8get_setsEv) for TUsart::get_sets() const
    modbus_app.o(i._ZN10TModbusApp11cmp_if_setsEv) refers to memcpya.o(.text) for __aeabi_memcpy4
    modbus_app.o(i._ZN10TModbusApp11cmp_if_setsEv) refers to model.o(i._ZN6TModel15get_u_baud_rateEv) for TModel::get_u_baud_rate()
    modbus_app.o(i._ZN10TModbusApp11cmp_if_setsEv) refers to model.o(i._ZN6TModel9get_u_parEv) for TModel::get_u_par()
    modbus_app.o(i._ZN10TModbusApp11cmp_if_setsEv) refers to usart_driver_.o(i._ZN6TUsart8set_setsERKNS_5TSetsE) for TUsart::set_sets(const TUsart::TSets&)
    modbus_app.o(i._ZN10TModbusApp11cmp_if_setsEv) refers to modbus_app.o(.constdata) for .constdata
    modbus_app.o(i._ZN10TModbusApp11cmp_if_setsEv) refers to model.o(.bss) for Model
    modbus_app.o(i._ZN10TModbusApp12s_read_coilsEPht) refers to modbus_app.o(i._ZN10TModbusApp9read_bitsEPhtNS_7TMbFnctE) for TModbusApp::read_bits(unsigned char*, unsigned short, TModbusApp::TMbFnct)
    modbus_app.o(i._ZN10TModbusApp12write_singleEPhtNS_7TMbFnctE) refers to modbus_app.o(i._ZN10TModbusApp11chk_new_valEtNS_7TMbFnctE) for TModbusApp::chk_new_val(unsigned short, TModbusApp::TMbFnct)
    modbus_app.o(i._ZN10TModbusApp12write_singleEPhtNS_7TMbFnctE) refers to modbus_app.o(i._ZN10TModbusApp24s_formatting_error_replyEPh) for TModbusApp::s_formatting_error_reply(unsigned char*)
    modbus_app.o(i._ZN10TModbusApp12write_singleEPhtNS_7TMbFnctE) refers to modbus_app.o(i._ZN10TModbusApp14chk_legal_itemEPKN12TDevHandlers4TPDUES3_tNS_7TMbFnctEMS0_FbPvEPS3_) for TModbusApp::chk_legal_item(const TDevHandlers::TPDU*, const TDevHandlers::TPDU*, unsigned short, TModbusApp::TMbFnct, bool(TDevHandlers::*)(void*), const TDevHandlers::TPDU**)
    modbus_app.o(i._ZN10TModbusApp12write_singleEPhtNS_7TMbFnctE) refers to modbus_link.o(i._ZN11TModbusLink5CRC16EPKht) for TModbusLink::CRC16(const unsigned char*, unsigned short)
    modbus_app.o(i._ZN10TModbusApp12write_singleEPhtNS_7TMbFnctE) refers to modbus_link.o(i._ZN11TModbusLink14start_transmitEh) for TModbusLink::start_transmit(unsigned char)
    modbus_app.o(i._ZN10TModbusApp12write_singleEPhtNS_7TMbFnctE) refers to modbus_app.o(.constdata) for <Data1>
    modbus_app.o(i._ZN10TModbusApp18m_processing_replyEPht) refers to memcpya.o(.text) for __aeabi_memcpy4
    modbus_app.o(i._ZN10TModbusApp18m_processing_replyEPht) refers to modbus_app.o(.constdata) for .constdata
    modbus_app.o(i._ZN10TModbusApp18s_checking_requestEv) refers to modbus_link.o(i._ZN11TModbusLink19get_rx_dma_data_qtyEv) for TModbusLink::get_rx_dma_data_qty()
    modbus_app.o(i._ZN10TModbusApp18s_checking_requestEv) refers to modbus_app.o(t._ZSt4copyIPhS0_ET0_T_S2_S1_) for T2 std::copy<unsigned char*, unsigned char*>(T1, T1, T2)
    modbus_app.o(i._ZN10TModbusApp18s_checking_requestEv) refers to modbus_link.o(i._ZN11TModbusLink12handle_frameEPKht) for TModbusLink::handle_frame(const unsigned char*, unsigned short)
    modbus_app.o(i._ZN10TModbusApp18s_checking_requestEv) refers to modbus_link.o(i._ZN11TModbusLink12stop_receiveEv) for TModbusLink::stop_receive()
    modbus_app.o(i._ZN10TModbusApp18s_checking_requestEv) refers to modbus_app.o(.data) for TModbusApp::s_checking_request()::Ctr
    modbus_app.o(i._ZN10TModbusApp18s_checking_requestEv) refers to modbus_app.o(.constdata) for .constdata
    modbus_app.o(i._ZN10TModbusApp18s_report_server_idEPht) refers to dev_handlers.o(i._ZN12TDevHandlers9get_id_17Ev) for TDevHandlers::get_id_17()
    modbus_app.o(i._ZN10TModbusApp18s_report_server_idEPht) refers to strlen.o(.text) for strlen
    modbus_app.o(i._ZN10TModbusApp18s_report_server_idEPht) refers to modbus_link.o(i._ZN11TModbusLink5CRC16EPKht) for TModbusLink::CRC16(const unsigned char*, unsigned short)
    modbus_app.o(i._ZN10TModbusApp18s_report_server_idEPht) refers to modbus_link.o(i._ZN11TModbusLink14start_transmitEh) for TModbusLink::start_transmit(unsigned char)
    modbus_app.o(i._ZN10TModbusApp19s_write_single_coilEPht) refers to modbus_app.o(i._ZN10TModbusApp12write_singleEPhtNS_7TMbFnctE) for TModbusApp::write_single(unsigned char*, unsigned short, TModbusApp::TMbFnct)
    modbus_app.o(i._ZN10TModbusApp22m_read_input_registersEPht) refers to dev_handlers.o(i._ZN12TDevHandlers31m_read_input_registers_completeEv) for TDevHandlers::m_read_input_registers_complete()
    modbus_app.o(i._ZN10TModbusApp22s_read_discrete_inputsEPht) refers to modbus_app.o(i._ZN10TModbusApp9read_bitsEPhtNS_7TMbFnctE) for TModbusApp::read_bits(unsigned char*, unsigned short, TModbusApp::TMbFnct)
    modbus_app.o(i._ZN10TModbusApp22s_read_input_registersEPht) refers to modbus_app.o(i._ZN10TModbusApp9read_regsEPhtNS_7TMbFnctE) for TModbusApp::read_regs(unsigned char*, unsigned short, TModbusApp::TMbFnct)
    modbus_app.o(i._ZN10TModbusApp23s_write_single_registerEPht) refers to modbus_app.o(i._ZN10TModbusApp12write_singleEPhtNS_7TMbFnctE) for TModbusApp::write_single(unsigned char*, unsigned short, TModbusApp::TMbFnct)
    modbus_app.o(i._ZN10TModbusApp24s_formatting_error_replyEPh) refers to modbus_link.o(i._ZN11TModbusLink5CRC16EPKht) for TModbusLink::CRC16(const unsigned char*, unsigned short)
    modbus_app.o(i._ZN10TModbusApp24s_formatting_error_replyEPh) refers to modbus_link.o(i._ZN11TModbusLink14start_transmitEh) for TModbusLink::start_transmit(unsigned char)
    modbus_app.o(i._ZN10TModbusApp24s_formatting_error_replyEPh) refers to modbus_app.o(.data) for TModbusApp::s_formatting_error_reply(unsigned char*)::Ctr
    modbus_app.o(i._ZN10TModbusApp24s_read_holding_registersEPht) refers to modbus_app.o(i._ZN10TModbusApp9read_regsEPhtNS_7TMbFnctE) for TModbusApp::read_regs(unsigned char*, unsigned short, TModbusApp::TMbFnct)
    modbus_app.o(i._ZN10TModbusApp25s_write_multiple_registerEPht) refers to modbus_app.o(i._ZN10TModbusApp9write_mulEPhtNS_7TMbFnctE) for TModbusApp::write_mul(unsigned char*, unsigned short, TModbusApp::TMbFnct)
    modbus_app.o(i._ZN10TModbusApp28s_processing_required_actionEPht) refers to memcpya.o(.text) for __aeabi_memcpy4
    modbus_app.o(i._ZN10TModbusApp28s_processing_required_actionEPht) refers to modbus_app.o(i._ZN10TModbusApp24s_formatting_error_replyEPh) for TModbusApp::s_formatting_error_reply(unsigned char*)
    modbus_app.o(i._ZN10TModbusApp28s_processing_required_actionEPht) refers to modbus_app.o(.constdata) for .constdata
    modbus_app.o(i._ZN10TModbusApp3fsmEv) refers to memcpya.o(.text) for __aeabi_memcpy4
    modbus_app.o(i._ZN10TModbusApp3fsmEv) refers to modbus_app.o(.constdata) for .constdata
    modbus_app.o(i._ZN10TModbusApp4idleEv) refers to modbus_link.o(i._Z7get_eofhN11TModbusLink9TProcTypeE) for get_eof(unsigned char, TModbusLink::TProcType)
    modbus_app.o(i._ZN10TModbusApp4idleEv) refers to modbus_link.o(i._ZN11TModbusLink12start_handleEv) for TModbusLink::start_handle()
    modbus_app.o(i._ZN10TModbusApp4idleEv) refers to tasks.o(i.vTaskDelay) for vTaskDelay
    modbus_app.o(i._ZN10TModbusApp4idleEv) refers to queue.o(i.xQueueGenericReceive) for xQueueGenericReceive
    modbus_app.o(i._ZN10TModbusApp4idleEv) refers to modbus_link.o(i._ZN11TModbusLink12stop_receiveEv) for TModbusLink::stop_receive()
    modbus_app.o(i._ZN10TModbusApp9read_bitsEPhtNS_7TMbFnctE) refers to modbus_app.o(i._ZN10TModbusApp24s_formatting_error_replyEPh) for TModbusApp::s_formatting_error_reply(unsigned char*)
    modbus_app.o(i._ZN10TModbusApp9read_bitsEPhtNS_7TMbFnctE) refers to modbus_app.o(i._ZN10TModbusApp14chk_legal_itemEPKN12TDevHandlers4TPDUES3_tNS_7TMbFnctEMS0_FbPvEPS3_) for TModbusApp::chk_legal_item(const TDevHandlers::TPDU*, const TDevHandlers::TPDU*, unsigned short, TModbusApp::TMbFnct, bool(TDevHandlers::*)(void*), const TDevHandlers::TPDU**)
    modbus_app.o(i._ZN10TModbusApp9read_bitsEPhtNS_7TMbFnctE) refers to modbus_link.o(i._ZN11TModbusLink5CRC16EPKht) for TModbusLink::CRC16(const unsigned char*, unsigned short)
    modbus_app.o(i._ZN10TModbusApp9read_bitsEPhtNS_7TMbFnctE) refers to modbus_link.o(i._ZN11TModbusLink14start_transmitEh) for TModbusLink::start_transmit(unsigned char)
    modbus_app.o(i._ZN10TModbusApp9read_bitsEPhtNS_7TMbFnctE) refers to modbus_app.o(.constdata) for <Data1>
    modbus_app.o(i._ZN10TModbusApp9read_bitsEPhtNS_7TMbFnctE) refers to modbus_app.o(.data) for DinputCtr
    modbus_app.o(i._ZN10TModbusApp9read_regsEPhtNS_7TMbFnctE) refers to modbus_app.o(i._ZN10TModbusApp24s_formatting_error_replyEPh) for TModbusApp::s_formatting_error_reply(unsigned char*)
    modbus_app.o(i._ZN10TModbusApp9read_regsEPhtNS_7TMbFnctE) refers to modbus_app.o(i._ZN10TModbusApp14chk_legal_itemEPKN12TDevHandlers4TPDUES3_tNS_7TMbFnctEMS0_FbPvEPS3_) for TModbusApp::chk_legal_item(const TDevHandlers::TPDU*, const TDevHandlers::TPDU*, unsigned short, TModbusApp::TMbFnct, bool(TDevHandlers::*)(void*), const TDevHandlers::TPDU**)
    modbus_app.o(i._ZN10TModbusApp9read_regsEPhtNS_7TMbFnctE) refers to modbus_link.o(i._ZN11TModbusLink5CRC16EPKht) for TModbusLink::CRC16(const unsigned char*, unsigned short)
    modbus_app.o(i._ZN10TModbusApp9read_regsEPhtNS_7TMbFnctE) refers to modbus_link.o(i._ZN11TModbusLink14start_transmitEh) for TModbusLink::start_transmit(unsigned char)
    modbus_app.o(i._ZN10TModbusApp9read_regsEPhtNS_7TMbFnctE) refers to modbus_app.o(.constdata) for <Data1>
    modbus_app.o(i._ZN10TModbusApp9write_mulEPhtNS_7TMbFnctE) refers to modbus_app.o(i._ZN10TModbusApp11chk_new_valEtNS_7TMbFnctE) for TModbusApp::chk_new_val(unsigned short, TModbusApp::TMbFnct)
    modbus_app.o(i._ZN10TModbusApp9write_mulEPhtNS_7TMbFnctE) refers to modbus_app.o(i._ZN10TModbusApp24s_formatting_error_replyEPh) for TModbusApp::s_formatting_error_reply(unsigned char*)
    modbus_app.o(i._ZN10TModbusApp9write_mulEPhtNS_7TMbFnctE) refers to modbus_app.o(i._ZN10TModbusApp14chk_legal_itemEPKN12TDevHandlers4TPDUES3_tNS_7TMbFnctEMS0_FbPvEPS3_) for TModbusApp::chk_legal_item(const TDevHandlers::TPDU*, const TDevHandlers::TPDU*, unsigned short, TModbusApp::TMbFnct, bool(TDevHandlers::*)(void*), const TDevHandlers::TPDU**)
    modbus_app.o(i._ZN10TModbusApp9write_mulEPhtNS_7TMbFnctE) refers to modbus_link.o(i._ZN11TModbusLink5CRC16EPKht) for TModbusLink::CRC16(const unsigned char*, unsigned short)
    modbus_app.o(i._ZN10TModbusApp9write_mulEPhtNS_7TMbFnctE) refers to modbus_link.o(i._ZN11TModbusLink14start_transmitEh) for TModbusLink::start_transmit(unsigned char)
    modbus_app.o(i._ZN10TModbusApp9write_mulEPhtNS_7TMbFnctE) refers to modbus_app.o(.constdata) for <Data1>
    modbus_app.o(i._ZN10TModbusAppC1ERK9TUsart_HWN11TModbusLink9TProcTypeEPN12TDevHandlers11TPduHandlerEPPvS9_) refers to modbus_link.o(i._ZN11TModbusLinkC1ERK9TUsart_HWNS_9TProcTypeEPPvS5_) for TModbusLink::TModbusLink(const TUsart_HW&, TModbusLink::TProcType, void**, void**)
    modbus_app.o(i._ZN10TModbusAppC1ERK9TUsart_HWN11TModbusLink9TProcTypeEPN12TDevHandlers11TPduHandlerEPPvS9_) refers to dev_handlers.o(i._ZN12TDevHandlersC1EPNS_11TPduHandlerE) for TDevHandlers::TDevHandlers(TDevHandlers::TPduHandler*)
    modbus_app.o(i._ZN10TModbusAppC1ERK9TUsart_HWN11TModbusLink9TProcTypeEPN12TDevHandlers11TPduHandlerEPPvS9_) refers to modbus_app.o(.constdata) for <Data2>
    modbus_app.o(i._ZN10TModbusAppD1Ev) refers to dev_handlers.o(i._ZN12TDevHandlersD1Ev) for TDevHandlers::~TDevHandlers()
    modbus_app.o(i._ZN10TModbusAppD1Ev) refers to modbus_link.o(i._ZN11TModbusLinkD1Ev) for TModbusLink::~TModbusLink()
    modbus_app.o(.ARM.exidx) refers to modbus_app.o(i._ZN10TModbusAppC1ERK9TUsart_HWN11TModbusLink9TProcTypeEPN12TDevHandlers11TPduHandlerEPPvS9_) for i._ZN10TModbusAppC1ERK9TUsart_HWN11TModbusLink9TProcTypeEPN12TDevHandlers11TPduHandlerEPPvS9_
    modbus_app.o(.ARM.exidx) refers to modbus_app.o(i._ZN10TModbusAppD1Ev) for i._ZN10TModbusAppD1Ev
    modbus_app.o(.ARM.exidx) refers to modbus_app.o(i._ZN10TModbusApp3fsmEv) for i._ZN10TModbusApp3fsmEv
    modbus_app.o(.ARM.exidx) refers to modbus_app.o(i._ZN10TModbusApp11cmp_if_setsEv) for i._ZN10TModbusApp11cmp_if_setsEv
    modbus_app.o(.ARM.exidx) refers to modbus_app.o(i._ZN10TModbusApp6m_idleEv) for i._ZN10TModbusApp6m_idleEv
    modbus_app.o(.ARM.exidx) refers to modbus_app.o(i._ZN10TModbusApp26m_waiting_turnaround_delayEv) for i._ZN10TModbusApp26m_waiting_turnaround_delayEv
    modbus_app.o(.ARM.exidx) refers to modbus_app.o(i._ZN10TModbusApp19m_waiting_for_replyEv) for i._ZN10TModbusApp19m_waiting_for_replyEv
    modbus_app.o(.ARM.exidx) refers to modbus_app.o(i._ZN10TModbusApp18m_processing_replyEPht) for i._ZN10TModbusApp18m_processing_replyEPht
    modbus_app.o(.ARM.exidx) refers to modbus_app.o(i._ZN10TModbusApp18m_processing_errorEv) for i._ZN10TModbusApp18m_processing_errorEv
    modbus_app.o(.ARM.exidx) refers to modbus_app.o(i._ZN10TModbusApp4idleEv) for i._ZN10TModbusApp4idleEv
    modbus_app.o(.ARM.exidx) refers to modbus_app.o(i._ZN10TModbusApp18s_checking_requestEv) for i._ZN10TModbusApp18s_checking_requestEv
    modbus_app.o(.ARM.exidx) refers to modbus_app.o(i._ZN10TModbusApp25s_formatting_normal_replyEv) for i._ZN10TModbusApp25s_formatting_normal_replyEv
    modbus_app.o(.ARM.exidx) refers to modbus_app.o(i._ZN10TModbusApp24s_formatting_error_replyEPh) for i._ZN10TModbusApp24s_formatting_error_replyEPh
    modbus_app.o(.ARM.exidx) refers to modbus_app.o(i._ZN10TModbusApp28s_processing_required_actionEPht) for i._ZN10TModbusApp28s_processing_required_actionEPht
    modbus_app.o(.ARM.exidx) refers to modbus_app.o(i._ZN10TModbusApp22m_read_discrete_inputsEPht) for i._ZN10TModbusApp22m_read_discrete_inputsEPht
    modbus_app.o(.ARM.exidx) refers to modbus_app.o(i._ZN10TModbusApp24m_read_holding_registersEPht) for i._ZN10TModbusApp24m_read_holding_registersEPht
    modbus_app.o(.ARM.exidx) refers to modbus_app.o(i._ZN10TModbusApp22m_read_input_registersEPht) for i._ZN10TModbusApp22m_read_input_registersEPht
    modbus_app.o(.ARM.exidx) refers to modbus_app.o(i._ZN10TModbusApp19m_write_single_coilEPht) for i._ZN10TModbusApp19m_write_single_coilEPht
    modbus_app.o(.ARM.exidx) refers to modbus_app.o(i._ZN10TModbusApp23m_write_single_registerEPht) for i._ZN10TModbusApp23m_write_single_registerEPht
    modbus_app.o(.ARM.exidx) refers to modbus_app.o(i._ZN10TModbusApp14chk_legal_itemEPKN12TDevHandlers4TPDUES3_tNS_7TMbFnctEMS0_FbPvEPS3_) for i._ZN10TModbusApp14chk_legal_itemEPKN12TDevHandlers4TPDUES3_tNS_7TMbFnctEMS0_FbPvEPS3_
    modbus_app.o(.ARM.exidx) refers to modbus_app.o(i._ZN10TModbusApp9read_bitsEPhtNS_7TMbFnctE) for i._ZN10TModbusApp9read_bitsEPhtNS_7TMbFnctE
    modbus_app.o(.ARM.exidx) refers to modbus_app.o(i._ZN10TModbusApp12s_read_coilsEPht) for i._ZN10TModbusApp12s_read_coilsEPht
    modbus_app.o(.ARM.exidx) refers to modbus_app.o(i._ZN10TModbusApp22s_read_discrete_inputsEPht) for i._ZN10TModbusApp22s_read_discrete_inputsEPht
    modbus_app.o(.ARM.exidx) refers to modbus_app.o(i._ZN10TModbusApp9read_regsEPhtNS_7TMbFnctE) for i._ZN10TModbusApp9read_regsEPhtNS_7TMbFnctE
    modbus_app.o(.ARM.exidx) refers to modbus_app.o(i._ZN10TModbusApp24s_read_holding_registersEPht) for i._ZN10TModbusApp24s_read_holding_registersEPht
    modbus_app.o(.ARM.exidx) refers to modbus_app.o(i._ZN10TModbusApp22s_read_input_registersEPht) for i._ZN10TModbusApp22s_read_input_registersEPht
    modbus_app.o(.ARM.exidx) refers to modbus_app.o(i._ZN10TModbusApp11chk_new_valEtNS_7TMbFnctE) for i._ZN10TModbusApp11chk_new_valEtNS_7TMbFnctE
    modbus_app.o(.ARM.exidx) refers to modbus_app.o(i._ZN10TModbusApp12write_singleEPhtNS_7TMbFnctE) for i._ZN10TModbusApp12write_singleEPhtNS_7TMbFnctE
    modbus_app.o(.ARM.exidx) refers to modbus_app.o(i._ZN10TModbusApp19s_write_single_coilEPht) for i._ZN10TModbusApp19s_write_single_coilEPht
    modbus_app.o(.ARM.exidx) refers to modbus_app.o(i._ZN10TModbusApp23s_write_single_registerEPht) for i._ZN10TModbusApp23s_write_single_registerEPht
    modbus_app.o(.ARM.exidx) refers to modbus_app.o(i._ZN10TModbusApp9write_mulEPhtNS_7TMbFnctE) for i._ZN10TModbusApp9write_mulEPhtNS_7TMbFnctE
    modbus_app.o(.ARM.exidx) refers to modbus_app.o(i._ZN10TModbusApp25s_write_multiple_registerEPht) for i._ZN10TModbusApp25s_write_multiple_registerEPht
    modbus_app.o(.ARM.exidx) refers to modbus_app.o(i._ZN10TModbusApp18s_report_server_idEPht) for i._ZN10TModbusApp18s_report_server_idEPht
    modbus_app.o(.constdata) refers to dev_handlers.o(i._ZN12TDevHandlers10chk_accessEPv) for TDevHandlers::chk_access(void*)
    modbus_app.o(.constdata) refers to modbus_app.o(i._ZN10TModbusApp4idleEv) for TModbusApp::idle()
    modbus_app.o(.constdata) refers to modbus_app.o(i._ZN10TModbusApp18s_checking_requestEv) for TModbusApp::s_checking_request()
    modbus_app.o(.constdata) refers to modbus_app.o(i._ZN10TModbusApp25s_formatting_normal_replyEv) for TModbusApp::s_formatting_normal_reply()
    modbus_app.o(.constdata) refers to modbus_app.o(i._ZN10TModbusApp22m_read_discrete_inputsEPht) for TModbusApp::m_read_discrete_inputs(unsigned char*, unsigned short)
    modbus_app.o(.constdata) refers to modbus_app.o(i._ZN10TModbusApp24m_read_holding_registersEPht) for TModbusApp::m_read_holding_registers(unsigned char*, unsigned short)
    modbus_app.o(.constdata) refers to modbus_app.o(i._ZN10TModbusApp22m_read_input_registersEPht) for TModbusApp::m_read_input_registers(unsigned char*, unsigned short)
    modbus_app.o(.constdata) refers to modbus_app.o(i._ZN10TModbusApp19m_write_single_coilEPht) for TModbusApp::m_write_single_coil(unsigned char*, unsigned short)
    modbus_app.o(.constdata) refers to modbus_app.o(i._ZN10TModbusApp23m_write_single_registerEPht) for TModbusApp::m_write_single_register(unsigned char*, unsigned short)
    modbus_app.o(.constdata) refers to modbus_app.o(i._ZN10TModbusApp18m_processing_replyEPht) for TModbusApp::m_processing_reply(unsigned char*, unsigned short)
    modbus_app.o(.constdata) refers to modbus_app.o(i._ZN10TModbusApp28s_processing_required_actionEPht) for TModbusApp::s_processing_required_action(unsigned char*, unsigned short)
    modbus_app.o(.constdata) refers to modbus_app.o(i._ZN10TModbusApp12s_read_coilsEPht) for TModbusApp::s_read_coils(unsigned char*, unsigned short)
    modbus_app.o(.constdata) refers to modbus_app.o(i._ZN10TModbusApp22s_read_discrete_inputsEPht) for TModbusApp::s_read_discrete_inputs(unsigned char*, unsigned short)
    modbus_app.o(.constdata) refers to modbus_app.o(i._ZN10TModbusApp24s_read_holding_registersEPht) for TModbusApp::s_read_holding_registers(unsigned char*, unsigned short)
    modbus_app.o(.constdata) refers to modbus_app.o(i._ZN10TModbusApp22s_read_input_registersEPht) for TModbusApp::s_read_input_registers(unsigned char*, unsigned short)
    modbus_app.o(.constdata) refers to modbus_app.o(i._ZN10TModbusApp19s_write_single_coilEPht) for TModbusApp::s_write_single_coil(unsigned char*, unsigned short)
    modbus_app.o(.constdata) refers to modbus_app.o(i._ZN10TModbusApp23s_write_single_registerEPht) for TModbusApp::s_write_single_register(unsigned char*, unsigned short)
    modbus_app.o(.constdata) refers to modbus_app.o(i._ZN10TModbusApp25s_write_multiple_registerEPht) for TModbusApp::s_write_multiple_register(unsigned char*, unsigned short)
    modbus_app.o(.constdata) refers to modbus_app.o(i._ZN10TModbusApp18s_report_server_idEPht) for TModbusApp::s_report_server_id(unsigned char*, unsigned short)
    modbus_link.o(i.DMA1_Channel4_IRQHandler) refers to modbus_link.o(i._ZN32_INTERNAL_15_modbus_link_cpp_Eof21LL_DMA_DisableChannelEP11DMA_TypeDefj) for [local to modbus_link_cpp]::LL_DMA_DisableChannel(DMA_TypeDef*, unsigned)
    modbus_link.o(i.DMA1_Channel4_IRQHandler) refers to modbus_link.o(i._ZN32_INTERNAL_15_modbus_link_cpp_Eof7set_eofEP11DMA_TypeDefjb) for [local to modbus_link_cpp]::set_eof(DMA_TypeDef*, unsigned, bool)
    modbus_link.o(i.DMA1_Channel7_IRQHandler) refers to modbus_link.o(i._ZN32_INTERNAL_15_modbus_link_cpp_Eof21LL_DMA_DisableChannelEP11DMA_TypeDefj) for [local to modbus_link_cpp]::LL_DMA_DisableChannel(DMA_TypeDef*, unsigned)
    modbus_link.o(i.DMA1_Channel7_IRQHandler) refers to modbus_link.o(i._ZN32_INTERNAL_15_modbus_link_cpp_Eof7set_eofEP11DMA_TypeDefjb) for [local to modbus_link_cpp]::set_eof(DMA_TypeDef*, unsigned, bool)
    modbus_link.o(i.DMA2_Channel6_IRQHandler) refers to modbus_link.o(i._ZN32_INTERNAL_15_modbus_link_cpp_Eof21LL_DMA_DisableChannelEP11DMA_TypeDefj) for [local to modbus_link_cpp]::LL_DMA_DisableChannel(DMA_TypeDef*, unsigned)
    modbus_link.o(i.DMA2_Channel6_IRQHandler) refers to modbus_link.o(i._ZN32_INTERNAL_15_modbus_link_cpp_Eof7set_eofEP11DMA_TypeDefjb) for [local to modbus_link_cpp]::set_eof(DMA_TypeDef*, unsigned, bool)
    modbus_link.o(i.USART1_IRQHandler) refers to memcpya.o(.text) for __aeabi_memcpy4
    modbus_link.o(i.USART1_IRQHandler) refers to modbus_link.o(i._ZN32_INTERNAL_15_modbus_link_cpp_Eof17usart_int_handlerEP9TUsartInt) for [local to modbus_link_cpp]::usart_int_handler(TUsartInt*)
    modbus_link.o(i.USART1_IRQHandler) refers to modbus_link.o(.constdata) for .constdata
    modbus_link.o(i.USART2_IRQHandler) refers to memcpya.o(.text) for __aeabi_memcpy4
    modbus_link.o(i.USART2_IRQHandler) refers to modbus_link.o(i._ZN32_INTERNAL_15_modbus_link_cpp_Eof17usart_int_handlerEP9TUsartInt) for [local to modbus_link_cpp]::usart_int_handler(TUsartInt*)
    modbus_link.o(i.USART2_IRQHandler) refers to modbus_link.o(.constdata) for .constdata
    modbus_link.o(i._Z7get_eofhN11TModbusLink9TProcTypeE) refers to modbus_link.o(.data) for Eof
    modbus_link.o(i._ZN11TModbusLink12handle_frameEPKht) refers to modbus_link.o(i._ZN11TModbusLink9chk_frameEPKht) for TModbusLink::chk_frame(const unsigned char*, unsigned short)
    modbus_link.o(i._ZN11TModbusLink12handle_frameEPKht) refers to usart_driver_.o(i._ZN6TUsart14dis_eob_detectEv) for TUsart::dis_eob_detect()
    modbus_link.o(i._ZN11TModbusLink12handle_frameEPKht) refers to modbus_link.o(i._ZN11TModbusLink9_2_ch_cntEv) for TModbusLink::_2_ch_cnt()
    modbus_link.o(i._ZN11TModbusLink12handle_frameEPKht) refers to tasks.o(i.vTaskDelay) for vTaskDelay
    modbus_link.o(i._ZN11TModbusLink12handle_frameEPKht) refers to modbus_link.o(i._ZN11TModbusLink19get_rx_dma_data_qtyEv) for TModbusLink::get_rx_dma_data_qty()
    modbus_link.o(i._ZN11TModbusLink12handle_frameEPKht) refers to modbus_link.o(i._ZN32_INTERNAL_15_modbus_link_cpp_Eof7set_eofEhN11TModbusLink9TProcTypeEb) for [local to modbus_link_cpp]::set_eof(unsigned char, TModbusLink::TProcType, bool)
    modbus_link.o(i._ZN11TModbusLink12handle_frameEPKht) refers to modbus_link.o(i._ZN11TModbusLink12stop_receiveEv) for TModbusLink::stop_receive()
    modbus_link.o(i._ZN11TModbusLink12start_handleEv) refers to usart_driver_.o(i._ZN6TUsart13en_eob_detectEh) for TUsart::en_eob_detect(unsigned char)
    modbus_link.o(i._ZN11TModbusLink12start_handleEv) refers to modbus_link.o(i._ZN32_INTERNAL_15_modbus_link_cpp_Eof20LL_DMA_EnableChannelEP11DMA_TypeDefj) for [local to modbus_link_cpp]::LL_DMA_EnableChannel(DMA_TypeDef*, unsigned)
    modbus_link.o(i._ZN11TModbusLink12start_handleEv) refers to modbus_link.o(.constdata) for Dma
    modbus_link.o(i._ZN11TModbusLink12stop_receiveEv) refers to usart_driver_.o(i._ZN6TUsart14dis_eob_detectEv) for TUsart::dis_eob_detect()
    modbus_link.o(i._ZN11TModbusLink12stop_receiveEv) refers to modbus_link.o(i._ZN32_INTERNAL_15_modbus_link_cpp_Eof21LL_DMA_DisableChannelEP11DMA_TypeDefj) for [local to modbus_link_cpp]::LL_DMA_DisableChannel(DMA_TypeDef*, unsigned)
    modbus_link.o(i._ZN11TModbusLink12stop_receiveEv) refers to modbus_link.o(i._ZN11TModbusLink19get_rx_dma_data_qtyEv) for TModbusLink::get_rx_dma_data_qty()
    modbus_link.o(i._ZN11TModbusLink12stop_receiveEv) refers to modbus_link.o(.constdata) for Dma
    modbus_link.o(i._ZN11TModbusLink14start_transmitEh) refers to modbus_link.o(i._ZN32_INTERNAL_15_modbus_link_cpp_Eof20LL_DMA_EnableChannelEP11DMA_TypeDefj) for [local to modbus_link_cpp]::LL_DMA_EnableChannel(DMA_TypeDef*, unsigned)
    modbus_link.o(i._ZN11TModbusLink14start_transmitEh) refers to modbus_link.o(.constdata) for Dma
    modbus_link.o(i._ZN11TModbusLink19get_rx_dma_data_qtyEv) refers to modbus_link.o(.constdata) for Dma
    modbus_link.o(i._ZN11TModbusLink5CRC16EPKht) refers to modbus_link.o(.data) for auchCRCHi
    modbus_link.o(i._ZN11TModbusLink8init_dmaEv) refers to memcpya.o(.text) for __aeabi_memcpy4
    modbus_link.o(i._ZN11TModbusLink8init_dmaEv) refers to stm32l4xx_ll_dma.o(i.LL_DMA_Init) for LL_DMA_Init
    modbus_link.o(i._ZN11TModbusLink8init_dmaEv) refers to modbus_link.o(i._ZN32_INTERNAL_15_modbus_link_cpp_Eof20LL_DMA_EnableChannelEP11DMA_TypeDefj) for [local to modbus_link_cpp]::LL_DMA_EnableChannel(DMA_TypeDef*, unsigned)
    modbus_link.o(i._ZN11TModbusLink8init_dmaEv) refers to modbus_link.o(i._ZN32_INTERNAL_15_modbus_link_cpp_Eof21LL_DMA_DisableChannelEP11DMA_TypeDefj) for [local to modbus_link_cpp]::LL_DMA_DisableChannel(DMA_TypeDef*, unsigned)
    modbus_link.o(i._ZN11TModbusLink8init_dmaEv) refers to modbus_link.o(.constdata) for .constdata
    modbus_link.o(i._ZN11TModbusLink9chk_frameEPKht) refers to modbus_link.o(i._ZN11TModbusLink5CRC16EPKht) for TModbusLink::CRC16(const unsigned char*, unsigned short)
    modbus_link.o(i._ZN11TModbusLinkC1ERK9TUsart_HWNS_9TProcTypeEPPvS5_) refers to usart_driver_.o(i._ZN6TUsartC1ERK9TUsart_HWRKNS_5TSetsENS_5TModeE) for TUsart::TUsart(const TUsart_HW&, const TUsart::TSets&, TUsart::TMode)
    modbus_link.o(i._ZN11TModbusLinkC1ERK9TUsart_HWNS_9TProcTypeEPPvS5_) refers to usart_driver_.o(.constdata) for TUsart::DEF_SETS
    modbus_link.o(i._ZN11TModbusLinkC1ERK9TUsart_HWNS_9TProcTypeEPPvS5_) refers to modbus_link.o(.constdata) for <Data1>
    modbus_link.o(i._ZN11TModbusLinkD1Ev) refers to usart_driver_.o(i._ZN6TUsartD1Ev) for TUsart::~TUsart()
    modbus_link.o(i._ZN32_INTERNAL_15_modbus_link_cpp_Eof17usart_int_handlerEP9TUsartInt) refers to queue.o(i.xQueueGiveFromISR) for xQueueGiveFromISR
    modbus_link.o(i._ZN32_INTERNAL_15_modbus_link_cpp_Eof20LL_DMA_EnableChannelEP11DMA_TypeDefj) refers to modbus_link.o(.constdata) for CHANNEL_OFFSET_TAB
    modbus_link.o(i._ZN32_INTERNAL_15_modbus_link_cpp_Eof21LL_DMA_DisableChannelEP11DMA_TypeDefj) refers to modbus_link.o(.constdata) for CHANNEL_OFFSET_TAB
    modbus_link.o(i._ZN32_INTERNAL_15_modbus_link_cpp_Eof7set_eofEP11DMA_TypeDefjb) refers to modbus_link.o(.data) for Eof
    modbus_link.o(i._ZN32_INTERNAL_15_modbus_link_cpp_Eof7set_eofEhN11TModbusLink9TProcTypeEb) refers to modbus_link.o(.data) for Eof
    modbus_link.o(.ARM.exidx) refers to modbus_link.o(i._ZN32_INTERNAL_15_modbus_link_cpp_Eof20LL_DMA_ClearFlag_TC4EP11DMA_TypeDef) for i._ZN32_INTERNAL_15_modbus_link_cpp_Eof20LL_DMA_ClearFlag_TC4EP11DMA_TypeDef
    modbus_link.o(.ARM.exidx) refers to modbus_link.o(i._ZN32_INTERNAL_15_modbus_link_cpp_Eof20LL_DMA_ClearFlag_TC6EP11DMA_TypeDef) for i._ZN32_INTERNAL_15_modbus_link_cpp_Eof20LL_DMA_ClearFlag_TC6EP11DMA_TypeDef
    modbus_link.o(.ARM.exidx) refers to modbus_link.o(i._ZN32_INTERNAL_15_modbus_link_cpp_Eof20LL_DMA_ClearFlag_TC7EP11DMA_TypeDef) for i._ZN32_INTERNAL_15_modbus_link_cpp_Eof20LL_DMA_ClearFlag_TC7EP11DMA_TypeDef
    modbus_link.o(.ARM.exidx) refers to modbus_link.o(i._ZN32_INTERNAL_15_modbus_link_cpp_Eof17usart_int_handlerEP9TUsartInt) for i._ZN32_INTERNAL_15_modbus_link_cpp_Eof17usart_int_handlerEP9TUsartInt
    modbus_link.o(.ARM.exidx) refers to modbus_link.o(i.USART1_IRQHandler) for i.USART1_IRQHandler
    modbus_link.o(.ARM.exidx) refers to modbus_link.o(i.USART2_IRQHandler) for i.USART2_IRQHandler
    modbus_link.o(.ARM.exidx) refers to modbus_link.o(i._ZN32_INTERNAL_15_modbus_link_cpp_Eof7set_eofEP11DMA_TypeDefjb) for i._ZN32_INTERNAL_15_modbus_link_cpp_Eof7set_eofEP11DMA_TypeDefjb
    modbus_link.o(.ARM.exidx) refers to modbus_link.o(i.DMA1_Channel7_IRQHandler) for i.DMA1_Channel7_IRQHandler
    modbus_link.o(.ARM.exidx) refers to modbus_link.o(i.DMA2_Channel6_IRQHandler) for i.DMA2_Channel6_IRQHandler
    modbus_link.o(.ARM.exidx) refers to modbus_link.o(i.DMA1_Channel4_IRQHandler) for i.DMA1_Channel4_IRQHandler
    modbus_link.o(.ARM.exidx) refers to modbus_link.o(i._Z7get_eofhN11TModbusLink9TProcTypeE) for i._Z7get_eofhN11TModbusLink9TProcTypeE
    modbus_link.o(.ARM.exidx) refers to modbus_link.o(i._ZN32_INTERNAL_15_modbus_link_cpp_Eof7set_eofEhN11TModbusLink9TProcTypeEb) for i._ZN32_INTERNAL_15_modbus_link_cpp_Eof7set_eofEhN11TModbusLink9TProcTypeEb
    modbus_link.o(.ARM.exidx) refers to modbus_link.o(i._ZN11TModbusLinkC1ERK9TUsart_HWNS_9TProcTypeEPPvS5_) for i._ZN11TModbusLinkC1ERK9TUsart_HWNS_9TProcTypeEPPvS5_
    modbus_link.o(.ARM.exidx) refers to modbus_link.o(i._ZN11TModbusLinkD1Ev) for i._ZN11TModbusLinkD1Ev
    modbus_link.o(.ARM.exidx) refers to modbus_link.o(i._ZN11TModbusLink8init_dmaEv) for i._ZN11TModbusLink8init_dmaEv
    modbus_link.o(.ARM.exidx) refers to modbus_link.o(i._ZN11TModbusLink8set_addrEh) for i._ZN11TModbusLink8set_addrEh
    modbus_link.o(.ARM.exidx) refers to modbus_link.o(i._ZN11TModbusLink8get_addrEv) for i._ZN11TModbusLink8get_addrEv
    modbus_link.o(.ARM.exidx) refers to modbus_link.o(i._ZN11TModbusLink5CRC16EPKht) for i._ZN11TModbusLink5CRC16EPKht
    modbus_link.o(.ARM.exidx) refers to modbus_link.o(i._ZN11TModbusLink14start_transmitEh) for i._ZN11TModbusLink14start_transmitEh
    modbus_link.o(.ARM.exidx) refers to modbus_link.o(i._ZN11TModbusLink19get_rx_dma_data_qtyEv) for i._ZN11TModbusLink19get_rx_dma_data_qtyEv
    modbus_link.o(.ARM.exidx) refers to modbus_link.o(i._ZN11TModbusLink12stop_receiveEv) for i._ZN11TModbusLink12stop_receiveEv
    modbus_link.o(.ARM.exidx) refers to modbus_link.o(i._ZN11TModbusLink12start_handleEv) for i._ZN11TModbusLink12start_handleEv
    modbus_link.o(.ARM.exidx) refers to modbus_link.o(i._ZN11TModbusLink9_2_ch_cntEv) for i._ZN11TModbusLink9_2_ch_cntEv
    modbus_link.o(.ARM.exidx) refers to modbus_link.o(i._ZN11TModbusLink9chk_frameEPKht) for i._ZN11TModbusLink9chk_frameEPKht
    modbus_link.o(.ARM.exidx) refers to modbus_link.o(i._ZN11TModbusLink12handle_frameEPKht) for i._ZN11TModbusLink12handle_frameEPKht
    modbus_link.o(.ARM.exidx) refers to modbus_link.o(i._ZN32_INTERNAL_15_modbus_link_cpp_Eof24LL_AHB1_GRP1_EnableClockEj) for i._ZN32_INTERNAL_15_modbus_link_cpp_Eof24LL_AHB1_GRP1_EnableClockEj
    modbus_link.o(.ARM.exidx) refers to modbus_link.o(i._ZN32_INTERNAL_15_modbus_link_cpp_Eof20LL_DMA_EnableChannelEP11DMA_TypeDefj) for i._ZN32_INTERNAL_15_modbus_link_cpp_Eof20LL_DMA_EnableChannelEP11DMA_TypeDefj
    modbus_link.o(.ARM.exidx) refers to modbus_link.o(i._ZN32_INTERNAL_15_modbus_link_cpp_Eof21LL_DMA_DisableChannelEP11DMA_TypeDefj) for i._ZN32_INTERNAL_15_modbus_link_cpp_Eof21LL_DMA_DisableChannelEP11DMA_TypeDefj
    modbus_link.o(.constdata) refers to modbus_link.o(i._ZN32_INTERNAL_15_modbus_link_cpp_Eof24LL_AHB1_GRP1_EnableClockEj) for [local to modbus_link_cpp]::LL_AHB1_GRP1_EnableClock(unsigned)
    modbus_link.o(.constdata) refers to modbus_link.o(i._ZN32_INTERNAL_15_modbus_link_cpp_Eof20LL_DMA_ClearFlag_TC7EP11DMA_TypeDef) for [local to modbus_link_cpp]::LL_DMA_ClearFlag_TC7(DMA_TypeDef*)
    modbus_link.o(.constdata) refers to modbus_link.o(i._ZN32_INTERNAL_15_modbus_link_cpp_Eof20LL_DMA_ClearFlag_TC6EP11DMA_TypeDef) for [local to modbus_link_cpp]::LL_DMA_ClearFlag_TC6(DMA_TypeDef*)
    modbus_link.o(.constdata) refers to modbus_link.o(i._ZN32_INTERNAL_15_modbus_link_cpp_Eof20LL_DMA_ClearFlag_TC4EP11DMA_TypeDef) for [local to modbus_link_cpp]::LL_DMA_ClearFlag_TC4(DMA_TypeDef*)
    modbus_link.o(.constdata) refers to modbus_link.o(.data) for SlaveRTOHigherPriorityTaskWoken
    modbus_link.o(.constdata) refers to main.o(.data) for SlaveRtoTrigSem
    dev_handlers.o(i._ZN12TDevHandlers10chk_accessEPv) refers to model.o(i._ZN6TModel10get_accessEv) for TModel::get_access()
    dev_handlers.o(i._ZN12TDevHandlers10chk_accessEPv) refers to model.o(.bss) for Model
    dev_handlers.o(i._ZN12TDevHandlers10read_calibEj) refers to model.o(i._ZN6TModel13get_acc_calibEv) for TModel::get_acc_calib()
    dev_handlers.o(i._ZN12TDevHandlers10read_calibEj) refers to model.o(.bss) for Model
    dev_handlers.o(i._ZN12TDevHandlers10read_stateEj) refers to model.o(i._ZN6TModel13get_dev_stateEv) for TModel::get_dev_state()
    dev_handlers.o(i._ZN12TDevHandlers10read_stateEj) refers to model.o(.bss) for Model
    dev_handlers.o(i._ZN12TDevHandlers10read_u_parEj) refers to model.o(i._ZN6TModel9get_u_parEv) for TModel::get_u_par()
    dev_handlers.o(i._ZN12TDevHandlers10read_u_parEj) refers to model.o(.bss) for Model
    dev_handlers.o(i._ZN12TDevHandlers10write_biasEj) refers to model.o(i._ZN6TModel8set_biasEa) for TModel::set_bias(signed char)
    dev_handlers.o(i._ZN12TDevHandlers10write_biasEj) refers to model.o(.bss) for Model
    dev_handlers.o(i._ZN12TDevHandlers10write_hystEj) refers to model.o(i._ZN6TModel8set_hystEh) for TModel::set_hyst(unsigned char)
    dev_handlers.o(i._ZN12TDevHandlers10write_hystEj) refers to model.o(.bss) for Model
    dev_handlers.o(i._ZN12TDevHandlers11write_u_parEj) refers to model.o(i._ZN6TModel9set_u_parEh) for TModel::set_u_par(unsigned char)
    dev_handlers.o(i._ZN12TDevHandlers11write_u_parEj) refers to model.o(.bss) for Model
    dev_handlers.o(i._ZN12TDevHandlers12read_code_swEj) refers to model.o(i._ZN6TModel11get_code_swEv) for TModel::get_code_sw()
    dev_handlers.o(i._ZN12TDevHandlers12read_code_swEj) refers to model.o(.bss) for Model
    dev_handlers.o(i._ZN12TDevHandlers12read_connectEj) refers to model.o(i._ZN6TModel11get_connectEv) for TModel::get_connect()
    dev_handlers.o(i._ZN12TDevHandlers12read_connectEj) refers to model.o(.bss) for Model
    dev_handlers.o(i._ZN12TDevHandlers12read_hc_memsEj) refers to model.o(i._ZN6TModel11get_hc_memsEv) for TModel::get_hc_mems()
    dev_handlers.o(i._ZN12TDevHandlers12read_hc_memsEj) refers to model.o(.bss) for Model
    dev_handlers.o(i._ZN12TDevHandlers12read_mb_addrEj) refers to model.o(i._ZN6TModel11get_mb_addrEv) for TModel::get_mb_addr()
    dev_handlers.o(i._ZN12TDevHandlers12read_mb_addrEj) refers to model.o(.bss) for Model
    dev_handlers.o(i._ZN12TDevHandlers13read_my_angleEj) refers to model.o(i._ZN6TModel12get_my_angleEv) for TModel::get_my_angle()
    dev_handlers.o(i._ZN12TDevHandlers13read_my_angleEj) refers to model.o(.bss) for Model
    dev_handlers.o(i._ZN12TDevHandlers13write_mb_addrEj) refers to model.o(i._ZN6TModel11set_mb_addrEs) for TModel::set_mb_addr(short)
    dev_handlers.o(i._ZN12TDevHandlers13write_mb_addrEj) refers to model.o(.bss) for Model
    dev_handlers.o(i._ZN12TDevHandlers14read_base_memsEj) refers to model.o(i._ZN6TModel13get_base_memsEv) for TModel::get_base_mems()
    dev_handlers.o(i._ZN12TDevHandlers14read_base_memsEj) refers to model.o(.bss) for Model
    dev_handlers.o(i._ZN12TDevHandlers14read_interconnEj) refers to model.o(i._ZN6TModel13get_interconnEv) for TModel::get_interconn()
    dev_handlers.o(i._ZN12TDevHandlers14read_interconnEj) refers to model.o(.bss) for Model
    dev_handlers.o(i._ZN12TDevHandlers15read_hc_pos_errEj) refers to model.o(i._ZN6TModel14get_hc_pos_errEv) for TModel::get_hc_pos_err()
    dev_handlers.o(i._ZN12TDevHandlers15read_hc_pos_errEj) refers to model.o(.bss) for Model
    dev_handlers.o(i._ZN12TDevHandlers15read_open_angleEj) refers to model.o(i._ZN6TModel14get_open_angleEv) for TModel::get_open_angle()
    dev_handlers.o(i._ZN12TDevHandlers15read_open_angleEj) refers to roundf.o(i.__hardfp_roundf) for __hardfp_roundf
    dev_handlers.o(i._ZN12TDevHandlers15read_open_angleEj) refers to model.o(.bss) for Model
    dev_handlers.o(i._ZN12TDevHandlers15read_sens_angleEj) refers to model.o(i._ZN6TModel14get_sens_angleEv) for TModel::get_sens_angle()
    dev_handlers.o(i._ZN12TDevHandlers15read_sens_angleEj) refers to model.o(.bss) for Model
    dev_handlers.o(i._ZN12TDevHandlers15read_sens_calibEj) refers to model.o(i._ZN6TModel16get_hc_acc_calibEv) for TModel::get_hc_acc_calib()
    dev_handlers.o(i._ZN12TDevHandlers15read_sens_calibEj) refers to model.o(.bss) for Model
    dev_handlers.o(i._ZN12TDevHandlers15write_interconnEj) refers to model.o(i._ZN6TModel13set_interconnE10TInterconn) for TModel::set_interconn(TInterconn)
    dev_handlers.o(i._ZN12TDevHandlers15write_interconnEj) refers to model.o(.bss) for Model
    dev_handlers.o(i._ZN12TDevHandlers16read_adm_pswd_hiEj) refers to model.o(i._ZN6TModel13get_psw_adminEv) for TModel::get_psw_admin()
    dev_handlers.o(i._ZN12TDevHandlers16read_adm_pswd_hiEj) refers to model.o(.bss) for Model
    dev_handlers.o(i._ZN12TDevHandlers16read_adm_pswd_loEj) refers to model.o(i._ZN6TModel13get_psw_adminEv) for TModel::get_psw_admin()
    dev_handlers.o(i._ZN12TDevHandlers16read_adm_pswd_loEj) refers to model.o(.bss) for Model
    dev_handlers.o(i._ZN12TDevHandlers16read_axis_rotateEj) refers to model.o(i._ZN6TModel15get_axis_rotateEv) for TModel::get_axis_rotate()
    dev_handlers.o(i._ZN12TDevHandlers16read_axis_rotateEj) refers to model.o(.bss) for Model
    dev_handlers.o(i._ZN12TDevHandlers16read_u_baud_rateEj) refers to model.o(i._ZN6TModel15get_u_baud_rateEv) for TModel::get_u_baud_rate()
    dev_handlers.o(i._ZN12TDevHandlers16read_u_baud_rateEj) refers to model.o(.bss) for Model
    dev_handlers.o(i._ZN12TDevHandlers17read_base_pos_errEj) refers to model.o(i._ZN6TModel16get_base_pos_errEv) for TModel::get_base_pos_err()
    dev_handlers.o(i._ZN12TDevHandlers17read_base_pos_errEj) refers to model.o(.bss) for Model
    dev_handlers.o(i._ZN12TDevHandlers17read_parameter_hiEj) refers to model.o(i._ZN6TModel19get_calib_parameterEv) for TModel::get_calib_parameter()
    dev_handlers.o(i._ZN12TDevHandlers17read_parameter_hiEj) refers to model.o(.bss) for Model
    dev_handlers.o(i._ZN12TDevHandlers17read_parameter_loEj) refers to model.o(i._ZN6TModel19get_calib_parameterEv) for TModel::get_calib_parameter()
    dev_handlers.o(i._ZN12TDevHandlers17read_parameter_loEj) refers to model.o(.bss) for Model
    dev_handlers.o(i._ZN12TDevHandlers17read_sens_code_swEj) refers to model.o(i._ZN6TModel14get_hc_code_swEv) for TModel::get_hc_code_sw()
    dev_handlers.o(i._ZN12TDevHandlers17read_sens_code_swEj) refers to model.o(.bss) for Model
    dev_handlers.o(i._ZN12TDevHandlers17write_adm_pswd_hiEj) refers to model.o(i._ZN6TModel13set_psw_adminEf) for TModel::set_psw_admin(float)
    dev_handlers.o(i._ZN12TDevHandlers17write_adm_pswd_hiEj) refers to model.o(.bss) for Model
    dev_handlers.o(i._ZN12TDevHandlers17write_axis_rotateEj) refers to model.o(i._ZN6TModel15set_axis_rotateEh) for TModel::set_axis_rotate(unsigned char)
    dev_handlers.o(i._ZN12TDevHandlers17write_axis_rotateEj) refers to model.o(.bss) for Model
    dev_handlers.o(i._ZN12TDevHandlers17write_u_baud_rateEj) refers to model.o(i._ZN6TModel15set_u_baud_rateEh) for TModel::set_u_baud_rate(unsigned char)
    dev_handlers.o(i._ZN12TDevHandlers17write_u_baud_rateEj) refers to model.o(.bss) for Model
    dev_handlers.o(i._ZN12TDevHandlers18my_read_sens_angleEj) refers to model.o(i._ZN6TModel14set_sens_angleEs) for TModel::set_sens_angle(short)
    dev_handlers.o(i._ZN12TDevHandlers18my_read_sens_angleEj) refers to model.o(.bss) for Model
    dev_handlers.o(i._ZN12TDevHandlers18my_read_sens_calibEj) refers to model.o(i._ZN6TModel16set_hc_acc_calibEN9TSettings6TCalibE) for TModel::set_hc_acc_calib(TSettings::TCalib)
    dev_handlers.o(i._ZN12TDevHandlers18my_read_sens_calibEj) refers to model.o(.bss) for Model
    dev_handlers.o(i._ZN12TDevHandlers18read_calib_processEj) refers to model.o(i._ZN6TModel17get_calib_processEv) for TModel::get_calib_process()
    dev_handlers.o(i._ZN12TDevHandlers18read_calib_processEj) refers to model.o(.bss) for Model
    dev_handlers.o(i._ZN12TDevHandlers18read_sens_prog_nbrEj) refers to model.o(i._ZN6TModel15get_hc_prog_nbrEv) for TModel::get_hc_prog_nbr()
    dev_handlers.o(i._ZN12TDevHandlers18read_sens_prog_nbrEj) refers to model.o(.bss) for Model
    dev_handlers.o(i._ZN12TDevHandlers18read_super_pswd_hiEj) refers to model.o(i._ZN6TModel13get_psw_superEv) for TModel::get_psw_super()
    dev_handlers.o(i._ZN12TDevHandlers18read_super_pswd_hiEj) refers to model.o(.bss) for Model
    dev_handlers.o(i._ZN12TDevHandlers18read_super_pswd_loEj) refers to model.o(i._ZN6TModel13get_psw_superEv) for TModel::get_psw_super()
    dev_handlers.o(i._ZN12TDevHandlers18read_super_pswd_loEj) refers to model.o(.bss) for Model
    dev_handlers.o(i._ZN12TDevHandlers18write_parameter_hiEj) refers to model.o(i._ZN6TModel22get_authorize_item_ptrEv) for TModel::get_authorize_item_ptr()
    dev_handlers.o(i._ZN12TDevHandlers18write_parameter_hiEj) refers to model.o(i._ZN6TModel19set_calib_parameterEf) for TModel::set_calib_parameter(float)
    dev_handlers.o(i._ZN12TDevHandlers18write_parameter_hiEj) refers to model.o(i._ZN6TModel10set_accessEN9TSettings7TAccessE) for TModel::set_access(TSettings::TAccess)
    dev_handlers.o(i._ZN12TDevHandlers18write_parameter_hiEj) refers to model.o(i._ZN6TModel17set_calib_processEN9TSettings13TCalibProcessE) for TModel::set_calib_process(TSettings::TCalibProcess)
    dev_handlers.o(i._ZN12TDevHandlers18write_parameter_hiEj) refers to model.o(i._ZN6TModel22set_authorize_item_ptrEPKNS_10TAuthorizeE) for TModel::set_authorize_item_ptr(const TModel::TAuthorize*)
    dev_handlers.o(i._ZN12TDevHandlers18write_parameter_hiEj) refers to model.o(.bss) for Model
    dev_handlers.o(i._ZN12TDevHandlers19read_pd_pressure_hiEj) refers to model.o(i._ZN6TModel15get_pd_pressureEv) for TModel::get_pd_pressure()
    dev_handlers.o(i._ZN12TDevHandlers19read_pd_pressure_hiEj) refers to model.o(.bss) for Model
    dev_handlers.o(i._ZN12TDevHandlers19read_pd_pressure_loEj) refers to model.o(i._ZN6TModel15get_pd_pressureEv) for TModel::get_pd_pressure()
    dev_handlers.o(i._ZN12TDevHandlers19read_pd_pressure_loEj) refers to model.o(.bss) for Model
    dev_handlers.o(i._ZN12TDevHandlers19write_calib_processEj) refers to model.o(i._ZN6TModel13set_calib_cmdEt) for TModel::set_calib_cmd(unsigned short)
    dev_handlers.o(i._ZN12TDevHandlers19write_calib_processEj) refers to model.o(.bss) for Model
    dev_handlers.o(i._ZN12TDevHandlers19write_super_pswd_hiEj) refers to model.o(i._ZN6TModel13set_psw_superEf) for TModel::set_psw_super(float)
    dev_handlers.o(i._ZN12TDevHandlers19write_super_pswd_hiEj) refers to model.o(.bss) for Model
    dev_handlers.o(i._ZN12TDevHandlers20my_read_sens_code_swEj) refers to model.o(i._ZN6TModel14set_hc_code_swEh) for TModel::set_hc_code_sw(unsigned char)
    dev_handlers.o(i._ZN12TDevHandlers20my_read_sens_code_swEj) refers to model.o(.bss) for Model
    dev_handlers.o(i._ZN12TDevHandlers20read_position_ctr_hiEj) refers to model.o(i._ZN6TModel22get_calib_position_ctrEv) for TModel::get_calib_position_ctr()
    dev_handlers.o(i._ZN12TDevHandlers20read_position_ctr_hiEj) refers to model.o(.bss) for Model
    dev_handlers.o(i._ZN12TDevHandlers20read_position_ctr_loEj) refers to model.o(i._ZN6TModel22get_calib_position_ctrEv) for TModel::get_calib_position_ctr()
    dev_handlers.o(i._ZN12TDevHandlers20read_position_ctr_loEj) refers to model.o(.bss) for Model
    dev_handlers.o(i._ZN12TDevHandlers20read_roll_bias_angleEj) refers to model.o(i._ZN6TModel19get_roll_bias_angleEv) for TModel::get_roll_bias_angle()
    dev_handlers.o(i._ZN12TDevHandlers20read_roll_bias_angleEj) refers to model.o(i._ZN6TModel15get_axis_rotateEv) for TModel::get_axis_rotate()
    dev_handlers.o(i._ZN12TDevHandlers20read_roll_bias_angleEj) refers to model.o(.bss) for Model
    dev_handlers.o(i._ZN12TDevHandlers20write_pd_pressure_hiEj) refers to model.o(i._ZN6TModel15set_pd_pressureEf) for TModel::set_pd_pressure(float)
    dev_handlers.o(i._ZN12TDevHandlers20write_pd_pressure_hiEj) refers to model.o(.bss) for Model
    dev_handlers.o(i._ZN12TDevHandlers20write_start_meas_cmdEj) refers to model.o(i._ZN6TModel18set_start_meas_cmdEN9TSettings5TMeasE) for TModel::set_start_meas_cmd(TSettings::TMeas)
    dev_handlers.o(i._ZN12TDevHandlers20write_start_meas_cmdEj) refers to model.o(.bss) for Model
    dev_handlers.o(i._ZN12TDevHandlers21my_read_sens_prog_nbrEj) refers to model.o(i._ZN6TModel15set_hc_prog_nbrEt) for TModel::set_hc_prog_nbr(unsigned short)
    dev_handlers.o(i._ZN12TDevHandlers21my_read_sens_prog_nbrEj) refers to model.o(.bss) for Model
    dev_handlers.o(i._ZN12TDevHandlers21read_pitch_bias_angleEj) refers to model.o(i._ZN6TModel20get_pitch_bias_angleEv) for TModel::get_pitch_bias_angle()
    dev_handlers.o(i._ZN12TDevHandlers21read_pitch_bias_angleEj) refers to model.o(i._ZN6TModel15get_axis_rotateEv) for TModel::get_axis_rotate()
    dev_handlers.o(i._ZN12TDevHandlers21read_pitch_bias_angleEj) refers to model.o(.bss) for Model
    dev_handlers.o(i._ZN12TDevHandlers21read_sens_axis_rotateEj) refers to model.o(i._ZN6TModel20get_sens_axis_rotateEv) for TModel::get_sens_axis_rotate()
    dev_handlers.o(i._ZN12TDevHandlers21read_sens_axis_rotateEj) refers to model.o(.bss) for Model
    dev_handlers.o(i._ZN12TDevHandlers22read_sample_valid_signEj) refers to model.o(i._ZN6TModel21get_sample_valid_signEv) for TModel::get_sample_valid_sign()
    dev_handlers.o(i._ZN12TDevHandlers22read_sample_valid_signEj) refers to model.o(.bss) for Model
    dev_handlers.o(i._ZN12TDevHandlers22write_sens_axis_rotateEj) refers to model.o(i._ZN6TModel20get_sens_axis_rotateEv) for TModel::get_sens_axis_rotate()
    dev_handlers.o(i._ZN12TDevHandlers22write_sens_axis_rotateEj) refers to model.o(i._ZN6TModel24set_sens_buf_axis_rotateEh) for TModel::set_sens_buf_axis_rotate(unsigned char)
    dev_handlers.o(i._ZN12TDevHandlers22write_sens_axis_rotateEj) refers to queue.o(i.xQueueGenericSend) for xQueueGenericSend
    dev_handlers.o(i._ZN12TDevHandlers22write_sens_axis_rotateEj) refers to queue.o(i.xQueueGenericReceive) for xQueueGenericReceive
    dev_handlers.o(i._ZN12TDevHandlers22write_sens_axis_rotateEj) refers to model.o(i._ZN6TModel20set_sens_axis_rotateEh) for TModel::set_sens_axis_rotate(unsigned char)
    dev_handlers.o(i._ZN12TDevHandlers22write_sens_axis_rotateEj) refers to model.o(.bss) for Model
    dev_handlers.o(i._ZN12TDevHandlers22write_sens_axis_rotateEj) refers to main.o(.data) for SensWrAxisRotateSem
    dev_handlers.o(i._ZN12TDevHandlers23my_write_start_meas_cmdEj) refers to queue.o(i.xQueueGenericSend) for xQueueGenericSend
    dev_handlers.o(i._ZN12TDevHandlers23my_write_start_meas_cmdEj) refers to model.o(i._ZN6TModel18get_start_meas_cmdEv) for TModel::get_start_meas_cmd()
    dev_handlers.o(i._ZN12TDevHandlers23my_write_start_meas_cmdEj) refers to main.o(.data) for SensDevOkSem
    dev_handlers.o(i._ZN12TDevHandlers23my_write_start_meas_cmdEj) refers to model.o(.bss) for Model
    dev_handlers.o(i._ZN12TDevHandlers24my_read_sens_axis_rotateEj) refers to model.o(i._ZN6TModel20set_sens_axis_rotateEh) for TModel::set_sens_axis_rotate(unsigned char)
    dev_handlers.o(i._ZN12TDevHandlers24my_read_sens_axis_rotateEj) refers to model.o(.bss) for Model
    dev_handlers.o(i._ZN12TDevHandlers25my_read_sample_valid_signEj) refers to model.o(i._ZN6TModel26set_sens_sample_valid_signEN9TSettings10TValidSignE) for TModel::set_sens_sample_valid_sign(TSettings::TValidSign)
    dev_handlers.o(i._ZN12TDevHandlers25my_read_sample_valid_signEj) refers to model.o(.bss) for Model
    dev_handlers.o(i._ZN12TDevHandlers25my_write_sens_axis_rotateEj) refers to model.o(i._ZN6TModel24get_sens_buf_axis_rotateEv) for TModel::get_sens_buf_axis_rotate()
    dev_handlers.o(i._ZN12TDevHandlers25my_write_sens_axis_rotateEj) refers to queue.o(i.xQueueGenericSend) for xQueueGenericSend
    dev_handlers.o(i._ZN12TDevHandlers25my_write_sens_axis_rotateEj) refers to model.o(.bss) for Model
    dev_handlers.o(i._ZN12TDevHandlers25my_write_sens_axis_rotateEj) refers to main.o(.data) for SensAxisRotateOkSem
    dev_handlers.o(i._ZN12TDevHandlers25read_sens_roll_bias_angleEj) refers to model.o(i._ZN6TModel24get_sens_roll_bias_angleEv) for TModel::get_sens_roll_bias_angle()
    dev_handlers.o(i._ZN12TDevHandlers25read_sens_roll_bias_angleEj) refers to model.o(.bss) for Model
    dev_handlers.o(i._ZN12TDevHandlers26read_sens_pitch_bias_angleEj) refers to model.o(i._ZN6TModel25get_sens_pitch_bias_angleEv) for TModel::get_sens_pitch_bias_angle()
    dev_handlers.o(i._ZN12TDevHandlers26read_sens_pitch_bias_angleEj) refers to model.o(.bss) for Model
    dev_handlers.o(i._ZN12TDevHandlers27read_sens_sample_valid_signEj) refers to model.o(i._ZN6TModel26get_sens_sample_valid_signEv) for TModel::get_sens_sample_valid_sign()
    dev_handlers.o(i._ZN12TDevHandlers27read_sens_sample_valid_signEj) refers to model.o(.bss) for Model
    dev_handlers.o(i._ZN12TDevHandlers28my_read_sens_roll_bias_angleEj) refers to model.o(i._ZN6TModel24set_sens_roll_bias_angleEa) for TModel::set_sens_roll_bias_angle(signed char)
    dev_handlers.o(i._ZN12TDevHandlers28my_read_sens_roll_bias_angleEj) refers to model.o(.bss) for Model
    dev_handlers.o(i._ZN12TDevHandlers29my_read_sens_pitch_bias_angleEj) refers to model.o(i._ZN6TModel25set_sens_pitch_bias_angleEa) for TModel::set_sens_pitch_bias_angle(signed char)
    dev_handlers.o(i._ZN12TDevHandlers29my_read_sens_pitch_bias_angleEj) refers to model.o(.bss) for Model
    dev_handlers.o(i._ZN12TDevHandlers31m_read_input_registers_completeEv) refers to queue.o(i.xQueueGenericSend) for xQueueGenericSend
    dev_handlers.o(i._ZN12TDevHandlers31m_read_input_registers_completeEv) refers to main.o(.data) for SensDevResSem
    dev_handlers.o(i._ZN12TDevHandlers7read_doEj) refers to model.o(i._ZN6TModel12get_d_o_setsEv) for TModel::get_d_o_sets()
    dev_handlers.o(i._ZN12TDevHandlers7read_doEj) refers to model.o(.bss) for Model
    dev_handlers.o(i._ZN12TDevHandlers7read_hcEj) refers to model.o(i._ZN6TModel12get_hc_stateEv) for TModel::get_hc_state()
    dev_handlers.o(i._ZN12TDevHandlers7read_hcEj) refers to model.o(.bss) for Model
    dev_handlers.o(i._ZN12TDevHandlers8read_thrEj) refers to model.o(i._ZN6TModel7get_thrEv) for TModel::get_thr()
    dev_handlers.o(i._ZN12TDevHandlers8read_thrEj) refers to model.o(.bss) for Model
    dev_handlers.o(i._ZN12TDevHandlers8write_doEj) refers to model.o(i._ZN6TModel12set_d_o_setsE8TContact) for TModel::set_d_o_sets(TContact)
    dev_handlers.o(i._ZN12TDevHandlers8write_doEj) refers to model.o(.bss) for Model
    dev_handlers.o(i._ZN12TDevHandlers9get_id_17Ev) refers to model.o(i._ZN6TModel12get_dev_typeEv) for TModel::get_dev_type()
    dev_handlers.o(i._ZN12TDevHandlers9get_id_17Ev) refers to model.o(.bss) for Model
    dev_handlers.o(i._ZN12TDevHandlers9get_id_17Ev) refers to dev_handlers.o(.data) for TDevHandlers::ID17
    dev_handlers.o(i._ZN12TDevHandlers9read_biasEj) refers to model.o(i._ZN6TModel8get_biasEv) for TModel::get_bias()
    dev_handlers.o(i._ZN12TDevHandlers9read_biasEj) refers to model.o(.bss) for Model
    dev_handlers.o(i._ZN12TDevHandlers9read_hystEj) refers to model.o(i._ZN6TModel8get_hystEv) for TModel::get_hyst()
    dev_handlers.o(i._ZN12TDevHandlers9read_hystEj) refers to model.o(.bss) for Model
    dev_handlers.o(i._ZN12TDevHandlers9write_thrEj) refers to model.o(i._ZN6TModel7set_thrEh) for TModel::set_thr(unsigned char)
    dev_handlers.o(i._ZN12TDevHandlers9write_thrEj) refers to model.o(.bss) for Model
    dev_handlers.o(.ARM.exidx) refers to dev_handlers.o(i._ZN12TDevHandlersC1EPNS_11TPduHandlerE) for i._ZN12TDevHandlersC1EPNS_11TPduHandlerE
    dev_handlers.o(.ARM.exidx) refers to dev_handlers.o(i._ZN12TDevHandlersD1Ev) for i._ZN12TDevHandlersD1Ev
    dev_handlers.o(.ARM.exidx) refers to dev_handlers.o(i._ZN12TDevHandlers17read_base_pos_errEj) for i._ZN12TDevHandlers17read_base_pos_errEj
    dev_handlers.o(.ARM.exidx) refers to dev_handlers.o(i._ZN12TDevHandlers12read_connectEj) for i._ZN12TDevHandlers12read_connectEj
    dev_handlers.o(.ARM.exidx) refers to dev_handlers.o(i._ZN12TDevHandlers7read_hcEj) for i._ZN12TDevHandlers7read_hcEj
    dev_handlers.o(.ARM.exidx) refers to dev_handlers.o(i._ZN12TDevHandlers15read_hc_pos_errEj) for i._ZN12TDevHandlers15read_hc_pos_errEj
    dev_handlers.o(.ARM.exidx) refers to dev_handlers.o(i._ZN12TDevHandlers11rdi_placeboEj) for i._ZN12TDevHandlers11rdi_placeboEj
    dev_handlers.o(.ARM.exidx) refers to dev_handlers.o(i._ZN12TDevHandlers14read_base_memsEj) for i._ZN12TDevHandlers14read_base_memsEj
    dev_handlers.o(.ARM.exidx) refers to dev_handlers.o(i._ZN12TDevHandlers12read_hc_memsEj) for i._ZN12TDevHandlers12read_hc_memsEj
    dev_handlers.o(.ARM.exidx) refers to dev_handlers.o(i._ZN12TDevHandlers15read_open_angleEj) for i._ZN12TDevHandlers15read_open_angleEj
    dev_handlers.o(.ARM.exidx) refers to dev_handlers.o(i._ZN12TDevHandlers12read_code_swEj) for i._ZN12TDevHandlers12read_code_swEj
    dev_handlers.o(.ARM.exidx) refers to dev_handlers.o(i._ZN12TDevHandlers21read_pitch_bias_angleEj) for i._ZN12TDevHandlers21read_pitch_bias_angleEj
    dev_handlers.o(.ARM.exidx) refers to dev_handlers.o(i._ZN12TDevHandlers20read_roll_bias_angleEj) for i._ZN12TDevHandlers20read_roll_bias_angleEj
    dev_handlers.o(.ARM.exidx) refers to dev_handlers.o(i._ZN12TDevHandlers7read_doEj) for i._ZN12TDevHandlers7read_doEj
    dev_handlers.o(.ARM.exidx) refers to dev_handlers.o(i._ZN12TDevHandlers8write_doEj) for i._ZN12TDevHandlers8write_doEj
    dev_handlers.o(.ARM.exidx) refers to dev_handlers.o(i._ZN12TDevHandlers8read_thrEj) for i._ZN12TDevHandlers8read_thrEj
    dev_handlers.o(.ARM.exidx) refers to dev_handlers.o(i._ZN12TDevHandlers9write_thrEj) for i._ZN12TDevHandlers9write_thrEj
    dev_handlers.o(.ARM.exidx) refers to dev_handlers.o(i._ZN12TDevHandlers9read_hystEj) for i._ZN12TDevHandlers9read_hystEj
    dev_handlers.o(.ARM.exidx) refers to dev_handlers.o(i._ZN12TDevHandlers10write_hystEj) for i._ZN12TDevHandlers10write_hystEj
    dev_handlers.o(.ARM.exidx) refers to dev_handlers.o(i._ZN12TDevHandlers9read_biasEj) for i._ZN12TDevHandlers9read_biasEj
    dev_handlers.o(.ARM.exidx) refers to dev_handlers.o(i._ZN12TDevHandlers10write_biasEj) for i._ZN12TDevHandlers10write_biasEj
    dev_handlers.o(.ARM.exidx) refers to dev_handlers.o(i._ZN12TDevHandlers16read_axis_rotateEj) for i._ZN12TDevHandlers16read_axis_rotateEj
    dev_handlers.o(.ARM.exidx) refers to dev_handlers.o(i._ZN12TDevHandlers17write_axis_rotateEj) for i._ZN12TDevHandlers17write_axis_rotateEj
    dev_handlers.o(.ARM.exidx) refers to dev_handlers.o(i._ZN12TDevHandlers21read_sens_axis_rotateEj) for i._ZN12TDevHandlers21read_sens_axis_rotateEj
    dev_handlers.o(.ARM.exidx) refers to dev_handlers.o(i._ZN12TDevHandlers22write_sens_axis_rotateEj) for i._ZN12TDevHandlers22write_sens_axis_rotateEj
    dev_handlers.o(.ARM.exidx) refers to dev_handlers.o(i._ZN12TDevHandlers16read_u_baud_rateEj) for i._ZN12TDevHandlers16read_u_baud_rateEj
    dev_handlers.o(.ARM.exidx) refers to dev_handlers.o(i._ZN12TDevHandlers17write_u_baud_rateEj) for i._ZN12TDevHandlers17write_u_baud_rateEj
    dev_handlers.o(.ARM.exidx) refers to dev_handlers.o(i._ZN12TDevHandlers10read_u_parEj) for i._ZN12TDevHandlers10read_u_parEj
    dev_handlers.o(.ARM.exidx) refers to dev_handlers.o(i._ZN12TDevHandlers11write_u_parEj) for i._ZN12TDevHandlers11write_u_parEj
    dev_handlers.o(.ARM.exidx) refers to dev_handlers.o(i._ZN12TDevHandlers12read_mb_addrEj) for i._ZN12TDevHandlers12read_mb_addrEj
    dev_handlers.o(.ARM.exidx) refers to dev_handlers.o(i._ZN12TDevHandlers13write_mb_addrEj) for i._ZN12TDevHandlers13write_mb_addrEj
    dev_handlers.o(.ARM.exidx) refers to dev_handlers.o(i._ZN12TDevHandlers13read_prog_nbrEj) for i._ZN12TDevHandlers13read_prog_nbrEj
    dev_handlers.o(.ARM.exidx) refers to dev_handlers.o(i._ZN12TDevHandlers16read_adm_pswd_loEj) for i._ZN12TDevHandlers16read_adm_pswd_loEj
    dev_handlers.o(.ARM.exidx) refers to dev_handlers.o(i._ZN12TDevHandlers17write_adm_pswd_loEj) for i._ZN12TDevHandlers17write_adm_pswd_loEj
    dev_handlers.o(.ARM.exidx) refers to dev_handlers.o(i._ZN12TDevHandlers16read_adm_pswd_hiEj) for i._ZN12TDevHandlers16read_adm_pswd_hiEj
    dev_handlers.o(.ARM.exidx) refers to dev_handlers.o(i._ZN12TDevHandlers17write_adm_pswd_hiEj) for i._ZN12TDevHandlers17write_adm_pswd_hiEj
    dev_handlers.o(.ARM.exidx) refers to dev_handlers.o(i._ZN12TDevHandlers18read_super_pswd_loEj) for i._ZN12TDevHandlers18read_super_pswd_loEj
    dev_handlers.o(.ARM.exidx) refers to dev_handlers.o(i._ZN12TDevHandlers19write_super_pswd_loEj) for i._ZN12TDevHandlers19write_super_pswd_loEj
    dev_handlers.o(.ARM.exidx) refers to dev_handlers.o(i._ZN12TDevHandlers18read_super_pswd_hiEj) for i._ZN12TDevHandlers18read_super_pswd_hiEj
    dev_handlers.o(.ARM.exidx) refers to dev_handlers.o(i._ZN12TDevHandlers19write_super_pswd_hiEj) for i._ZN12TDevHandlers19write_super_pswd_hiEj
    dev_handlers.o(.ARM.exidx) refers to dev_handlers.o(i._ZN12TDevHandlers18read_calib_processEj) for i._ZN12TDevHandlers18read_calib_processEj
    dev_handlers.o(.ARM.exidx) refers to dev_handlers.o(i._ZN12TDevHandlers19write_calib_processEj) for i._ZN12TDevHandlers19write_calib_processEj
    dev_handlers.o(.ARM.exidx) refers to dev_handlers.o(i._ZN12TDevHandlers20read_position_ctr_loEj) for i._ZN12TDevHandlers20read_position_ctr_loEj
    dev_handlers.o(.ARM.exidx) refers to dev_handlers.o(i._ZN12TDevHandlers20read_position_ctr_hiEj) for i._ZN12TDevHandlers20read_position_ctr_hiEj
    dev_handlers.o(.ARM.exidx) refers to dev_handlers.o(i._ZN12TDevHandlers17read_parameter_loEj) for i._ZN12TDevHandlers17read_parameter_loEj
    dev_handlers.o(.ARM.exidx) refers to dev_handlers.o(i._ZN12TDevHandlers17read_parameter_hiEj) for i._ZN12TDevHandlers17read_parameter_hiEj
    dev_handlers.o(.ARM.exidx) refers to dev_handlers.o(i._ZN12TDevHandlers18write_parameter_loEj) for i._ZN12TDevHandlers18write_parameter_loEj
    dev_handlers.o(.ARM.exidx) refers to dev_handlers.o(i._ZN12TDevHandlers18write_parameter_hiEj) for i._ZN12TDevHandlers18write_parameter_hiEj
    dev_handlers.o(.ARM.exidx) refers to dev_handlers.o(i._ZN12TDevHandlers14read_interconnEj) for i._ZN12TDevHandlers14read_interconnEj
    dev_handlers.o(.ARM.exidx) refers to dev_handlers.o(i._ZN12TDevHandlers15write_interconnEj) for i._ZN12TDevHandlers15write_interconnEj
    dev_handlers.o(.ARM.exidx) refers to dev_handlers.o(i._ZN12TDevHandlers13read_my_angleEj) for i._ZN12TDevHandlers13read_my_angleEj
    dev_handlers.o(.ARM.exidx) refers to dev_handlers.o(i._ZN12TDevHandlers15read_sens_angleEj) for i._ZN12TDevHandlers15read_sens_angleEj
    dev_handlers.o(.ARM.exidx) refers to dev_handlers.o(i._ZN12TDevHandlers18my_read_sens_angleEj) for i._ZN12TDevHandlers18my_read_sens_angleEj
    dev_handlers.o(.ARM.exidx) refers to dev_handlers.o(i._ZN12TDevHandlers22read_sample_valid_signEj) for i._ZN12TDevHandlers22read_sample_valid_signEj
    dev_handlers.o(.ARM.exidx) refers to dev_handlers.o(i._ZN12TDevHandlers25my_read_sample_valid_signEj) for i._ZN12TDevHandlers25my_read_sample_valid_signEj
    dev_handlers.o(.ARM.exidx) refers to dev_handlers.o(i._ZN12TDevHandlers27read_sens_sample_valid_signEj) for i._ZN12TDevHandlers27read_sens_sample_valid_signEj
    dev_handlers.o(.ARM.exidx) refers to dev_handlers.o(i._ZN12TDevHandlers10read_calibEj) for i._ZN12TDevHandlers10read_calibEj
    dev_handlers.o(.ARM.exidx) refers to dev_handlers.o(i._ZN12TDevHandlers15read_sens_calibEj) for i._ZN12TDevHandlers15read_sens_calibEj
    dev_handlers.o(.ARM.exidx) refers to dev_handlers.o(i._ZN12TDevHandlers18my_read_sens_calibEj) for i._ZN12TDevHandlers18my_read_sens_calibEj
    dev_handlers.o(.ARM.exidx) refers to dev_handlers.o(i._ZN12TDevHandlers26read_sens_pitch_bias_angleEj) for i._ZN12TDevHandlers26read_sens_pitch_bias_angleEj
    dev_handlers.o(.ARM.exidx) refers to dev_handlers.o(i._ZN12TDevHandlers29my_read_sens_pitch_bias_angleEj) for i._ZN12TDevHandlers29my_read_sens_pitch_bias_angleEj
    dev_handlers.o(.ARM.exidx) refers to dev_handlers.o(i._ZN12TDevHandlers25read_sens_roll_bias_angleEj) for i._ZN12TDevHandlers25read_sens_roll_bias_angleEj
    dev_handlers.o(.ARM.exidx) refers to dev_handlers.o(i._ZN12TDevHandlers28my_read_sens_roll_bias_angleEj) for i._ZN12TDevHandlers28my_read_sens_roll_bias_angleEj
    dev_handlers.o(.ARM.exidx) refers to dev_handlers.o(i._ZN12TDevHandlers17read_sens_code_swEj) for i._ZN12TDevHandlers17read_sens_code_swEj
    dev_handlers.o(.ARM.exidx) refers to dev_handlers.o(i._ZN12TDevHandlers20my_read_sens_code_swEj) for i._ZN12TDevHandlers20my_read_sens_code_swEj
    dev_handlers.o(.ARM.exidx) refers to dev_handlers.o(i._ZN12TDevHandlers24my_read_sens_axis_rotateEj) for i._ZN12TDevHandlers24my_read_sens_axis_rotateEj
    dev_handlers.o(.ARM.exidx) refers to dev_handlers.o(i._ZN12TDevHandlers18read_sens_prog_nbrEj) for i._ZN12TDevHandlers18read_sens_prog_nbrEj
    dev_handlers.o(.ARM.exidx) refers to dev_handlers.o(i._ZN12TDevHandlers21my_read_sens_prog_nbrEj) for i._ZN12TDevHandlers21my_read_sens_prog_nbrEj
    dev_handlers.o(.ARM.exidx) refers to dev_handlers.o(i._ZN12TDevHandlers10read_stateEj) for i._ZN12TDevHandlers10read_stateEj
    dev_handlers.o(.ARM.exidx) refers to dev_handlers.o(i._ZN12TDevHandlers23my_write_start_meas_cmdEj) for i._ZN12TDevHandlers23my_write_start_meas_cmdEj
    dev_handlers.o(.ARM.exidx) refers to dev_handlers.o(i._ZN12TDevHandlers20write_start_meas_cmdEj) for i._ZN12TDevHandlers20write_start_meas_cmdEj
    dev_handlers.o(.ARM.exidx) refers to dev_handlers.o(i._ZN12TDevHandlers25my_write_sens_axis_rotateEj) for i._ZN12TDevHandlers25my_write_sens_axis_rotateEj
    dev_handlers.o(.ARM.exidx) refers to dev_handlers.o(i._ZN12TDevHandlers19read_pd_pressure_loEj) for i._ZN12TDevHandlers19read_pd_pressure_loEj
    dev_handlers.o(.ARM.exidx) refers to dev_handlers.o(i._ZN12TDevHandlers19read_pd_pressure_hiEj) for i._ZN12TDevHandlers19read_pd_pressure_hiEj
    dev_handlers.o(.ARM.exidx) refers to dev_handlers.o(i._ZN12TDevHandlers20write_pd_pressure_loEj) for i._ZN12TDevHandlers20write_pd_pressure_loEj
    dev_handlers.o(.ARM.exidx) refers to dev_handlers.o(i._ZN12TDevHandlers20write_pd_pressure_hiEj) for i._ZN12TDevHandlers20write_pd_pressure_hiEj
    dev_handlers.o(.ARM.exidx) refers to dev_handlers.o(i._ZN12TDevHandlers31m_read_input_registers_completeEv) for i._ZN12TDevHandlers31m_read_input_registers_completeEv
    dev_handlers.o(.ARM.exidx) refers to dev_handlers.o(i._ZN12TDevHandlers10chk_accessEPv) for i._ZN12TDevHandlers10chk_accessEPv
    dev_handlers.o(.ARM.exidx) refers to dev_handlers.o(i._ZN12TDevHandlers9get_id_17Ev) for i._ZN12TDevHandlers9get_id_17Ev
    dev_handlers.o(.data) refers to dev_handlers.o(.constdata) for Access
    dev_handlers.o(.data) refers to dev_handlers.o(i._ZN12TDevHandlers17read_base_pos_errEj) for TDevHandlers::read_base_pos_err(unsigned)
    dev_handlers.o(.data) refers to dev_handlers.o(i._ZN12TDevHandlers12read_connectEj) for TDevHandlers::read_connect(unsigned)
    dev_handlers.o(.data) refers to dev_handlers.o(i._ZN12TDevHandlers7read_hcEj) for TDevHandlers::read_hc(unsigned)
    dev_handlers.o(.data) refers to dev_handlers.o(i._ZN12TDevHandlers15read_hc_pos_errEj) for TDevHandlers::read_hc_pos_err(unsigned)
    dev_handlers.o(.data) refers to dev_handlers.o(i._ZN12TDevHandlers11rdi_placeboEj) for TDevHandlers::rdi_placebo(unsigned)
    dev_handlers.o(.data) refers to dev_handlers.o(i._ZN12TDevHandlers15read_open_angleEj) for TDevHandlers::read_open_angle(unsigned)
    dev_handlers.o(.data) refers to dev_handlers.o(i._ZN12TDevHandlers10read_stateEj) for TDevHandlers::read_state(unsigned)
    dev_handlers.o(.data) refers to dev_handlers.o(i._ZN12TDevHandlers21read_pitch_bias_angleEj) for TDevHandlers::read_pitch_bias_angle(unsigned)
    dev_handlers.o(.data) refers to dev_handlers.o(i._ZN12TDevHandlers20read_roll_bias_angleEj) for TDevHandlers::read_roll_bias_angle(unsigned)
    dev_handlers.o(.data) refers to dev_handlers.o(i._ZN12TDevHandlers7read_doEj) for TDevHandlers::read_do(unsigned)
    dev_handlers.o(.data) refers to dev_handlers.o(i._ZN12TDevHandlers8write_doEj) for TDevHandlers::write_do(unsigned)
    dev_handlers.o(.data) refers to dev_handlers.o(i._ZN12TDevHandlers8read_thrEj) for TDevHandlers::read_thr(unsigned)
    dev_handlers.o(.data) refers to dev_handlers.o(i._ZN12TDevHandlers9write_thrEj) for TDevHandlers::write_thr(unsigned)
    dev_handlers.o(.data) refers to dev_handlers.o(i._ZN12TDevHandlers9read_hystEj) for TDevHandlers::read_hyst(unsigned)
    dev_handlers.o(.data) refers to dev_handlers.o(i._ZN12TDevHandlers10write_hystEj) for TDevHandlers::write_hyst(unsigned)
    dev_handlers.o(.data) refers to dev_handlers.o(i._ZN12TDevHandlers9read_biasEj) for TDevHandlers::read_bias(unsigned)
    dev_handlers.o(.data) refers to dev_handlers.o(i._ZN12TDevHandlers10write_biasEj) for TDevHandlers::write_bias(unsigned)
    dev_handlers.o(.data) refers to dev_handlers.o(i._ZN12TDevHandlers16read_axis_rotateEj) for TDevHandlers::read_axis_rotate(unsigned)
    dev_handlers.o(.data) refers to dev_handlers.o(i._ZN12TDevHandlers17write_axis_rotateEj) for TDevHandlers::write_axis_rotate(unsigned)
    dev_handlers.o(.data) refers to dev_handlers.o(i._ZN12TDevHandlers21read_sens_axis_rotateEj) for TDevHandlers::read_sens_axis_rotate(unsigned)
    dev_handlers.o(.data) refers to dev_handlers.o(i._ZN12TDevHandlers22write_sens_axis_rotateEj) for TDevHandlers::write_sens_axis_rotate(unsigned)
    dev_handlers.o(.data) refers to dev_handlers.o(i._ZN12TDevHandlers16read_u_baud_rateEj) for TDevHandlers::read_u_baud_rate(unsigned)
    dev_handlers.o(.data) refers to dev_handlers.o(i._ZN12TDevHandlers17write_u_baud_rateEj) for TDevHandlers::write_u_baud_rate(unsigned)
    dev_handlers.o(.data) refers to dev_handlers.o(i._ZN12TDevHandlers10read_u_parEj) for TDevHandlers::read_u_par(unsigned)
    dev_handlers.o(.data) refers to dev_handlers.o(i._ZN12TDevHandlers11write_u_parEj) for TDevHandlers::write_u_par(unsigned)
    dev_handlers.o(.data) refers to dev_handlers.o(i._ZN12TDevHandlers12read_mb_addrEj) for TDevHandlers::read_mb_addr(unsigned)
    dev_handlers.o(.data) refers to dev_handlers.o(i._ZN12TDevHandlers13write_mb_addrEj) for TDevHandlers::write_mb_addr(unsigned)
    dev_handlers.o(.data) refers to dev_handlers.o(i._ZN12TDevHandlers13read_prog_nbrEj) for TDevHandlers::read_prog_nbr(unsigned)
    dev_handlers.o(.data) refers to dev_handlers.o(i._ZN12TDevHandlers16read_adm_pswd_loEj) for TDevHandlers::read_adm_pswd_lo(unsigned)
    dev_handlers.o(.data) refers to dev_handlers.o(i._ZN12TDevHandlers16read_adm_pswd_hiEj) for TDevHandlers::read_adm_pswd_hi(unsigned)
    dev_handlers.o(.data) refers to dev_handlers.o(i._ZN12TDevHandlers17write_adm_pswd_loEj) for TDevHandlers::write_adm_pswd_lo(unsigned)
    dev_handlers.o(.data) refers to dev_handlers.o(i._ZN12TDevHandlers17write_adm_pswd_hiEj) for TDevHandlers::write_adm_pswd_hi(unsigned)
    dev_handlers.o(.data) refers to dev_handlers.o(i._ZN12TDevHandlers18read_super_pswd_loEj) for TDevHandlers::read_super_pswd_lo(unsigned)
    dev_handlers.o(.data) refers to dev_handlers.o(i._ZN12TDevHandlers18read_super_pswd_hiEj) for TDevHandlers::read_super_pswd_hi(unsigned)
    dev_handlers.o(.data) refers to dev_handlers.o(i._ZN12TDevHandlers19write_super_pswd_loEj) for TDevHandlers::write_super_pswd_lo(unsigned)
    dev_handlers.o(.data) refers to dev_handlers.o(i._ZN12TDevHandlers19write_super_pswd_hiEj) for TDevHandlers::write_super_pswd_hi(unsigned)
    dev_handlers.o(.data) refers to dev_handlers.o(i._ZN12TDevHandlers18read_calib_processEj) for TDevHandlers::read_calib_process(unsigned)
    dev_handlers.o(.data) refers to dev_handlers.o(i._ZN12TDevHandlers19write_calib_processEj) for TDevHandlers::write_calib_process(unsigned)
    dev_handlers.o(.data) refers to dev_handlers.o(i._ZN12TDevHandlers17read_parameter_loEj) for TDevHandlers::read_parameter_lo(unsigned)
    dev_handlers.o(.data) refers to dev_handlers.o(i._ZN12TDevHandlers17read_parameter_hiEj) for TDevHandlers::read_parameter_hi(unsigned)
    dev_handlers.o(.data) refers to dev_handlers.o(i._ZN12TDevHandlers18write_parameter_loEj) for TDevHandlers::write_parameter_lo(unsigned)
    dev_handlers.o(.data) refers to dev_handlers.o(i._ZN12TDevHandlers18write_parameter_hiEj) for TDevHandlers::write_parameter_hi(unsigned)
    dev_handlers.o(.data) refers to dev_handlers.o(i._ZN12TDevHandlers13read_my_angleEj) for TDevHandlers::read_my_angle(unsigned)
    dev_handlers.o(.data) refers to dev_handlers.o(i._ZN12TDevHandlers15read_sens_angleEj) for TDevHandlers::read_sens_angle(unsigned)
    dev_handlers.o(.data) refers to dev_handlers.o(i._ZN12TDevHandlers12read_code_swEj) for TDevHandlers::read_code_sw(unsigned)
    dev_handlers.o(.data) refers to dev_handlers.o(i._ZN12TDevHandlers17read_sens_code_swEj) for TDevHandlers::read_sens_code_sw(unsigned)
    dev_handlers.o(.data) refers to dev_handlers.o(i._ZN12TDevHandlers18read_sens_prog_nbrEj) for TDevHandlers::read_sens_prog_nbr(unsigned)
    dev_handlers.o(.data) refers to dev_handlers.o(i._ZN12TDevHandlers26read_sens_pitch_bias_angleEj) for TDevHandlers::read_sens_pitch_bias_angle(unsigned)
    dev_handlers.o(.data) refers to dev_handlers.o(i._ZN12TDevHandlers25read_sens_roll_bias_angleEj) for TDevHandlers::read_sens_roll_bias_angle(unsigned)
    dev_handlers.o(.data) refers to dev_handlers.o(i._ZN12TDevHandlers22read_sample_valid_signEj) for TDevHandlers::read_sample_valid_sign(unsigned)
    dev_handlers.o(.data) refers to dev_handlers.o(i._ZN12TDevHandlers27read_sens_sample_valid_signEj) for TDevHandlers::read_sens_sample_valid_sign(unsigned)
    dev_handlers.o(.data) refers to dev_handlers.o(i._ZN12TDevHandlers10read_calibEj) for TDevHandlers::read_calib(unsigned)
    dev_handlers.o(.data) refers to dev_handlers.o(i._ZN12TDevHandlers15read_sens_calibEj) for TDevHandlers::read_sens_calib(unsigned)
    dev_handlers.o(.data) refers to dev_handlers.o(i._ZN12TDevHandlers14read_base_memsEj) for TDevHandlers::read_base_mems(unsigned)
    dev_handlers.o(.data) refers to dev_handlers.o(i._ZN12TDevHandlers12read_hc_memsEj) for TDevHandlers::read_hc_mems(unsigned)
    dev_handlers.o(.data) refers to dev_handlers.o(i._ZN12TDevHandlers19read_pd_pressure_loEj) for TDevHandlers::read_pd_pressure_lo(unsigned)
    dev_handlers.o(.data) refers to dev_handlers.o(i._ZN12TDevHandlers19read_pd_pressure_hiEj) for TDevHandlers::read_pd_pressure_hi(unsigned)
    dev_handlers.o(.data) refers to dev_handlers.o(i._ZN12TDevHandlers18my_read_sens_angleEj) for TDevHandlers::my_read_sens_angle(unsigned)
    dev_handlers.o(.data) refers to dev_handlers.o(i._ZN12TDevHandlers25my_read_sample_valid_signEj) for TDevHandlers::my_read_sample_valid_sign(unsigned)
    dev_handlers.o(.data) refers to dev_handlers.o(i._ZN12TDevHandlers20my_read_sens_code_swEj) for TDevHandlers::my_read_sens_code_sw(unsigned)
    dev_handlers.o(.data) refers to dev_handlers.o(i._ZN12TDevHandlers21my_read_sens_prog_nbrEj) for TDevHandlers::my_read_sens_prog_nbr(unsigned)
    dev_handlers.o(.data) refers to dev_handlers.o(i._ZN12TDevHandlers18my_read_sens_calibEj) for TDevHandlers::my_read_sens_calib(unsigned)
    dev_handlers.o(.data) refers to dev_handlers.o(i._ZN12TDevHandlers24my_read_sens_axis_rotateEj) for TDevHandlers::my_read_sens_axis_rotate(unsigned)
    dev_handlers.o(.data) refers to dev_handlers.o(i._ZN12TDevHandlers29my_read_sens_pitch_bias_angleEj) for TDevHandlers::my_read_sens_pitch_bias_angle(unsigned)
    dev_handlers.o(.data) refers to dev_handlers.o(i._ZN12TDevHandlers28my_read_sens_roll_bias_angleEj) for TDevHandlers::my_read_sens_roll_bias_angle(unsigned)
    dev_handlers.o(.data) refers to dev_handlers.o(i._ZN12TDevHandlers23my_write_start_meas_cmdEj) for TDevHandlers::my_write_start_meas_cmd(unsigned)
    dev_handlers.o(.data) refers to dev_handlers.o(i._ZN12TDevHandlers25my_write_sens_axis_rotateEj) for TDevHandlers::my_write_sens_axis_rotate(unsigned)
    dev_handlers.o(.data) refers to dev_handlers.o(i._ZN12TDevHandlers20write_pd_pressure_loEj) for TDevHandlers::write_pd_pressure_lo(unsigned)
    dev_handlers.o(.data) refers to dev_handlers.o(i._ZN12TDevHandlers20write_pd_pressure_hiEj) for TDevHandlers::write_pd_pressure_hi(unsigned)
    dev_handlers.o(.data) refers to dev_handlers.o(i._ZN12TDevHandlers14read_interconnEj) for TDevHandlers::read_interconn(unsigned)
    dev_handlers.o(.data) refers to dev_handlers.o(i._ZN12TDevHandlers15write_interconnEj) for TDevHandlers::write_interconn(unsigned)
    dev_handlers.o(.data) refers to dev_handlers.o(i._ZN12TDevHandlers20write_start_meas_cmdEj) for TDevHandlers::write_start_meas_cmd(unsigned)
    dev_handlers.o(.data) refers to dev_handlers.o(.conststring) for .conststring
    coding_switch.o(i._Z11code_sw_tmrPv) refers to queue.o(i.xQueueGenericSend) for xQueueGenericSend
    coding_switch.o(i._Z11code_sw_tmrPv) refers to main.o(.data) for CodeSwTmr_TrigSem
    coding_switch.o(i._Z13coding_switchPv) refers to coding_switch.o(i._ZN13TCodingSwitch4initEv) for TCodingSwitch::init()
    coding_switch.o(i._Z13coding_switchPv) refers to tasks.o(i.xTaskGetTickCount) for xTaskGetTickCount
    coding_switch.o(i._Z13coding_switchPv) refers to timers.o(i.xTimerGenericCommand) for xTimerGenericCommand
    coding_switch.o(i._Z13coding_switchPv) refers to queue.o(i.xQueueGenericReceive) for xQueueGenericReceive
    coding_switch.o(i._Z13coding_switchPv) refers to coding_switch.o(.bss) for CodeSw
    coding_switch.o(i._Z13coding_switchPv) refers to coding_switch.o(.constdata) for .constdata
    coding_switch.o(i._Z13coding_switchPv) refers to main.o(.data) for CodeSwTmr
    coding_switch.o(i._ZN13TCodingSwitch11sample_ctrlERPv) refers to coding_switch.o(i._ZN13TCodingSwitch7rd_addrEv) for TCodingSwitch::rd_addr()
    coding_switch.o(i._ZN13TCodingSwitch11sample_ctrlERPv) refers to timers.o(i.xTimerIsTimerActive) for xTimerIsTimerActive
    coding_switch.o(i._ZN13TCodingSwitch11sample_ctrlERPv) refers to timers.o(i.xTimerGenericCommand) for xTimerGenericCommand
    coding_switch.o(i._ZN13TCodingSwitch11sample_ctrlERPv) refers to coding_switch.o(t._ZSt5equalIPhS0_EbT_S1_T0_) for bool std::equal<unsigned char*, unsigned char*>(T1, T1, T2)
    coding_switch.o(i._ZN13TCodingSwitch11sample_ctrlERPv) refers to model.o(i._ZN6TModel11set_code_swEh) for TModel::set_code_sw(unsigned char)
    coding_switch.o(i._ZN13TCodingSwitch11sample_ctrlERPv) refers to tasks.o(i.xTaskGetTickCount) for xTaskGetTickCount
    coding_switch.o(i._ZN13TCodingSwitch11sample_ctrlERPv) refers to model.o(.bss) for Model
    coding_switch.o(i._ZN13TCodingSwitch4initEv) refers to memcpya.o(.text) for __aeabi_memcpy4
    coding_switch.o(i._ZN13TCodingSwitch4initEv) refers to stm32l4xx_ll_gpio.o(i.LL_GPIO_Init) for LL_GPIO_Init
    coding_switch.o(i._ZN13TCodingSwitch7rd_addrEv) refers to memcpya.o(.text) for __aeabi_memcpy4
    coding_switch.o(i._ZN13TCodingSwitch8dly_ctrlERPv) refers to timers.o(i.xTimerIsTimerActive) for xTimerIsTimerActive
    coding_switch.o(i._ZN13TCodingSwitch8dly_ctrlERPv) refers to timers.o(i.xTimerGenericCommand) for xTimerGenericCommand
    coding_switch.o(i._ZN13TCodingSwitch8dly_ctrlERPv) refers to tasks.o(i.xTaskGetTickCount) for xTaskGetTickCount
    coding_switch.o(i._ZN13TCodingSwitchC1ERA4_K11TDevAddr_HW) refers to coding_switch.o(.constdata) for <Data1>
    coding_switch.o(i.__sti___17_coding_switch_cpp_CodeSw) refers to coding_switch.o(i._ZN13TCodingSwitchC1ERA4_K11TDevAddr_HW) for TCodingSwitch::TCodingSwitch(const TDevAddr_HW(&)[4])
    coding_switch.o(i.__sti___17_coding_switch_cpp_CodeSw) refers to aeabi_atexit.o(.text) for __aeabi_atexit
    coding_switch.o(i.__sti___17_coding_switch_cpp_CodeSw) refers to hard_config.o(.data) for DevAddr_HW
    coding_switch.o(i.__sti___17_coding_switch_cpp_CodeSw) refers to coding_switch.o(.bss) for CodeSw
    coding_switch.o(i.__sti___17_coding_switch_cpp_CodeSw) refers to coding_switch.o(i._ZN13TCodingSwitchD1Ev) for TCodingSwitch::~TCodingSwitch()
    coding_switch.o(.ARM.exidx) refers to coding_switch.o(i._ZN13TCodingSwitch4initEv) for i._ZN13TCodingSwitch4initEv
    coding_switch.o(.ARM.exidx) refers to coding_switch.o(i._Z13coding_switchPv) for i._Z13coding_switchPv
    coding_switch.o(.ARM.exidx) refers to coding_switch.o(i._Z11code_sw_tmrPv) for i._Z11code_sw_tmrPv
    coding_switch.o(.ARM.exidx) refers to coding_switch.o(i._ZN13TCodingSwitchC1ERA4_K11TDevAddr_HW) for i._ZN13TCodingSwitchC1ERA4_K11TDevAddr_HW
    coding_switch.o(.ARM.exidx) refers to coding_switch.o(i._ZN13TCodingSwitchD1Ev) for i._ZN13TCodingSwitchD1Ev
    coding_switch.o(.ARM.exidx) refers to coding_switch.o(i._ZN13TCodingSwitch7rd_addrEv) for i._ZN13TCodingSwitch7rd_addrEv
    coding_switch.o(.ARM.exidx) refers to coding_switch.o(i._ZN13TCodingSwitch11sample_ctrlERPv) for i._ZN13TCodingSwitch11sample_ctrlERPv
    coding_switch.o(.ARM.exidx) refers to coding_switch.o(i._ZN13TCodingSwitch8dly_ctrlERPv) for i._ZN13TCodingSwitch8dly_ctrlERPv
    coding_switch.o(.ARM.exidx) refers to coding_switch.o(i.__sti___17_coding_switch_cpp_CodeSw) for i.__sti___17_coding_switch_cpp_CodeSw
    coding_switch.o(.constdata) refers to coding_switch.o(i._ZN13TCodingSwitch11sample_ctrlERPv) for TCodingSwitch::sample_ctrl(void*&)
    coding_switch.o(.constdata) refers to coding_switch.o(i._ZN13TCodingSwitch8dly_ctrlERPv) for TCodingSwitch::dly_ctrl(void*&)
    coding_switch.o(.init_array) refers to coding_switch.o(i.__sti___17_coding_switch_cpp_CodeSw) for __sti___17_coding_switch_cpp_CodeSw
    coding_switch.o(.init_array) refers to cpp_init.o(.text) for __cpp_initialize__aeabi_
    discrete_out.o(i._Z10test_calibh) refers to memcpya.o(.text) for __aeabi_memcpy4
    discrete_out.o(i._Z10test_calibh) refers to queue.o(i.xQueueGenericSend) for xQueueGenericSend
    discrete_out.o(i._Z10test_calibh) refers to discrete_out.o(.constdata) for .constdata
    discrete_out.o(i._Z12discrete_outPv) refers to tasks.o(i.vTaskDelay) for vTaskDelay
    discrete_out.o(i._Z14do_uncalib_tmrPv) refers to queue.o(i.xQueueGenericSend) for xQueueGenericSend
    discrete_out.o(i._Z14do_uncalib_tmrPv) refers to main.o(.data) for DoUncalibTmr_TrigSem
    discrete_out.o(i._ZN12TDiscreteOut11uncalib_accEv) refers to discrete_out.o(i._ZN32_INTERNAL_16_discrete_out_cpp_Do20LL_GPIO_SetOutputPinEP12GPIO_TypeDefj) for [local to discrete_out_cpp]::LL_GPIO_SetOutputPin(GPIO_TypeDef*, unsigned)
    discrete_out.o(i._ZN12TDiscreteOut11uncalib_accEv) refers to tasks.o(i.xTaskGetTickCount) for xTaskGetTickCount
    discrete_out.o(i._ZN12TDiscreteOut11uncalib_accEv) refers to timers.o(i.xTimerGenericCommand) for xTimerGenericCommand
    discrete_out.o(i._ZN12TDiscreteOut11uncalib_accEv) refers to queue.o(i.xQueueGenericReceive) for xQueueGenericReceive
    discrete_out.o(i._ZN12TDiscreteOut11uncalib_accEv) refers to main.o(.data) for DoUncalibTmr
    discrete_out.o(i._ZN12TDiscreteOut4initEv) refers to stm32l4xx_ll_gpio.o(i.LL_GPIO_Init) for LL_GPIO_Init
    discrete_out.o(i._ZN12TDiscreteOut6closedEv) refers to discrete_out.o(i._ZN32_INTERNAL_16_discrete_out_cpp_Do20LL_GPIO_SetOutputPinEP12GPIO_TypeDefj) for [local to discrete_out_cpp]::LL_GPIO_SetOutputPin(GPIO_TypeDef*, unsigned)
    discrete_out.o(i.__sti___16_discrete_out_cpp_Do) refers to discrete_out.o(i._ZN12TDiscreteOutC1ERK4TPin) for TDiscreteOut::TDiscreteOut(const TPin&)
    discrete_out.o(i.__sti___16_discrete_out_cpp_Do) refers to aeabi_atexit.o(.text) for __aeabi_atexit
    discrete_out.o(i.__sti___16_discrete_out_cpp_Do) refers to hard_config.o(.data) for DO_HW
    discrete_out.o(i.__sti___16_discrete_out_cpp_Do) refers to discrete_out.o(.data) for Do
    discrete_out.o(i.__sti___16_discrete_out_cpp_Do) refers to discrete_out.o(i._ZN12TDiscreteOutD1Ev) for TDiscreteOut::~TDiscreteOut()
    discrete_out.o(.ARM.exidx) refers to discrete_out.o(i._Z10test_calibh) for i._Z10test_calibh
    discrete_out.o(.ARM.exidx) refers to discrete_out.o(i._ZN12TDiscreteOut4openEv) for i._ZN12TDiscreteOut4openEv
    discrete_out.o(.ARM.exidx) refers to discrete_out.o(i._ZN12TDiscreteOut4initEv) for i._ZN12TDiscreteOut4initEv
    discrete_out.o(.ARM.exidx) refers to discrete_out.o(i._Z12discrete_outPv) for i._Z12discrete_outPv
    discrete_out.o(.ARM.exidx) refers to discrete_out.o(i._Z14do_uncalib_tmrPv) for i._Z14do_uncalib_tmrPv
    discrete_out.o(.ARM.exidx) refers to discrete_out.o(i._ZN12TDiscreteOutC1ERK4TPin) for i._ZN12TDiscreteOutC1ERK4TPin
    discrete_out.o(.ARM.exidx) refers to discrete_out.o(i._ZN12TDiscreteOutD1Ev) for i._ZN12TDiscreteOutD1Ev
    discrete_out.o(.ARM.exidx) refers to discrete_out.o(i._ZN12TDiscreteOut6closedEv) for i._ZN12TDiscreteOut6closedEv
    discrete_out.o(.ARM.exidx) refers to discrete_out.o(i._ZN12TDiscreteOut6toggleEv) for i._ZN12TDiscreteOut6toggleEv
    discrete_out.o(.ARM.exidx) refers to discrete_out.o(i._ZN12TDiscreteOut11uncalib_accEv) for i._ZN12TDiscreteOut11uncalib_accEv
    discrete_out.o(.ARM.exidx) refers to discrete_out.o(i.__sti___16_discrete_out_cpp_Do) for i.__sti___16_discrete_out_cpp_Do
    discrete_out.o(.ARM.exidx) refers to discrete_out.o(i._ZN32_INTERNAL_16_discrete_out_cpp_Do20LL_GPIO_SetOutputPinEP12GPIO_TypeDefj) for i._ZN32_INTERNAL_16_discrete_out_cpp_Do20LL_GPIO_SetOutputPinEP12GPIO_TypeDefj
    discrete_out.o(.constdata) refers to discrete_out.o(i._ZN12TDiscreteOut4openEv) for TDiscreteOut::open()
    discrete_out.o(.constdata) refers to discrete_out.o(i._ZN12TDiscreteOut6closedEv) for TDiscreteOut::closed()
    discrete_out.o(.constdata) refers to main.o(.data) for AccCalib_X_UP_Sem
    discrete_out.o(.init_array) refers to discrete_out.o(i.__sti___16_discrete_out_cpp_Do) for __sti___16_discrete_out_cpp_Do
    discrete_out.o(.init_array) refers to cpp_init.o(.text) for __cpp_initialize__aeabi_
    mems.o(i._Z4memsPv) refers to mpu-9250_acc_gyro_mag_driver_hl.o(i._ZN8MPU_925020TAccGyroMagDriver_HL11init_driverEv) for MPU_9250::TAccGyroMagDriver_HL::init_driver()
    mems.o(i._Z4memsPv) refers to mpu-9250_acc_gyro_mag_driver_hl.o(i._ZN8MPU_925020TAccGyroMagDriver_HL8init_auxEv) for MPU_9250::TAccGyroMagDriver_HL::init_aux()
    mems.o(i._Z4memsPv) refers to mpu-9250_acc_gyro_mag_driver_hl.o(i._ZN8MPU_925020TAccGyroMagDriver_HL9init_chipEv) for MPU_9250::TAccGyroMagDriver_HL::init_chip()
    mems.o(i._Z4memsPv) refers to mpu-9250_acc_gyro_mag_driver_hl.o(i._ZN8MPU_925020TAccGyroMagDriver_HL17check_id_acc_gyroEv) for MPU_9250::TAccGyroMagDriver_HL::check_id_acc_gyro()
    mems.o(i._Z4memsPv) refers to motion_tl.o(.text.MotionTL_Initialize) for MotionTL_Initialize
    mems.o(i._Z4memsPv) refers to motion_tl.o(.text.MotionTL_SetOrientation_Acc) for MotionTL_SetOrientation_Acc
    mems.o(i._Z4memsPv) refers to memseta.o(.text) for __aeabi_memclr4
    mems.o(i._Z4memsPv) refers to motion_tl.o(.text.MotionTL_GetLibVersion) for MotionTL_GetLibVersion
    mems.o(i._Z4memsPv) refers to mems.o(i._ZN25_INTERNAL_8_mems_cpp_Mems12mems_processEv) for [local to mems_cpp]::mems_process()
    mems.o(i._Z4memsPv) refers to mpu-9250_acc_gyro_mag_driver_hl.o(.bss) for AccMagGyro
    mems.o(i._ZN25_INTERNAL_8_mems_cpp_Mems12mems_processEv) refers to queue.o(i.xQueueGenericSend) for xQueueGenericSend
    mems.o(i._ZN25_INTERNAL_8_mems_cpp_Mems12mems_processEv) refers to queue.o(i.xQueueGenericReceive) for xQueueGenericReceive
    mems.o(i._ZN25_INTERNAL_8_mems_cpp_Mems12mems_processEv) refers to mems.o(i._ZN5TMems12acquire_dataERA300_N9TSettings10TAccelDataE) for TMems::acquire_data(TSettings::TAccelData(&)[300])
    mems.o(i._ZN25_INTERNAL_8_mems_cpp_Mems12mems_processEv) refers to mems.o(i._ZN5TMems13is_valid_dataERA300_KN9TSettings10TAccelDataE) for TMems::is_valid_data(const TSettings::TAccelData(&)[300])
    mems.o(i._ZN25_INTERNAL_8_mems_cpp_Mems12mems_processEv) refers to model.o(i._ZN6TModel21set_sample_valid_signEN9TSettings10TValidSignE) for TModel::set_sample_valid_sign(TSettings::TValidSign)
    mems.o(i._ZN25_INTERNAL_8_mems_cpp_Mems12mems_processEv) refers to mems.o(i._ZN5TMems11cnt_averageERA300_KN9TSettings10TAccelDataERS1_) for TMems::cnt_average(const TSettings::TAccelData(&)[300], TSettings::TAccelData&)
    mems.o(i._ZN25_INTERNAL_8_mems_cpp_Mems12mems_processEv) refers to mems.o(i._ZSt3powfi) for std::pow(float, int)
    mems.o(i._ZN25_INTERNAL_8_mems_cpp_Mems12mems_processEv) refers to mems.o(i._ZSt4sqrtf) for std::sqrt(float)
    mems.o(i._ZN25_INTERNAL_8_mems_cpp_Mems12mems_processEv) refers to atan2f.o(i.__hardfp_atan2f) for __hardfp_atan2f
    mems.o(i._ZN25_INTERNAL_8_mems_cpp_Mems12mems_processEv) refers to f2d.o(.text) for __aeabi_f2d
    mems.o(i._ZN25_INTERNAL_8_mems_cpp_Mems12mems_processEv) refers to ddiv.o(.text) for __aeabi_ddiv
    mems.o(i._ZN25_INTERNAL_8_mems_cpp_Mems12mems_processEv) refers to d2f.o(.text) for __aeabi_d2f
    mems.o(i._ZN25_INTERNAL_8_mems_cpp_Mems12mems_processEv) refers to roundf.o(i.__hardfp_roundf) for __hardfp_roundf
    mems.o(i._ZN25_INTERNAL_8_mems_cpp_Mems12mems_processEv) refers to model.o(i._ZN6TModel13set_raw_pitchEa) for TModel::set_raw_pitch(signed char)
    mems.o(i._ZN25_INTERNAL_8_mems_cpp_Mems12mems_processEv) refers to model.o(i._ZN6TModel12set_raw_rollEa) for TModel::set_raw_roll(signed char)
    mems.o(i._ZN25_INTERNAL_8_mems_cpp_Mems12mems_processEv) refers to model.o(i._ZN6TModel11set_accel_zEf) for TModel::set_accel_z(float)
    mems.o(i._ZN25_INTERNAL_8_mems_cpp_Mems12mems_processEv) refers to mems.o(t._ZSt4fillIPfjEvT_S1_RKT0_) for void std::fill<float*, unsigned>(T1, T1, const T2&)
    mems.o(i._ZN25_INTERNAL_8_mems_cpp_Mems12mems_processEv) refers to main.o(.data) for MemsDevRdySem
    mems.o(i._ZN25_INTERNAL_8_mems_cpp_Mems12mems_processEv) refers to mems.o(.data) for [local to mems_cpp]::mems_process()::Ctr
    mems.o(i._ZN25_INTERNAL_8_mems_cpp_Mems12mems_processEv) refers to mems.o(.bss) for AccelBuf
    mems.o(i._ZN25_INTERNAL_8_mems_cpp_Mems12mems_processEv) refers to model.o(.bss) for Model
    mems.o(i._ZN5TMems10chk_sampleERKN9TSettings10TAccelDataEN6TModel11TMemsOrientE) refers to mems.o(.constdata) for AxesHyst
    mems.o(i._ZN5TMems12acquire_dataERA300_N9TSettings10TAccelDataE) refers to queue.o(i.xQueueGenericReceive) for xQueueGenericReceive
    mems.o(i._ZN5TMems12acquire_dataERA300_N9TSettings10TAccelDataE) refers to mpu-9250_acc_gyro_mag_driver_hl.o(i._ZN8MPU_925020TAccGyroMagDriver_HL16collect_acc_dataEv) for MPU_9250::TAccGyroMagDriver_HL::collect_acc_data()
    mems.o(i._ZN5TMems12acquire_dataERA300_N9TSettings10TAccelDataE) refers to mpu-9250_acc_gyro_mag_driver_hl.o(i._ZNK8MPU_925020TAccGyroMagDriver_HL12get_acc_dataEv) for MPU_9250::TAccGyroMagDriver_HL::get_acc_data() const
    mems.o(i._ZN5TMems12acquire_dataERA300_N9TSettings10TAccelDataE) refers to main.o(.data) for RawDataMems_RdySem
    mems.o(i._ZN5TMems12acquire_dataERA300_N9TSettings10TAccelDataE) refers to mems.o(.bss) for AccelBuf
    mems.o(i._ZN5TMems13is_valid_dataERA300_KN9TSettings10TAccelDataE) refers to cxa_guard_acquire.o(i.__cxa_guard_acquire) for __cxa_guard_acquire
    mems.o(i._ZN5TMems13is_valid_dataERA300_KN9TSettings10TAccelDataE) refers to mems.o(.data) for _ZGV_ZZN5TMems13is_valid_dataERA300_KN9TSettings10TAccelDataEE4Prev
    mems.o(i._ZN5TMems13is_valid_dataERA300_KN9TSettings10TAccelDataE) refers to mems.o(.bss) for TMems::is_valid_data(const TSettings::TAccelData(&)[300])::Prev
    mems.o(i._ZN5TMems14chk_mems_stateEv) refers to model.o(i._ZN6TModel12get_dev_typeEv) for TModel::get_dev_type()
    mems.o(i._ZN5TMems14chk_mems_stateEv) refers to queue.o(i.xQueueGenericReceive) for xQueueGenericReceive
    mems.o(i._ZN5TMems14chk_mems_stateEv) refers to model.o(i._ZN6TModel13set_base_memsEN9TSettings10TMainStateE) for TModel::set_base_mems(TSettings::TMainState)
    mems.o(i._ZN5TMems14chk_mems_stateEv) refers to model.o(i._ZN6TModel11set_hc_memsEN9TSettings10TMainStateE) for TModel::set_hc_mems(TSettings::TMainState)
    mems.o(i._ZN5TMems14chk_mems_stateEv) refers to model.o(.bss) for Model
    mems.o(i._ZN5TMems14chk_mems_stateEv) refers to main.o(.data) for RawDataMems_RdySem
    mems.o(i._ZN5TMems8wait_semEPKN6TModel4TSemES3_PS3_) refers to tasks.o(i.vTaskDelay) for vTaskDelay
    mems.o(i._ZN5TMems8wait_semEPKN6TModel4TSemES3_PS3_) refers to queue.o(i.xQueueGenericReceive) for xQueueGenericReceive
    mems.o(i._ZN5TMems9acc_calibEv) refers to queue.o(i.xQueueGenericReceive) for xQueueGenericReceive
    mems.o(i._ZN5TMems9acc_calibEv) refers to heap_2.o(i.xPortGetFreeHeapSize) for xPortGetFreeHeapSize
    mems.o(i._ZN5TMems9acc_calibEv) refers to mems.o(i._ZN5TMems8wait_semEPKN6TModel4TSemES3_PS3_) for TMems::wait_sem(const TModel::TSem*, const TModel::TSem*, const TModel::TSem**)
    mems.o(i._ZN5TMems9acc_calibEv) refers to model.o(i._ZN6TModel22set_calib_position_ctrENS_11TMemsOrientE) for TModel::set_calib_position_ctr(TModel::TMemsOrient)
    mems.o(i._ZN5TMems9acc_calibEv) refers to memseta.o(.text) for __aeabi_memclr4
    mems.o(i._ZN5TMems9acc_calibEv) refers to mems.o(i._ZN5TMems14chk_mems_stateEv) for TMems::chk_mems_state()
    mems.o(i._ZN5TMems9acc_calibEv) refers to mpu-9250_acc_gyro_mag_driver_hl.o(i._ZN8MPU_925020TAccGyroMagDriver_HL16collect_acc_dataEv) for MPU_9250::TAccGyroMagDriver_HL::collect_acc_data()
    mems.o(i._ZN5TMems9acc_calibEv) refers to mpu-9250_acc_gyro_mag_driver_hl.o(i._ZNK8MPU_925020TAccGyroMagDriver_HL12get_acc_dataEv) for MPU_9250::TAccGyroMagDriver_HL::get_acc_data() const
    mems.o(i._ZN5TMems9acc_calibEv) refers to mems.o(i._ZN5TMems10chk_sampleERKN9TSettings10TAccelDataEN6TModel11TMemsOrientE) for TMems::chk_sample(const TSettings::TAccelData&, TModel::TMemsOrient)
    mems.o(i._ZN5TMems9acc_calibEv) refers to motion_tl.o(.text.MotionTL_CalibratePosition) for MotionTL_CalibratePosition
    mems.o(i._ZN5TMems9acc_calibEv) refers to mems.o(t._ZSt4fillIPfjEvT_S1_RKT0_) for void std::fill<float*, unsigned>(T1, T1, const T2&)
    mems.o(i._ZN5TMems9acc_calibEv) refers to model.o(i._ZN6TModel17set_calib_processEN9TSettings13TCalibProcessE) for TModel::set_calib_process(TSettings::TCalibProcess)
    mems.o(i._ZN5TMems9acc_calibEv) refers to model.o(i._ZN6TModel22clr_calib_position_ctrENS_11TMemsOrientE) for TModel::clr_calib_position_ctr(TModel::TMemsOrient)
    mems.o(i._ZN5TMems9acc_calibEv) refers to motion_tl.o(.text.MotionTL_GetCalValues) for MotionTL_GetCalValues
    mems.o(i._ZN5TMems9acc_calibEv) refers to model.o(i._ZN6TModel20set_accel_calib_signERKN9TSettings11TIsAccCalibE) for TModel::set_accel_calib_sign(const TSettings::TIsAccCalib&)
    mems.o(i._ZN5TMems9acc_calibEv) refers to model.o(i._ZN6TModel20set_accel_calib_dataERKN9TSettings11TAccCalDataE) for TModel::set_accel_calib_data(const TSettings::TAccCalData&)
    mems.o(i._ZN5TMems9acc_calibEv) refers to model.o(.bss) for Model
    mems.o(i._ZN5TMems9acc_calibEv) refers to mems.o(.data) for PosCtr
    mems.o(i.__sti___8_mems_cpp_Mems) refers to mems.o(i._ZN5TMemsC1ERN8MPU_925020TAccGyroMagDriver_HLE) for TMems::TMems(MPU_9250::TAccGyroMagDriver_HL&)
    mems.o(i.__sti___8_mems_cpp_Mems) refers to aeabi_atexit.o(.text) for __aeabi_atexit
    mems.o(i.__sti___8_mems_cpp_Mems) refers to mpu-9250_acc_gyro_mag_driver_hl.o(.bss) for AccMagGyro
    mems.o(i.__sti___8_mems_cpp_Mems) refers to mems.o(.data) for Mems
    mems.o(i.__sti___8_mems_cpp_Mems) refers to mems.o(i._ZN5TMemsD1Ev) for TMems::~TMems()
    mems.o(.ARM.exidx) refers to mems.o(i._ZN5TMems11cnt_averageERA300_KN9TSettings10TAccelDataERS1_) for i._ZN5TMems11cnt_averageERA300_KN9TSettings10TAccelDataERS1_
    mems.o(.ARM.exidx) refers to mems.o(i._ZN5TMems13is_valid_dataERA300_KN9TSettings10TAccelDataE) for i._ZN5TMems13is_valid_dataERA300_KN9TSettings10TAccelDataE
    mems.o(.ARM.exidx) refers to mems.o(i._ZN5TMems12acquire_dataERA300_N9TSettings10TAccelDataE) for i._ZN5TMems12acquire_dataERA300_N9TSettings10TAccelDataE
    mems.o(.ARM.exidx) refers to mems.o(i._ZN25_INTERNAL_8_mems_cpp_Mems12mems_processEv) for i._ZN25_INTERNAL_8_mems_cpp_Mems12mems_processEv
    mems.o(.ARM.exidx) refers to mems.o(i._Z4memsPv) for i._Z4memsPv
    mems.o(.ARM.exidx) refers to mems.o(i._ZN5TMemsC1ERN8MPU_925020TAccGyroMagDriver_HLE) for i._ZN5TMemsC1ERN8MPU_925020TAccGyroMagDriver_HLE
    mems.o(.ARM.exidx) refers to mems.o(i._ZN5TMemsD1Ev) for i._ZN5TMemsD1Ev
    mems.o(.ARM.exidx) refers to mems.o(i._ZN5TMems8wait_semEPKN6TModel4TSemES3_PS3_) for i._ZN5TMems8wait_semEPKN6TModel4TSemES3_PS3_
    mems.o(.ARM.exidx) refers to mems.o(i._ZN5TMems10chk_sampleERKN9TSettings10TAccelDataEN6TModel11TMemsOrientE) for i._ZN5TMems10chk_sampleERKN9TSettings10TAccelDataEN6TModel11TMemsOrientE
    mems.o(.ARM.exidx) refers to mems.o(i._ZN5TMems14chk_mems_stateEv) for i._ZN5TMems14chk_mems_stateEv
    mems.o(.ARM.exidx) refers to mems.o(i._ZN5TMems9acc_calibEv) for i._ZN5TMems9acc_calibEv
    mems.o(.ARM.exidx) refers to mems.o(i._ZN5TMems8cnt_dampERU8__packedfff) for i._ZN5TMems8cnt_dampERU8__packedfff
    mems.o(.ARM.exidx) refers to mems.o(i.__sti___8_mems_cpp_Mems) for i.__sti___8_mems_cpp_Mems
    mems.o(.init_array) refers to mems.o(i.__sti___8_mems_cpp_Mems) for __sti___8_mems_cpp_Mems
    mems.o(.init_array) refers to cpp_init.o(.text) for __cpp_initialize__aeabi_
    settings.o(i._ZN9TSettings7chk_devER10MySettings) refers to settings.o(t._ZNK9TSettings9chk_paramIhEEbRKNS_6TRangeET_) for bool TSettings::chk_param<unsigned char>(const TSettings::TRange&, T1) const
    settings.o(i._ZN9TSettings7chk_devER10MySettings) refers to model.o(i._ZN6TModel7get_thrEv) for TModel::get_thr()
    settings.o(i._ZN9TSettings7chk_devER10MySettings) refers to roundf.o(i.__hardfp_roundf) for __hardfp_roundf
    settings.o(i._ZN9TSettings7chk_devER10MySettings) refers to model.o(i._ZN6TModel8get_hystEv) for TModel::get_hyst()
    settings.o(i._ZN9TSettings7chk_devER10MySettings) refers to model.o(i._ZN6TModel8get_biasEv) for TModel::get_bias()
    settings.o(i._ZN9TSettings7chk_devER10MySettings) refers to model.o(.bss) for Model
    settings.o(i._ZN9TSettingsC1Ev) refers to settings.o(.constdata) for <Data1>
    settings.o(i._ZNK9TSettings10chk_accessEs) refers to settings.o(t._ZNK9TSettings9chk_paramIsEEbRKNS_6TRangeET_) for bool TSettings::chk_param<short>(const TSettings::TRange&, T1) const
    settings.o(i._ZNK9TSettings11chk_mb_addrEs) refers to settings.o(t._ZNK9TSettings9chk_paramIsEEbRKNS_6TRangeET_) for bool TSettings::chk_param<short>(const TSettings::TRange&, T1) const
    settings.o(i._ZNK9TSettings15chk_axis_rotateEs) refers to settings.o(t._ZNK9TSettings9chk_paramIsEEbRKNS_6TRangeET_) for bool TSettings::chk_param<short>(const TSettings::TRange&, T1) const
    settings.o(i._ZNK9TSettings15chk_u_baud_rateEs) refers to settings.o(t._ZNK9TSettings9chk_paramIsEEbRKNS_6TRangeET_) for bool TSettings::chk_param<short>(const TSettings::TRange&, T1) const
    settings.o(i._ZNK9TSettings19chk_roll_bias_angleEs) refers to settings.o(t._ZNK9TSettings9chk_paramIsEEbRKNS_6TRangeET_) for bool TSettings::chk_param<short>(const TSettings::TRange&, T1) const
    settings.o(i._ZNK9TSettings20chk_pitch_bias_angleEs) refers to settings.o(t._ZNK9TSettings9chk_paramIsEEbRKNS_6TRangeET_) for bool TSettings::chk_param<short>(const TSettings::TRange&, T1) const
    settings.o(i._ZNK9TSettings7chk_thrEs) refers to settings.o(t._ZNK9TSettings9chk_paramIsEEbRKNS_6TRangeET_) for bool TSettings::chk_param<short>(const TSettings::TRange&, T1) const
    settings.o(i._ZNK9TSettings8chk_biasEs) refers to settings.o(t._ZNK9TSettings9chk_paramIsEEbRKNS_6TRangeET_) for bool TSettings::chk_param<short>(const TSettings::TRange&, T1) const
    settings.o(i._ZNK9TSettings8chk_hystEs) refers to settings.o(t._ZNK9TSettings9chk_paramIsEEbRKNS_6TRangeET_) for bool TSettings::chk_param<short>(const TSettings::TRange&, T1) const
    settings.o(i._ZNK9TSettings9chk_calibEs) refers to settings.o(t._ZNK9TSettings9chk_paramIsEEbRKNS_6TRangeET_) for bool TSettings::chk_param<short>(const TSettings::TRange&, T1) const
    settings.o(i._ZNK9TSettings9chk_u_parEs) refers to settings.o(t._ZNK9TSettings9chk_paramIsEEbRKNS_6TRangeET_) for bool TSettings::chk_param<short>(const TSettings::TRange&, T1) const
    settings.o(i.__sti___12_settings_cpp_Settings) refers to settings.o(i._ZN9TSettingsC1Ev) for TSettings::TSettings()
    settings.o(i.__sti___12_settings_cpp_Settings) refers to aeabi_atexit.o(.text) for __aeabi_atexit
    settings.o(i.__sti___12_settings_cpp_Settings) refers to settings.o(.bss) for Settings
    settings.o(i.__sti___12_settings_cpp_Settings) refers to settings.o(i._ZN9TSettingsD1Ev) for TSettings::~TSettings()
    settings.o(.ARM.exidx) refers to settings.o(i._ZN9TSettingsC1Ev) for i._ZN9TSettingsC1Ev
    settings.o(.ARM.exidx) refers to settings.o(i._ZN9TSettingsD1Ev) for i._ZN9TSettingsD1Ev
    settings.o(.ARM.exidx) refers to settings.o(i._ZN9TSettings7chk_devER10MySettings) for i._ZN9TSettings7chk_devER10MySettings
    settings.o(.ARM.exidx) refers to settings.o(i._ZNK9TSettings7chk_thrEs) for i._ZNK9TSettings7chk_thrEs
    settings.o(.ARM.exidx) refers to settings.o(i._ZNK9TSettings8chk_hystEs) for i._ZNK9TSettings8chk_hystEs
    settings.o(.ARM.exidx) refers to settings.o(i._ZNK9TSettings8chk_biasEs) for i._ZNK9TSettings8chk_biasEs
    settings.o(.ARM.exidx) refers to settings.o(i._ZNK9TSettings15chk_axis_rotateEs) for i._ZNK9TSettings15chk_axis_rotateEs
    settings.o(.ARM.exidx) refers to settings.o(i._ZNK9TSettings19chk_roll_bias_angleEs) for i._ZNK9TSettings19chk_roll_bias_angleEs
    settings.o(.ARM.exidx) refers to settings.o(i._ZNK9TSettings20chk_pitch_bias_angleEs) for i._ZNK9TSettings20chk_pitch_bias_angleEs
    settings.o(.ARM.exidx) refers to settings.o(i._ZNK9TSettings11chk_mb_addrEs) for i._ZNK9TSettings11chk_mb_addrEs
    settings.o(.ARM.exidx) refers to settings.o(i._ZNK9TSettings15chk_u_baud_rateEs) for i._ZNK9TSettings15chk_u_baud_rateEs
    settings.o(.ARM.exidx) refers to settings.o(i._ZNK9TSettings9chk_u_parEs) for i._ZNK9TSettings9chk_u_parEs
    settings.o(.ARM.exidx) refers to settings.o(i._ZNK9TSettings9chk_calibEs) for i._ZNK9TSettings9chk_calibEs
    settings.o(.ARM.exidx) refers to settings.o(i._ZNK9TSettings10chk_accessEs) for i._ZNK9TSettings10chk_accessEs
    settings.o(.ARM.exidx) refers to settings.o(i.__sti___12_settings_cpp_Settings) for i.__sti___12_settings_cpp_Settings
    settings.o(.init_array) refers to settings.o(i.__sti___12_settings_cpp_Settings) for __sti___12_settings_cpp_Settings
    settings.o(.init_array) refers to cpp_init.o(.text) for __cpp_initialize__aeabi_
    base_to_pc.o(i._Z10base_to_pcPv) refers to tasks.o(i.vTaskDelay) for vTaskDelay
    base_to_pc.o(i._Z10base_to_pcPv) refers to model.o(i._ZN6TModel12get_dev_typeEv) for TModel::get_dev_type()
    base_to_pc.o(i._Z10base_to_pcPv) refers to usart_driver_.o(i._ZN6TUsart14pin_clk_configEv) for TUsart::pin_clk_config()
    base_to_pc.o(i._Z10base_to_pcPv) refers to usart_driver_.o(i._ZN6TUsart7hw_initEh) for TUsart::hw_init(unsigned char)
    base_to_pc.o(i._Z10base_to_pcPv) refers to modbus_link.o(i._ZN11TModbusLink8init_dmaEv) for TModbusLink::init_dma()
    base_to_pc.o(i._Z10base_to_pcPv) refers to model.o(i._ZN6TModel11get_mb_addrEv) for TModel::get_mb_addr()
    base_to_pc.o(i._Z10base_to_pcPv) refers to modbus_link.o(i._ZN11TModbusLink8set_addrEh) for TModbusLink::set_addr(unsigned char)
    base_to_pc.o(i._Z10base_to_pcPv) refers to modbus_app.o(i._ZN10TModbusApp3fsmEv) for TModbusApp::fsm()
    base_to_pc.o(i._Z10base_to_pcPv) refers to dev_determ.o(.bss) for DevDeterm
    base_to_pc.o(i._Z10base_to_pcPv) refers to model.o(.bss) for Model
    base_to_pc.o(i._Z10base_to_pcPv) refers to base_to_pc.o(.bss) for BaseToPc
    base_to_pc.o(i._ZN36_INTERNAL_14_base_to_pc_cpp_BaseToPc11addr_determEv) refers to model.o(i._ZN6TModel11get_code_swEv) for TModel::get_code_sw()
    base_to_pc.o(i._ZN36_INTERNAL_14_base_to_pc_cpp_BaseToPc11addr_determEv) refers to model.o(i._ZN6TModel11get_mb_addrEv) for TModel::get_mb_addr()
    base_to_pc.o(i._ZN36_INTERNAL_14_base_to_pc_cpp_BaseToPc11addr_determEv) refers to modbus_link.o(i._ZN11TModbusLink8set_addrEh) for TModbusLink::set_addr(unsigned char)
    base_to_pc.o(i._ZN36_INTERNAL_14_base_to_pc_cpp_BaseToPc11addr_determEv) refers to model.o(.bss) for Model
    base_to_pc.o(i._ZN36_INTERNAL_14_base_to_pc_cpp_BaseToPc11addr_determEv) refers to base_to_pc.o(.bss) for BaseToPc
    base_to_pc.o(i.__sti___14_base_to_pc_cpp_BaseToPc) refers to modbus_app.o(i._ZN10TModbusAppC1ERK9TUsart_HWN11TModbusLink9TProcTypeEPN12TDevHandlers11TPduHandlerEPPvS9_) for TModbusApp::TModbusApp(const TUsart_HW&, TModbusLink::TProcType, TDevHandlers::TPduHandler*, void**, void**)
    base_to_pc.o(i.__sti___14_base_to_pc_cpp_BaseToPc) refers to aeabi_atexit.o(.text) for __aeabi_atexit
    base_to_pc.o(i.__sti___14_base_to_pc_cpp_BaseToPc) refers to main.o(.data) for SlaveCommErrSem
    base_to_pc.o(i.__sti___14_base_to_pc_cpp_BaseToPc) refers to dev_handlers.o(.data) for BaseToPcPduHandler
    base_to_pc.o(i.__sti___14_base_to_pc_cpp_BaseToPc) refers to hard_config.o(.data) for UsartExt_HW
    base_to_pc.o(i.__sti___14_base_to_pc_cpp_BaseToPc) refers to base_to_pc.o(.bss) for BaseToPc
    base_to_pc.o(i.__sti___14_base_to_pc_cpp_BaseToPc) refers to modbus_app.o(i._ZN10TModbusAppD1Ev) for TModbusApp::~TModbusApp()
    base_to_pc.o(.ARM.exidx) refers to base_to_pc.o(i._Z10base_to_pcPv) for i._Z10base_to_pcPv
    base_to_pc.o(.ARM.exidx) refers to base_to_pc.o(i._ZN36_INTERNAL_14_base_to_pc_cpp_BaseToPc11addr_determEv) for i._ZN36_INTERNAL_14_base_to_pc_cpp_BaseToPc11addr_determEv
    base_to_pc.o(.ARM.exidx) refers to base_to_pc.o(i.__sti___14_base_to_pc_cpp_BaseToPc) for i.__sti___14_base_to_pc_cpp_BaseToPc
    base_to_pc.o(.init_array) refers to base_to_pc.o(i.__sti___14_base_to_pc_cpp_BaseToPc) for __sti___14_base_to_pc_cpp_BaseToPc
    base_to_pc.o(.init_array) refers to cpp_init.o(.text) for __cpp_initialize__aeabi_
    base_to_sens.o(i._Z12base_to_sensPv) refers to model.o(i._ZN6TModel12get_dev_typeEv) for TModel::get_dev_type()
    base_to_sens.o(i._Z12base_to_sensPv) refers to tasks.o(i.vTaskDelay) for vTaskDelay
    base_to_sens.o(i._Z12base_to_sensPv) refers to usart_driver_.o(i._ZN6TUsart14pin_clk_configEv) for TUsart::pin_clk_config()
    base_to_sens.o(i._Z12base_to_sensPv) refers to modbus_link.o(i._ZN11TModbusLink8set_addrEh) for TModbusLink::set_addr(unsigned char)
    base_to_sens.o(i._Z12base_to_sensPv) refers to usart_driver_.o(i._ZN6TUsart8set_setsERKNS_5TSetsE) for TUsart::set_sets(const TUsart::TSets&)
    base_to_sens.o(i._Z12base_to_sensPv) refers to modbus_link.o(i._ZN11TModbusLink8init_dmaEv) for TModbusLink::init_dma()
    base_to_sens.o(i._Z12base_to_sensPv) refers to tasks.o(i.xTaskGetTickCount) for xTaskGetTickCount
    base_to_sens.o(i._Z12base_to_sensPv) refers to timers.o(i.xTimerGenericCommand) for xTimerGenericCommand
    base_to_sens.o(i._Z12base_to_sensPv) refers to memcpya.o(.text) for __aeabi_memcpy4
    base_to_sens.o(i._Z12base_to_sensPv) refers to queue.o(i.xQueueGenericReceive) for xQueueGenericReceive
    base_to_sens.o(i._Z12base_to_sensPv) refers to modbus_app.o(i._ZN10TModbusApp3fsmEv) for TModbusApp::fsm()
    base_to_sens.o(i._Z12base_to_sensPv) refers to model.o(.bss) for Model
    base_to_sens.o(i._Z12base_to_sensPv) refers to base_to_sens.o(.bss) for BaseToSens
    base_to_sens.o(i._Z12base_to_sensPv) refers to base_to_sens.o(.constdata) for .constdata
    base_to_sens.o(i._Z12base_to_sensPv) refers to main.o(.data) for PdTmr
    base_to_sens.o(i._ZN38_INTERNAL_16_base_to_sens_cpp_e027ba6814wr_axis_rotateEv) refers to modbus_link.o(i._ZN11TModbusLink8get_addrEv) for TModbusLink::get_addr()
    base_to_sens.o(i._ZN38_INTERNAL_16_base_to_sens_cpp_e027ba6814wr_axis_rotateEv) refers to modbus_link.o(i._ZN11TModbusLink5CRC16EPKht) for TModbusLink::CRC16(const unsigned char*, unsigned short)
    base_to_sens.o(i._ZN38_INTERNAL_16_base_to_sens_cpp_e027ba6814wr_axis_rotateEv) refers to modbus_link.o(i._ZN11TModbusLink14start_transmitEh) for TModbusLink::start_transmit(unsigned char)
    base_to_sens.o(i._ZN38_INTERNAL_16_base_to_sens_cpp_e027ba6814wr_axis_rotateEv) refers to base_to_sens.o(.bss) for BaseToSens
    base_to_sens.o(i._ZN38_INTERNAL_16_base_to_sens_cpp_e027ba6814wr_axis_rotateEv) refers to dev_handlers.o(i._ZN12TDevHandlers25my_write_sens_axis_rotateEj) for TDevHandlers::my_write_sens_axis_rotate(unsigned)
    base_to_sens.o(i._ZN38_INTERNAL_16_base_to_sens_cpp_e027ba687acc_rdyEv) refers to modbus_link.o(i._ZN11TModbusLink8get_addrEv) for TModbusLink::get_addr()
    base_to_sens.o(i._ZN38_INTERNAL_16_base_to_sens_cpp_e027ba687acc_rdyEv) refers to modbus_link.o(i._ZN11TModbusLink5CRC16EPKht) for TModbusLink::CRC16(const unsigned char*, unsigned short)
    base_to_sens.o(i._ZN38_INTERNAL_16_base_to_sens_cpp_e027ba687acc_rdyEv) refers to modbus_link.o(i._ZN11TModbusLink14start_transmitEh) for TModbusLink::start_transmit(unsigned char)
    base_to_sens.o(i._ZN38_INTERNAL_16_base_to_sens_cpp_e027ba687acc_rdyEv) refers to base_to_sens.o(.bss) for BaseToSens
    base_to_sens.o(i._ZN38_INTERNAL_16_base_to_sens_cpp_e027ba687acc_rdyEv) refers to dev_handlers.o(i._ZN12TDevHandlers23my_write_start_meas_cmdEj) for TDevHandlers::my_write_start_meas_cmd(unsigned)
    base_to_sens.o(i._ZN38_INTERNAL_16_base_to_sens_cpp_e027ba687pd_pollEv) refers to modbus_link.o(i._ZN11TModbusLink5CRC16EPKht) for TModbusLink::CRC16(const unsigned char*, unsigned short)
    base_to_sens.o(i._ZN38_INTERNAL_16_base_to_sens_cpp_e027ba687pd_pollEv) refers to modbus_link.o(i._ZN11TModbusLink14start_transmitEh) for TModbusLink::start_transmit(unsigned char)
    base_to_sens.o(i._ZN38_INTERNAL_16_base_to_sens_cpp_e027ba687pd_pollEv) refers to base_to_sens.o(.bss) for BaseToSens
    base_to_sens.o(i._ZN38_INTERNAL_16_base_to_sens_cpp_e027ba689read_measEv) refers to modbus_link.o(i._ZN11TModbusLink8get_addrEv) for TModbusLink::get_addr()
    base_to_sens.o(i._ZN38_INTERNAL_16_base_to_sens_cpp_e027ba689read_measEv) refers to modbus_link.o(i._ZN11TModbusLink5CRC16EPKht) for TModbusLink::CRC16(const unsigned char*, unsigned short)
    base_to_sens.o(i._ZN38_INTERNAL_16_base_to_sens_cpp_e027ba689read_measEv) refers to modbus_link.o(i._ZN11TModbusLink14start_transmitEh) for TModbusLink::start_transmit(unsigned char)
    base_to_sens.o(i._ZN38_INTERNAL_16_base_to_sens_cpp_e027ba689read_measEv) refers to base_to_sens.o(.bss) for BaseToSens
    base_to_sens.o(i.__sti___16_base_to_sens_cpp_e027ba68) refers to modbus_app.o(i._ZN10TModbusAppC1ERK9TUsart_HWN11TModbusLink9TProcTypeEPN12TDevHandlers11TPduHandlerEPPvS9_) for TModbusApp::TModbusApp(const TUsart_HW&, TModbusLink::TProcType, TDevHandlers::TPduHandler*, void**, void**)
    base_to_sens.o(i.__sti___16_base_to_sens_cpp_e027ba68) refers to aeabi_atexit.o(.text) for __aeabi_atexit
    base_to_sens.o(i.__sti___16_base_to_sens_cpp_e027ba68) refers to main.o(.data) for MasterCommErrSem
    base_to_sens.o(i.__sti___16_base_to_sens_cpp_e027ba68) refers to dev_handlers.o(.data) for BaseToSensPduHandler
    base_to_sens.o(i.__sti___16_base_to_sens_cpp_e027ba68) refers to hard_config.o(.data) for UsartInt_HW
    base_to_sens.o(i.__sti___16_base_to_sens_cpp_e027ba68) refers to base_to_sens.o(.bss) for BaseToSens
    base_to_sens.o(i.__sti___16_base_to_sens_cpp_e027ba68) refers to modbus_app.o(i._ZN10TModbusAppD1Ev) for TModbusApp::~TModbusApp()
    base_to_sens.o(.ARM.exidx) refers to base_to_sens.o(i._Z12base_to_sensPv) for i._Z12base_to_sensPv
    base_to_sens.o(.ARM.exidx) refers to base_to_sens.o(i._ZN38_INTERNAL_16_base_to_sens_cpp_e027ba6814wr_axis_rotateEv) for i._ZN38_INTERNAL_16_base_to_sens_cpp_e027ba6814wr_axis_rotateEv
    base_to_sens.o(.ARM.exidx) refers to base_to_sens.o(i._ZN38_INTERNAL_16_base_to_sens_cpp_e027ba687acc_rdyEv) for i._ZN38_INTERNAL_16_base_to_sens_cpp_e027ba687acc_rdyEv
    base_to_sens.o(.ARM.exidx) refers to base_to_sens.o(i._ZN38_INTERNAL_16_base_to_sens_cpp_e027ba689read_measEv) for i._ZN38_INTERNAL_16_base_to_sens_cpp_e027ba689read_measEv
    base_to_sens.o(.ARM.exidx) refers to base_to_sens.o(i._ZN38_INTERNAL_16_base_to_sens_cpp_e027ba687pd_pollEv) for i._ZN38_INTERNAL_16_base_to_sens_cpp_e027ba687pd_pollEv
    base_to_sens.o(.ARM.exidx) refers to base_to_sens.o(i._Z6pd_tmrPv) for i._Z6pd_tmrPv
    base_to_sens.o(.ARM.exidx) refers to base_to_sens.o(i.__sti___16_base_to_sens_cpp_e027ba68) for i.__sti___16_base_to_sens_cpp_e027ba68
    base_to_sens.o(.constdata) refers to main.o(.data) for DevSensStartSem
    base_to_sens.o(.constdata) refers to base_to_sens.o(i._ZN38_INTERNAL_16_base_to_sens_cpp_e027ba687acc_rdyEv) for [local to base_to_sens_cpp]::acc_rdy()
    base_to_sens.o(.constdata) refers to base_to_sens.o(i._ZN38_INTERNAL_16_base_to_sens_cpp_e027ba689read_measEv) for [local to base_to_sens_cpp]::read_meas()
    base_to_sens.o(.constdata) refers to base_to_sens.o(i._ZN38_INTERNAL_16_base_to_sens_cpp_e027ba687pd_pollEv) for [local to base_to_sens_cpp]::pd_poll()
    base_to_sens.o(.constdata) refers to base_to_sens.o(i._ZN38_INTERNAL_16_base_to_sens_cpp_e027ba6814wr_axis_rotateEv) for [local to base_to_sens_cpp]::wr_axis_rotate()
    base_to_sens.o(.init_array) refers to base_to_sens.o(i.__sti___16_base_to_sens_cpp_e027ba68) for __sti___16_base_to_sens_cpp_e027ba68
    base_to_sens.o(.init_array) refers to cpp_init.o(.text) for __cpp_initialize__aeabi_
    dev_ctrl.o(i._Z8dev_ctrlPv) refers to model.o(i._ZN6TModel12get_dev_typeEv) for TModel::get_dev_type()
    dev_ctrl.o(i._Z8dev_ctrlPv) refers to dev_ctrl.o(i._ZN33_INTERNAL_12_dev_ctrl_cpp_DevCtrl13factory_calibEN9TSettings8TDevTypeE) for [local to dev_ctrl_cpp]::factory_calib(TSettings::TDevType)
    dev_ctrl.o(i._Z8dev_ctrlPv) refers to dev_ctrl.o(.constdata) for .constdata
    dev_ctrl.o(i._Z8dev_ctrlPv) refers to model.o(.bss) for Model
    dev_ctrl.o(i._ZN33_INTERNAL_12_dev_ctrl_cpp_DevCtrl10user_calibEs) refers to queue.o(i.xQueueGenericReceive) for xQueueGenericReceive
    dev_ctrl.o(i._ZN33_INTERNAL_12_dev_ctrl_cpp_DevCtrl10user_calibEs) refers to model.o(i._ZN6TModel8set_biasEa) for TModel::set_bias(signed char)
    dev_ctrl.o(i._ZN33_INTERNAL_12_dev_ctrl_cpp_DevCtrl10user_calibEs) refers to dev_ctrl.o(i._ZN33_INTERNAL_12_dev_ctrl_cpp_DevCtrl11cnt_averageEPsS0_h) for [local to dev_ctrl_cpp]::cnt_average(short*, short*, unsigned char)
    dev_ctrl.o(i._ZN33_INTERNAL_12_dev_ctrl_cpp_DevCtrl10user_calibEs) refers to model.o(i._ZN6TModel17set_calib_processEN9TSettings13TCalibProcessE) for TModel::set_calib_process(TSettings::TCalibProcess)
    dev_ctrl.o(i._ZN33_INTERNAL_12_dev_ctrl_cpp_DevCtrl10user_calibEs) refers to dev_ctrl.o(.data) for [local to dev_ctrl_cpp]::user_calib(short)::CalibProcess
    dev_ctrl.o(i._ZN33_INTERNAL_12_dev_ctrl_cpp_DevCtrl10user_calibEs) refers to main.o(.data) for User_Zeroing_Out_Sem
    dev_ctrl.o(i._ZN33_INTERNAL_12_dev_ctrl_cpp_DevCtrl10user_calibEs) refers to angles_cnt.o(.data) for Angles
    dev_ctrl.o(i._ZN33_INTERNAL_12_dev_ctrl_cpp_DevCtrl10user_calibEs) refers to model.o(.bss) for Model
    dev_ctrl.o(i._ZN33_INTERNAL_12_dev_ctrl_cpp_DevCtrl10user_calibEs) refers to dev_ctrl.o(.bss) for [local to dev_ctrl_cpp]::user_calib(short)::OpenAngles
    dev_ctrl.o(i._ZN33_INTERNAL_12_dev_ctrl_cpp_DevCtrl13factory_calibEN9TSettings8TDevTypeE) refers to model.o(i._ZN6TModel20get_accel_calib_signEv) for TModel::get_accel_calib_sign()
    dev_ctrl.o(i._ZN33_INTERNAL_12_dev_ctrl_cpp_DevCtrl13factory_calibEN9TSettings8TDevTypeE) refers to queue.o(i.xQueueGenericReceive) for xQueueGenericReceive
    dev_ctrl.o(i._ZN33_INTERNAL_12_dev_ctrl_cpp_DevCtrl13factory_calibEN9TSettings8TDevTypeE) refers to dev_ctrl.o(i._ZN33_INTERNAL_12_dev_ctrl_cpp_DevCtrl21process_factory_calibEN9TSettings8TDevTypeE) for [local to dev_ctrl_cpp]::process_factory_calib(TSettings::TDevType)
    dev_ctrl.o(i._ZN33_INTERNAL_12_dev_ctrl_cpp_DevCtrl13factory_calibEN9TSettings8TDevTypeE) refers to model.o(.bss) for Model
    dev_ctrl.o(i._ZN33_INTERNAL_12_dev_ctrl_cpp_DevCtrl13factory_calibEN9TSettings8TDevTypeE) refers to main.o(.data) for Factory_Zeroing_Out_Sem
    dev_ctrl.o(i._ZN33_INTERNAL_12_dev_ctrl_cpp_DevCtrl14sens_dev_stageEPKPvj) refers to queue.o(i.xQueueGenericReceive) for xQueueGenericReceive
    dev_ctrl.o(i._ZN33_INTERNAL_12_dev_ctrl_cpp_DevCtrl14sens_dev_stageEPKPvj) refers to model.o(i._ZN6TModel11set_connectEN9TSettings8TConnectE) for TModel::set_connect(TSettings::TConnect)
    dev_ctrl.o(i._ZN33_INTERNAL_12_dev_ctrl_cpp_DevCtrl14sens_dev_stageEPKPvj) refers to dev_ctrl.o(.data) for DevCtrl
    dev_ctrl.o(i._ZN33_INTERNAL_12_dev_ctrl_cpp_DevCtrl14sens_dev_stageEPKPvj) refers to model.o(.bss) for Model
    dev_ctrl.o(i._ZN33_INTERNAL_12_dev_ctrl_cpp_DevCtrl15open_angle_ctrlEPh) refers to model.o(i._ZN6TModel15get_axis_rotateEv) for TModel::get_axis_rotate()
    dev_ctrl.o(i._ZN33_INTERNAL_12_dev_ctrl_cpp_DevCtrl15open_angle_ctrlEPh) refers to angles_cnt.o(i._ZN7TAngles12cnt_my_angleEN9TSettings8TDevTypeENS0_11TAxisRotateEb) for TAngles::cnt_my_angle(TSettings::TDevType, TSettings::TAxisRotate, bool)
    dev_ctrl.o(i._ZN33_INTERNAL_12_dev_ctrl_cpp_DevCtrl15open_angle_ctrlEPh) refers to angles_cnt.o(i._ZN7TAngles14cnt_open_angleEv) for TAngles::cnt_open_angle()
    dev_ctrl.o(i._ZN33_INTERNAL_12_dev_ctrl_cpp_DevCtrl15open_angle_ctrlEPh) refers to model.o(i._ZN6TModel14get_open_angleEv) for TModel::get_open_angle()
    dev_ctrl.o(i._ZN33_INTERNAL_12_dev_ctrl_cpp_DevCtrl15open_angle_ctrlEPh) refers to roundf.o(i.__hardfp_roundf) for __hardfp_roundf
    dev_ctrl.o(i._ZN33_INTERNAL_12_dev_ctrl_cpp_DevCtrl15open_angle_ctrlEPh) refers to dev_ctrl.o(i._ZN33_INTERNAL_12_dev_ctrl_cpp_DevCtrl10user_calibEs) for [local to dev_ctrl_cpp]::user_calib(short)
    dev_ctrl.o(i._ZN33_INTERNAL_12_dev_ctrl_cpp_DevCtrl15open_angle_ctrlEPh) refers to model.o(i._ZN6TModel14get_hc_pos_errEv) for TModel::get_hc_pos_err()
    dev_ctrl.o(i._ZN33_INTERNAL_12_dev_ctrl_cpp_DevCtrl15open_angle_ctrlEPh) refers to model.o(i._ZN6TModel14set_hc_pos_errEN9TSettings7TPosErrE) for TModel::set_hc_pos_err(TSettings::TPosErr)
    dev_ctrl.o(i._ZN33_INTERNAL_12_dev_ctrl_cpp_DevCtrl15open_angle_ctrlEPh) refers to model.o(i._ZN6TModel7get_thrEv) for TModel::get_thr()
    dev_ctrl.o(i._ZN33_INTERNAL_12_dev_ctrl_cpp_DevCtrl15open_angle_ctrlEPh) refers to model.o(i._ZN6TModel8get_hystEv) for TModel::get_hyst()
    dev_ctrl.o(i._ZN33_INTERNAL_12_dev_ctrl_cpp_DevCtrl15open_angle_ctrlEPh) refers to model.o(i._ZN6TModel12get_hc_stateEv) for TModel::get_hc_state()
    dev_ctrl.o(i._ZN33_INTERNAL_12_dev_ctrl_cpp_DevCtrl15open_angle_ctrlEPh) refers to model.o(i._ZN6TModel12set_hc_stateEN9TSettings3THCE) for TModel::set_hc_state(TSettings::THC)
    dev_ctrl.o(i._ZN33_INTERNAL_12_dev_ctrl_cpp_DevCtrl15open_angle_ctrlEPh) refers to memcpya.o(.text) for __aeabi_memcpy4
    dev_ctrl.o(i._ZN33_INTERNAL_12_dev_ctrl_cpp_DevCtrl15open_angle_ctrlEPh) refers to model.o(i._ZN6TModel12get_d_o_setsEv) for TModel::get_d_o_sets()
    dev_ctrl.o(i._ZN33_INTERNAL_12_dev_ctrl_cpp_DevCtrl15open_angle_ctrlEPh) refers to model.o(.bss) for Model
    dev_ctrl.o(i._ZN33_INTERNAL_12_dev_ctrl_cpp_DevCtrl15open_angle_ctrlEPh) refers to angles_cnt.o(.data) for Angles
    dev_ctrl.o(i._ZN33_INTERNAL_12_dev_ctrl_cpp_DevCtrl15open_angle_ctrlEPh) refers to dev_ctrl.o(.constdata) for .constdata
    dev_ctrl.o(i._ZN33_INTERNAL_12_dev_ctrl_cpp_DevCtrl15open_angle_ctrlEPh) refers to discrete_out.o(.data) for Do
    dev_ctrl.o(i._ZN33_INTERNAL_12_dev_ctrl_cpp_DevCtrl21process_factory_calibEN9TSettings8TDevTypeE) refers to queue.o(i.xQueueGenericSend) for xQueueGenericSend
    dev_ctrl.o(i._ZN33_INTERNAL_12_dev_ctrl_cpp_DevCtrl21process_factory_calibEN9TSettings8TDevTypeE) refers to queue.o(i.xQueueGenericReceive) for xQueueGenericReceive
    dev_ctrl.o(i._ZN33_INTERNAL_12_dev_ctrl_cpp_DevCtrl21process_factory_calibEN9TSettings8TDevTypeE) refers to model.o(i._ZN6TModel13set_base_memsEN9TSettings10TMainStateE) for TModel::set_base_mems(TSettings::TMainState)
    dev_ctrl.o(i._ZN33_INTERNAL_12_dev_ctrl_cpp_DevCtrl21process_factory_calibEN9TSettings8TDevTypeE) refers to model.o(i._ZN6TModel17set_calib_processEN9TSettings13TCalibProcessE) for TModel::set_calib_process(TSettings::TCalibProcess)
    dev_ctrl.o(i._ZN33_INTERNAL_12_dev_ctrl_cpp_DevCtrl21process_factory_calibEN9TSettings8TDevTypeE) refers to angles_cnt.o(i._ZN7TAngles12cnt_my_angleEN9TSettings8TDevTypeENS0_11TAxisRotateEb) for TAngles::cnt_my_angle(TSettings::TDevType, TSettings::TAxisRotate, bool)
    dev_ctrl.o(i._ZN33_INTERNAL_12_dev_ctrl_cpp_DevCtrl21process_factory_calibEN9TSettings8TDevTypeE) refers to model.o(i._ZN6TModel12get_my_angleEv) for TModel::get_my_angle()
    dev_ctrl.o(i._ZN33_INTERNAL_12_dev_ctrl_cpp_DevCtrl21process_factory_calibEN9TSettings8TDevTypeE) refers to dev_ctrl.o(i._ZN33_INTERNAL_12_dev_ctrl_cpp_DevCtrl11cnt_averageEPsS0_h) for [local to dev_ctrl_cpp]::cnt_average(short*, short*, unsigned char)
    dev_ctrl.o(i._ZN33_INTERNAL_12_dev_ctrl_cpp_DevCtrl21process_factory_calibEN9TSettings8TDevTypeE) refers to model.o(i._ZN6TModel19set_roll_bias_angleEa) for TModel::set_roll_bias_angle(signed char)
    dev_ctrl.o(i._ZN33_INTERNAL_12_dev_ctrl_cpp_DevCtrl21process_factory_calibEN9TSettings8TDevTypeE) refers to model.o(i._ZN6TModel20set_pitch_bias_angleEa) for TModel::set_pitch_bias_angle(signed char)
    dev_ctrl.o(i._ZN33_INTERNAL_12_dev_ctrl_cpp_DevCtrl21process_factory_calibEN9TSettings8TDevTypeE) refers to model.o(i._ZN6TModel20set_accel_calib_signERKN9TSettings11TIsAccCalibE) for TModel::set_accel_calib_sign(const TSettings::TIsAccCalib&)
    dev_ctrl.o(i._ZN33_INTERNAL_12_dev_ctrl_cpp_DevCtrl21process_factory_calibEN9TSettings8TDevTypeE) refers to dev_ctrl.o(.data) for [local to dev_ctrl_cpp]::process_factory_calib(TSettings::TDevType)::SampleCtr
    dev_ctrl.o(i._ZN33_INTERNAL_12_dev_ctrl_cpp_DevCtrl21process_factory_calibEN9TSettings8TDevTypeE) refers to main.o(.data) for DevMemsStartSem
    dev_ctrl.o(i._ZN33_INTERNAL_12_dev_ctrl_cpp_DevCtrl21process_factory_calibEN9TSettings8TDevTypeE) refers to model.o(.bss) for Model
    dev_ctrl.o(i._ZN33_INTERNAL_12_dev_ctrl_cpp_DevCtrl21process_factory_calibEN9TSettings8TDevTypeE) refers to angles_cnt.o(.data) for Angles
    dev_ctrl.o(i._ZN33_INTERNAL_12_dev_ctrl_cpp_DevCtrl21process_factory_calibEN9TSettings8TDevTypeE) refers to dev_ctrl.o(.bss) for [local to dev_ctrl_cpp]::process_factory_calib(TSettings::TDevType)::RollAngles
    dev_ctrl.o(i._ZN33_INTERNAL_12_dev_ctrl_cpp_DevCtrl7hc_ctrlEv) refers to model.o(i._ZN6TModel18get_start_meas_cmdEv) for TModel::get_start_meas_cmd()
    dev_ctrl.o(i._ZN33_INTERNAL_12_dev_ctrl_cpp_DevCtrl7hc_ctrlEv) refers to model.o(i._ZN6TModel13get_interconnEv) for TModel::get_interconn()
    dev_ctrl.o(i._ZN33_INTERNAL_12_dev_ctrl_cpp_DevCtrl7hc_ctrlEv) refers to model.o(i._ZN6TModel18set_start_meas_cmdEN9TSettings5TMeasE) for TModel::set_start_meas_cmd(TSettings::TMeas)
    dev_ctrl.o(i._ZN33_INTERNAL_12_dev_ctrl_cpp_DevCtrl7hc_ctrlEv) refers to queue.o(i.xQueueGenericSend) for xQueueGenericSend
    dev_ctrl.o(i._ZN33_INTERNAL_12_dev_ctrl_cpp_DevCtrl7hc_ctrlEv) refers to queue.o(i.xQueueGenericReceive) for xQueueGenericReceive
    dev_ctrl.o(i._ZN33_INTERNAL_12_dev_ctrl_cpp_DevCtrl7hc_ctrlEv) refers to model.o(i._ZN6TModel11set_hc_memsEN9TSettings10TMainStateE) for TModel::set_hc_mems(TSettings::TMainState)
    dev_ctrl.o(i._ZN33_INTERNAL_12_dev_ctrl_cpp_DevCtrl7hc_ctrlEv) refers to model.o(i._ZN6TModel21set_sample_valid_signEN9TSettings10TValidSignE) for TModel::set_sample_valid_sign(TSettings::TValidSign)
    dev_ctrl.o(i._ZN33_INTERNAL_12_dev_ctrl_cpp_DevCtrl7hc_ctrlEv) refers to model.o(i._ZN6TModel21get_sample_valid_signEv) for TModel::get_sample_valid_sign()
    dev_ctrl.o(i._ZN33_INTERNAL_12_dev_ctrl_cpp_DevCtrl7hc_ctrlEv) refers to model.o(i._ZN6TModel15get_axis_rotateEv) for TModel::get_axis_rotate()
    dev_ctrl.o(i._ZN33_INTERNAL_12_dev_ctrl_cpp_DevCtrl7hc_ctrlEv) refers to angles_cnt.o(i._ZN7TAngles12cnt_my_angleEN9TSettings8TDevTypeENS0_11TAxisRotateEb) for TAngles::cnt_my_angle(TSettings::TDevType, TSettings::TAxisRotate, bool)
    dev_ctrl.o(i._ZN33_INTERNAL_12_dev_ctrl_cpp_DevCtrl7hc_ctrlEv) refers to model.o(i._ZN6TModel12get_my_angleEv) for TModel::get_my_angle()
    dev_ctrl.o(i._ZN33_INTERNAL_12_dev_ctrl_cpp_DevCtrl7hc_ctrlEv) refers to model.o(i._ZN6TModel14get_hc_pos_errEv) for TModel::get_hc_pos_err()
    dev_ctrl.o(i._ZN33_INTERNAL_12_dev_ctrl_cpp_DevCtrl7hc_ctrlEv) refers to model.o(i._ZN6TModel14set_hc_pos_errEN9TSettings7TPosErrE) for TModel::set_hc_pos_err(TSettings::TPosErr)
    dev_ctrl.o(i._ZN33_INTERNAL_12_dev_ctrl_cpp_DevCtrl7hc_ctrlEv) refers to model.o(i._ZN6TModel12get_hc_stateEv) for TModel::get_hc_state()
    dev_ctrl.o(i._ZN33_INTERNAL_12_dev_ctrl_cpp_DevCtrl7hc_ctrlEv) refers to model.o(i._ZN6TModel12set_hc_stateEN9TSettings3THCE) for TModel::set_hc_state(TSettings::THC)
    dev_ctrl.o(i._ZN33_INTERNAL_12_dev_ctrl_cpp_DevCtrl7hc_ctrlEv) refers to discrete_out.o(i._ZN12TDiscreteOut4openEv) for TDiscreteOut::open()
    dev_ctrl.o(i._ZN33_INTERNAL_12_dev_ctrl_cpp_DevCtrl7hc_ctrlEv) refers to memcpya.o(.text) for __aeabi_memcpy4
    dev_ctrl.o(i._ZN33_INTERNAL_12_dev_ctrl_cpp_DevCtrl7hc_ctrlEv) refers to model.o(i._ZN6TModel12get_d_o_setsEv) for TModel::get_d_o_sets()
    dev_ctrl.o(i._ZN33_INTERNAL_12_dev_ctrl_cpp_DevCtrl7hc_ctrlEv) refers to tasks.o(i.vTaskDelay) for vTaskDelay
    dev_ctrl.o(i._ZN33_INTERNAL_12_dev_ctrl_cpp_DevCtrl7hc_ctrlEv) refers to model.o(.bss) for Model
    dev_ctrl.o(i._ZN33_INTERNAL_12_dev_ctrl_cpp_DevCtrl7hc_ctrlEv) refers to main.o(.data) for DevMemsStartSem
    dev_ctrl.o(i._ZN33_INTERNAL_12_dev_ctrl_cpp_DevCtrl7hc_ctrlEv) refers to angles_cnt.o(.data) for Angles
    dev_ctrl.o(i._ZN33_INTERNAL_12_dev_ctrl_cpp_DevCtrl7hc_ctrlEv) refers to discrete_out.o(.data) for Do
    dev_ctrl.o(i._ZN33_INTERNAL_12_dev_ctrl_cpp_DevCtrl7hc_ctrlEv) refers to dev_ctrl.o(.constdata) for .constdata
    dev_ctrl.o(i._ZN33_INTERNAL_12_dev_ctrl_cpp_DevCtrl9base_ctrlEv) refers to queue.o(i.xQueueGenericReceive) for xQueueGenericReceive
    dev_ctrl.o(i._ZN33_INTERNAL_12_dev_ctrl_cpp_DevCtrl9base_ctrlEv) refers to model.o(i._ZN6TModel13set_base_memsEN9TSettings10TMainStateE) for TModel::set_base_mems(TSettings::TMainState)
    dev_ctrl.o(i._ZN33_INTERNAL_12_dev_ctrl_cpp_DevCtrl9base_ctrlEv) refers to model.o(i._ZN6TModel18set_start_meas_cmdEN9TSettings5TMeasE) for TModel::set_start_meas_cmd(TSettings::TMeas)
    dev_ctrl.o(i._ZN33_INTERNAL_12_dev_ctrl_cpp_DevCtrl9base_ctrlEv) refers to queue.o(i.xQueueGenericSend) for xQueueGenericSend
    dev_ctrl.o(i._ZN33_INTERNAL_12_dev_ctrl_cpp_DevCtrl9base_ctrlEv) refers to dev_ctrl.o(i._ZN33_INTERNAL_12_dev_ctrl_cpp_DevCtrl14sens_dev_stageEPKPvj) for [local to dev_ctrl_cpp]::sens_dev_stage(void*const *, unsigned)
    dev_ctrl.o(i._ZN33_INTERNAL_12_dev_ctrl_cpp_DevCtrl9base_ctrlEv) refers to model.o(i._ZN6TModel21get_sample_valid_signEv) for TModel::get_sample_valid_sign()
    dev_ctrl.o(i._ZN33_INTERNAL_12_dev_ctrl_cpp_DevCtrl9base_ctrlEv) refers to model.o(i._ZN6TModel26get_sens_sample_valid_signEv) for TModel::get_sens_sample_valid_sign()
    dev_ctrl.o(i._ZN33_INTERNAL_12_dev_ctrl_cpp_DevCtrl9base_ctrlEv) refers to dev_ctrl.o(i._ZN33_INTERNAL_12_dev_ctrl_cpp_DevCtrl15open_angle_ctrlEPh) for [local to dev_ctrl_cpp]::open_angle_ctrl(unsigned char*)
    dev_ctrl.o(i._ZN33_INTERNAL_12_dev_ctrl_cpp_DevCtrl9base_ctrlEv) refers to main.o(.data) for MemsDevRdySem
    dev_ctrl.o(i._ZN33_INTERNAL_12_dev_ctrl_cpp_DevCtrl9base_ctrlEv) refers to model.o(.bss) for Model
    dev_ctrl.o(i._ZN33_INTERNAL_12_dev_ctrl_cpp_DevCtrl9base_ctrlEv) refers to dev_ctrl.o(.data) for [local to dev_ctrl_cpp]::base_ctrl()::GoodCtr
    dev_ctrl.o(i._ZN8TDevCtrlC1Ev) refers to dev_ctrl.o(.constdata) for <Data1>
    dev_ctrl.o(i.__sti___12_dev_ctrl_cpp_DevCtrl) refers to dev_ctrl.o(i._ZN8TDevCtrlC1Ev) for TDevCtrl::TDevCtrl()
    dev_ctrl.o(i.__sti___12_dev_ctrl_cpp_DevCtrl) refers to aeabi_atexit.o(.text) for __aeabi_atexit
    dev_ctrl.o(i.__sti___12_dev_ctrl_cpp_DevCtrl) refers to dev_ctrl.o(.data) for DevCtrl
    dev_ctrl.o(i.__sti___12_dev_ctrl_cpp_DevCtrl) refers to dev_ctrl.o(i._ZN8TDevCtrlD1Ev) for TDevCtrl::~TDevCtrl()
    dev_ctrl.o(.ARM.exidx) refers to dev_ctrl.o(i._ZN33_INTERNAL_12_dev_ctrl_cpp_DevCtrl11cnt_averageEPsS0_h) for i._ZN33_INTERNAL_12_dev_ctrl_cpp_DevCtrl11cnt_averageEPsS0_h
    dev_ctrl.o(.ARM.exidx) refers to dev_ctrl.o(i._ZN33_INTERNAL_12_dev_ctrl_cpp_DevCtrl21process_factory_calibEN9TSettings8TDevTypeE) for i._ZN33_INTERNAL_12_dev_ctrl_cpp_DevCtrl21process_factory_calibEN9TSettings8TDevTypeE
    dev_ctrl.o(.ARM.exidx) refers to dev_ctrl.o(i._ZN33_INTERNAL_12_dev_ctrl_cpp_DevCtrl13factory_calibEN9TSettings8TDevTypeE) for i._ZN33_INTERNAL_12_dev_ctrl_cpp_DevCtrl13factory_calibEN9TSettings8TDevTypeE
    dev_ctrl.o(.ARM.exidx) refers to dev_ctrl.o(i._Z8dev_ctrlPv) for i._Z8dev_ctrlPv
    dev_ctrl.o(.ARM.exidx) refers to dev_ctrl.o(i._ZN33_INTERNAL_12_dev_ctrl_cpp_DevCtrl10user_calibEs) for i._ZN33_INTERNAL_12_dev_ctrl_cpp_DevCtrl10user_calibEs
    dev_ctrl.o(.ARM.exidx) refers to dev_ctrl.o(i._ZN33_INTERNAL_12_dev_ctrl_cpp_DevCtrl15open_angle_ctrlEPh) for i._ZN33_INTERNAL_12_dev_ctrl_cpp_DevCtrl15open_angle_ctrlEPh
    dev_ctrl.o(.ARM.exidx) refers to dev_ctrl.o(i._ZN33_INTERNAL_12_dev_ctrl_cpp_DevCtrl14sens_dev_stageEPKPvj) for i._ZN33_INTERNAL_12_dev_ctrl_cpp_DevCtrl14sens_dev_stageEPKPvj
    dev_ctrl.o(.ARM.exidx) refers to dev_ctrl.o(i._ZN33_INTERNAL_12_dev_ctrl_cpp_DevCtrl9base_ctrlEv) for i._ZN33_INTERNAL_12_dev_ctrl_cpp_DevCtrl9base_ctrlEv
    dev_ctrl.o(.ARM.exidx) refers to dev_ctrl.o(i._ZN33_INTERNAL_12_dev_ctrl_cpp_DevCtrl7hc_ctrlEv) for i._ZN33_INTERNAL_12_dev_ctrl_cpp_DevCtrl7hc_ctrlEv
    dev_ctrl.o(.ARM.exidx) refers to dev_ctrl.o(i._ZN8TDevCtrlC1Ev) for i._ZN8TDevCtrlC1Ev
    dev_ctrl.o(.ARM.exidx) refers to dev_ctrl.o(i._ZN8TDevCtrlD1Ev) for i._ZN8TDevCtrlD1Ev
    dev_ctrl.o(.ARM.exidx) refers to dev_ctrl.o(i.__sti___12_dev_ctrl_cpp_DevCtrl) for i.__sti___12_dev_ctrl_cpp_DevCtrl
    dev_ctrl.o(.constdata) refers to dev_ctrl.o(i._ZN33_INTERNAL_12_dev_ctrl_cpp_DevCtrl9base_ctrlEv) for [local to dev_ctrl_cpp]::base_ctrl()
    dev_ctrl.o(.constdata) refers to dev_ctrl.o(i._ZN33_INTERNAL_12_dev_ctrl_cpp_DevCtrl7hc_ctrlEv) for [local to dev_ctrl_cpp]::hc_ctrl()
    dev_ctrl.o(.constdata) refers to discrete_out.o(i._ZN12TDiscreteOut4openEv) for TDiscreteOut::open()
    dev_ctrl.o(.constdata) refers to discrete_out.o(i._ZN12TDiscreteOut6closedEv) for TDiscreteOut::closed()
    dev_ctrl.o(.init_array) refers to dev_ctrl.o(i.__sti___12_dev_ctrl_cpp_DevCtrl) for __sti___12_dev_ctrl_cpp_DevCtrl
    dev_ctrl.o(.init_array) refers to cpp_init.o(.text) for __cpp_initialize__aeabi_
    sens_to_master.o(i._Z14sens_to_masterPv) refers to tasks.o(i.vTaskDelay) for vTaskDelay
    sens_to_master.o(i._Z14sens_to_masterPv) refers to model.o(i._ZN6TModel12get_dev_typeEv) for TModel::get_dev_type()
    sens_to_master.o(i._Z14sens_to_masterPv) refers to usart_driver_.o(i._ZN6TUsart14pin_clk_configEv) for TUsart::pin_clk_config()
    sens_to_master.o(i._Z14sens_to_masterPv) refers to usart_driver_.o(i._ZN6TUsart7hw_initEh) for TUsart::hw_init(unsigned char)
    sens_to_master.o(i._Z14sens_to_masterPv) refers to modbus_link.o(i._ZN11TModbusLink8init_dmaEv) for TModbusLink::init_dma()
    sens_to_master.o(i._Z14sens_to_masterPv) refers to sens_to_master.o(i._ZN40_INTERNAL_18_sens_to_master_cpp_2046794911addr_determEv) for [local to sens_to_master_cpp]::addr_determ()
    sens_to_master.o(i._Z14sens_to_masterPv) refers to modbus_app.o(i._ZN10TModbusApp3fsmEv) for TModbusApp::fsm()
    sens_to_master.o(i._Z14sens_to_masterPv) refers to dev_determ.o(.bss) for DevDeterm
    sens_to_master.o(i._Z14sens_to_masterPv) refers to model.o(.bss) for Model
    sens_to_master.o(i._Z14sens_to_masterPv) refers to sens_to_master.o(.bss) for SensToMaster
    sens_to_master.o(i._ZN40_INTERNAL_18_sens_to_master_cpp_2046794911addr_determEv) refers to model.o(i._ZN6TModel13get_interconnEv) for TModel::get_interconn()
    sens_to_master.o(i._ZN40_INTERNAL_18_sens_to_master_cpp_2046794911addr_determEv) refers to modbus_link.o(i._ZN11TModbusLink8set_addrEh) for TModbusLink::set_addr(unsigned char)
    sens_to_master.o(i._ZN40_INTERNAL_18_sens_to_master_cpp_2046794911addr_determEv) refers to usart_driver_.o(i._ZN6TUsart8set_setsERKNS_5TSetsE) for TUsart::set_sets(const TUsart::TSets&)
    sens_to_master.o(i._ZN40_INTERNAL_18_sens_to_master_cpp_2046794911addr_determEv) refers to model.o(i._ZN6TModel11get_mb_addrEv) for TModel::get_mb_addr()
    sens_to_master.o(i._ZN40_INTERNAL_18_sens_to_master_cpp_2046794911addr_determEv) refers to model.o(i._ZN6TModel26get_u_baud_rate_bit_to_secEv) for TModel::get_u_baud_rate_bit_to_sec()
    sens_to_master.o(i._ZN40_INTERNAL_18_sens_to_master_cpp_2046794911addr_determEv) refers to model.o(.bss) for Model
    sens_to_master.o(i._ZN40_INTERNAL_18_sens_to_master_cpp_2046794911addr_determEv) refers to dev_handlers.o(.data) for SensToBasePduHandler
    sens_to_master.o(i._ZN40_INTERNAL_18_sens_to_master_cpp_2046794911addr_determEv) refers to sens_to_master.o(.bss) for SensToMaster
    sens_to_master.o(i._ZN40_INTERNAL_18_sens_to_master_cpp_2046794911addr_determEv) refers to sens_to_master.o(.constdata) for .constdata
    sens_to_master.o(i.__sti___18_sens_to_master_cpp_20467949) refers to modbus_app.o(i._ZN10TModbusAppC1ERK9TUsart_HWN11TModbusLink9TProcTypeEPN12TDevHandlers11TPduHandlerEPPvS9_) for TModbusApp::TModbusApp(const TUsart_HW&, TModbusLink::TProcType, TDevHandlers::TPduHandler*, void**, void**)
    sens_to_master.o(i.__sti___18_sens_to_master_cpp_20467949) refers to aeabi_atexit.o(.text) for __aeabi_atexit
    sens_to_master.o(i.__sti___18_sens_to_master_cpp_20467949) refers to main.o(.data) for SlaveCommErrSem
    sens_to_master.o(i.__sti___18_sens_to_master_cpp_20467949) refers to dev_handlers.o(.data) for SensToPcPduHandler
    sens_to_master.o(i.__sti___18_sens_to_master_cpp_20467949) refers to hard_config.o(.data) for UsartExt_HW
    sens_to_master.o(i.__sti___18_sens_to_master_cpp_20467949) refers to sens_to_master.o(.bss) for SensToMaster
    sens_to_master.o(i.__sti___18_sens_to_master_cpp_20467949) refers to modbus_app.o(i._ZN10TModbusAppD1Ev) for TModbusApp::~TModbusApp()
    sens_to_master.o(.ARM.exidx) refers to sens_to_master.o(i._ZN40_INTERNAL_18_sens_to_master_cpp_2046794911addr_determEv) for i._ZN40_INTERNAL_18_sens_to_master_cpp_2046794911addr_determEv
    sens_to_master.o(.ARM.exidx) refers to sens_to_master.o(i._Z14sens_to_masterPv) for i._Z14sens_to_masterPv
    sens_to_master.o(.ARM.exidx) refers to sens_to_master.o(i.__sti___18_sens_to_master_cpp_20467949) for i.__sti___18_sens_to_master_cpp_20467949
    sens_to_master.o(.init_array) refers to sens_to_master.o(i.__sti___18_sens_to_master_cpp_20467949) for __sti___18_sens_to_master_cpp_20467949
    sens_to_master.o(.init_array) refers to cpp_init.o(.text) for __cpp_initialize__aeabi_
    logger_ctrl.o(i._Z11logger_ctrlPv) refers to model.o(i._ZN6TModel12get_dev_typeEv) for TModel::get_dev_type()
    logger_ctrl.o(i._Z11logger_ctrlPv) refers to tasks.o(i.vTaskDelay) for vTaskDelay
    logger_ctrl.o(i._Z11logger_ctrlPv) refers to model.o(i._ZN6TModel12set_led_modeEN9TSettings8TLedModeE) for TModel::set_led_mode(TSettings::TLedMode)
    logger_ctrl.o(i._Z11logger_ctrlPv) refers to model.o(i._ZN6TModel12get_btn_modeEv) for TModel::get_btn_mode()
    logger_ctrl.o(i._Z11logger_ctrlPv) refers to model.o(i._ZN6TModel12set_btn_modeEN9TSettings6TPressE) for TModel::set_btn_mode(TSettings::TPress)
    logger_ctrl.o(i._Z11logger_ctrlPv) refers to queue.o(i.xQueueGenericReceive) for xQueueGenericReceive
    logger_ctrl.o(i._Z11logger_ctrlPv) refers to logger_ctrl.o(i._ZN37_INTERNAL_15_logger_ctrl_cpp_9246bc918get_dataER4TRecR6TModel) for [local to logger_ctrl_cpp]::get_data(TRec&, TModel&)
    logger_ctrl.o(i._Z11logger_ctrlPv) refers to logger_ctrl.o(i._ZN37_INTERNAL_15_logger_ctrl_cpp_9246bc9111buf_processEPK4TRecPht) for [local to logger_ctrl_cpp]::buf_process(const TRec*, unsigned char*, unsigned short)
    logger_ctrl.o(i._Z11logger_ctrlPv) refers to model.o(.bss) for Model
    logger_ctrl.o(i._Z11logger_ctrlPv) refers to main.o(.data) for WrFlash
    logger_ctrl.o(i._Z11logger_ctrlPv) refers to logger_ctrl.o(.bss) for logger_ctrl(void*)::Rec
    logger_ctrl.o(i._ZN37_INTERNAL_15_logger_ctrl_cpp_9246bc9111buf_processEPK4TRecPht) refers to model.o(i._ZN6TModel12set_led_modeEN9TSettings8TLedModeE) for TModel::set_led_mode(TSettings::TLedMode)
    logger_ctrl.o(i._ZN37_INTERNAL_15_logger_ctrl_cpp_9246bc9111buf_processEPK4TRecPht) refers to model.o(i._ZN6TModel12set_btn_modeEN9TSettings6TPressE) for TModel::set_btn_mode(TSettings::TPress)
    logger_ctrl.o(i._ZN37_INTERNAL_15_logger_ctrl_cpp_9246bc9111buf_processEPK4TRecPht) refers to flash_driver.o(i._ZN6TFlash10write_dataEPKh) for TFlash::write_data(const unsigned char*)
    logger_ctrl.o(i._ZN37_INTERNAL_15_logger_ctrl_cpp_9246bc9111buf_processEPK4TRecPht) refers to logger_ctrl.o(t._ZSt4copyIPKhPhET0_T_S4_S3_) for T2 std::copy<const unsigned char*, unsigned char*>(T1, T1, T2)
    logger_ctrl.o(i._ZN37_INTERNAL_15_logger_ctrl_cpp_9246bc9111buf_processEPK4TRecPht) refers to logger_ctrl.o(.data) for [local to logger_ctrl_cpp]::buf_process(const TRec*, unsigned char*, unsigned short)::Ix
    logger_ctrl.o(i._ZN37_INTERNAL_15_logger_ctrl_cpp_9246bc9111buf_processEPK4TRecPht) refers to model.o(.bss) for Model
    logger_ctrl.o(i._ZN37_INTERNAL_15_logger_ctrl_cpp_9246bc9111buf_processEPK4TRecPht) refers to flash_driver.o(.data) for Flash
    logger_ctrl.o(i._ZN37_INTERNAL_15_logger_ctrl_cpp_9246bc918get_dataER4TRecR6TModel) refers to model.o(i._ZN6TModel11get_code_swEv) for TModel::get_code_sw()
    logger_ctrl.o(i._ZN37_INTERNAL_15_logger_ctrl_cpp_9246bc918get_dataER4TRecR6TModel) refers to model.o(i._ZN6TModel12get_my_angleEv) for TModel::get_my_angle()
    logger_ctrl.o(i._ZN37_INTERNAL_15_logger_ctrl_cpp_9246bc918get_dataER4TRecR6TModel) refers to model.o(i._ZN6TModel21get_sample_valid_signEv) for TModel::get_sample_valid_sign()
    logger_ctrl.o(i._ZN37_INTERNAL_15_logger_ctrl_cpp_9246bc918get_dataER4TRecR6TModel) refers to model.o(i._ZN6TModel14get_hc_code_swEv) for TModel::get_hc_code_sw()
    logger_ctrl.o(i._ZN37_INTERNAL_15_logger_ctrl_cpp_9246bc918get_dataER4TRecR6TModel) refers to model.o(i._ZN6TModel14get_sens_angleEv) for TModel::get_sens_angle()
    logger_ctrl.o(i._ZN37_INTERNAL_15_logger_ctrl_cpp_9246bc918get_dataER4TRecR6TModel) refers to model.o(i._ZN6TModel26get_sens_sample_valid_signEv) for TModel::get_sens_sample_valid_sign()
    logger_ctrl.o(i._ZN37_INTERNAL_15_logger_ctrl_cpp_9246bc918get_dataER4TRecR6TModel) refers to model.o(i._ZN6TModel14get_open_angleEv) for TModel::get_open_angle()
    logger_ctrl.o(i._ZN37_INTERNAL_15_logger_ctrl_cpp_9246bc918get_dataER4TRecR6TModel) refers to model.o(i._ZN6TModel13get_dev_stateEv) for TModel::get_dev_state()
    logger_ctrl.o(.ARM.exidx) refers to logger_ctrl.o(i._ZN37_INTERNAL_15_logger_ctrl_cpp_9246bc9111buf_processEPK4TRecPht) for i._ZN37_INTERNAL_15_logger_ctrl_cpp_9246bc9111buf_processEPK4TRecPht
    logger_ctrl.o(.ARM.exidx) refers to logger_ctrl.o(i._ZN37_INTERNAL_15_logger_ctrl_cpp_9246bc918get_dataER4TRecR6TModel) for i._ZN37_INTERNAL_15_logger_ctrl_cpp_9246bc918get_dataER4TRecR6TModel
    logger_ctrl.o(.ARM.exidx) refers to logger_ctrl.o(i._Z11logger_ctrlPv) for i._Z11logger_ctrlPv
    led_ctrl.o(i._Z8vLedCtrlPv) refers to led.o(i._ZN4TLed4initEv) for TLed::init()
    led_ctrl.o(i._Z8vLedCtrlPv) refers to memcpya.o(.text) for __aeabi_memcpy4
    led_ctrl.o(i._Z8vLedCtrlPv) refers to queue.o(i.xQueueGenericReceive) for xQueueGenericReceive
    led_ctrl.o(i._Z8vLedCtrlPv) refers to model.o(i._ZN6TModel12get_led_modeEv) for TModel::get_led_mode()
    led_ctrl.o(i._Z8vLedCtrlPv) refers to led.o(.bss) for Led
    led_ctrl.o(i._Z8vLedCtrlPv) refers to led_ctrl.o(.constdata) for .constdata
    led_ctrl.o(i._Z8vLedCtrlPv) refers to main.o(.data) for LedTimer_TrigSem
    led_ctrl.o(i._Z8vLedCtrlPv) refers to model.o(.bss) for Model
    led_ctrl.o(.ARM.exidx) refers to led_ctrl.o(i._Z8vLedCtrlPv) for i._Z8vLedCtrlPv
    led_ctrl.o(.constdata) refers to led.o(i._ZN4TLed3offEv) for TLed::off()
    led_ctrl.o(.constdata) refers to led.o(i._ZN4TLed2onEv) for TLed::on()
    led_ctrl.o(.constdata) refers to led.o(i._ZN4TLed6toggleEv) for TLed::toggle()
    button_poll.o(i._Z11vPushButtonPv) refers to button.o(i._ZN7TButton4initEv) for TButton::init()
    button_poll.o(i._Z11vPushButtonPv) refers to tasks.o(i.xTaskGetTickCount) for xTaskGetTickCount
    button_poll.o(i._Z11vPushButtonPv) refers to timers.o(i.xTimerGenericCommand) for xTimerGenericCommand
    button_poll.o(i._Z11vPushButtonPv) refers to queue.o(i.xQueueGenericReceive) for xQueueGenericReceive
    button_poll.o(i._Z11vPushButtonPv) refers to button.o(i._ZNK7TButton4readEv) for TButton::read() const
    button_poll.o(i._Z11vPushButtonPv) refers to model.o(i._ZN6TModel12set_btn_modeEN9TSettings6TPressE) for TModel::set_btn_mode(TSettings::TPress)
    button_poll.o(i._Z11vPushButtonPv) refers to model.o(i._ZN6TModel12get_btn_modeEv) for TModel::get_btn_mode()
    button_poll.o(i._Z11vPushButtonPv) refers to button.o(.bss) for Btn
    button_poll.o(i._Z11vPushButtonPv) refers to main.o(.data) for BtnTimer
    button_poll.o(i._Z11vPushButtonPv) refers to button_poll.o(.constdata) for .constdata
    button_poll.o(i._Z11vPushButtonPv) refers to model.o(.bss) for Model
    button_poll.o(i._Z14vTimerCallbackPv) refers to queue.o(i.xQueueGenericSend) for xQueueGenericSend
    button_poll.o(i._Z14vTimerCallbackPv) refers to main.o(.data) for BtnTimer_TrigSem
    button_poll.o(.ARM.exidx) refers to button_poll.o(i._Z11vPushButtonPv) for i._Z11vPushButtonPv
    button_poll.o(.ARM.exidx) refers to button_poll.o(i._Z14vTimerCallbackPv) for i._Z14vTimerCallbackPv
    errproc.o(i.ErrProc) refers to sensline.o(i.tdlt) for tdlt
    errproc.o(i.ErrProc) refers to errproc.o(.bss) for errtimes
    errproc.o(i.SetErr) refers to sensline.o(i.zgetssec) for zgetssec
    errproc.o(i.SetErr) refers to errproc.o(.bss) for errtimes
    line_wrapper_spl_to_ll.o(i.EXTI_ClearFlag) refers to line_wrapper_spl_to_ll.o(.constdata) for ExtiLine
    line_wrapper_spl_to_ll.o(i.EXTI_GetFlagStatus) refers to line_wrapper_spl_to_ll.o(.constdata) for ExtiLine
    line_wrapper_spl_to_ll.o(i.EXTI_Init) refers to stm32l4xx_ll_exti.o(i.LL_EXTI_Init) for LL_EXTI_Init
    line_wrapper_spl_to_ll.o(i.EXTI_Init) refers to line_wrapper_spl_to_ll.o(.constdata) for ExtiLine
    line_wrapper_spl_to_ll.o(i.GPIO_Init) refers to stm32l4xx_ll_gpio.o(i.LL_GPIO_Init) for LL_GPIO_Init
    line_wrapper_spl_to_ll.o(i.GPIO_ResetBits) refers to line_wrapper_spl_to_ll.o(i._ZN48_INTERNAL_26_Line_wrapper_SPL_to_LL_cpp_34a2820722LL_GPIO_ResetOutputPinEP12GPIO_TypeDefj) for [local to Line_wrapper_SPL_to_LL_cpp]::LL_GPIO_ResetOutputPin(GPIO_TypeDef*, unsigned)
    line_wrapper_spl_to_ll.o(i.GPIO_WriteBit) refers to line_wrapper_spl_to_ll.o(i._ZN48_INTERNAL_26_Line_wrapper_SPL_to_LL_cpp_34a2820722LL_GPIO_ResetOutputPinEP12GPIO_TypeDefj) for [local to Line_wrapper_SPL_to_LL_cpp]::LL_GPIO_ResetOutputPin(GPIO_TypeDef*, unsigned)
    line_wrapper_spl_to_ll.o(i.RCC_APB1PeriphClockCmd) refers to line_wrapper_spl_to_ll.o(i._ZN48_INTERNAL_26_Line_wrapper_SPL_to_LL_cpp_34a2820727LL_APB1_GRP1_IsEnabledClockEj) for [local to Line_wrapper_SPL_to_LL_cpp]::LL_APB1_GRP1_IsEnabledClock(unsigned)
    line_wrapper_spl_to_ll.o(i.RCC_GetClocksFreq) refers to stm32l4xx_ll_rcc.o(i.LL_RCC_GetSystemClocksFreq) for LL_RCC_GetSystemClocksFreq
    line_wrapper_spl_to_ll.o(i.RCC_GetClocksFreq) refers to stm32l4xx_ll_rcc.o(i.LL_RCC_GetI2CClockFreq) for LL_RCC_GetI2CClockFreq
    line_wrapper_spl_to_ll.o(i.RCC_GetClocksFreq) refers to stm32l4xx_ll_rcc.o(i.LL_RCC_GetUSARTClockFreq) for LL_RCC_GetUSARTClockFreq
    line_wrapper_spl_to_ll.o(i.SYSCFG_EXTILineConfig) refers to memcpya.o(.text) for __aeabi_memcpy4
    line_wrapper_spl_to_ll.o(i.SYSCFG_EXTILineConfig) refers to line_wrapper_spl_to_ll.o(.constdata) for .constdata
    line_wrapper_spl_to_ll.o(i.TIM_ClearFlag) refers to memcpya.o(.text) for __aeabi_memcpy4
    line_wrapper_spl_to_ll.o(i.TIM_ClearFlag) refers to line_wrapper_spl_to_ll.o(.constdata) for .constdata
    line_wrapper_spl_to_ll.o(i.TIM_Cmd) refers to line_wrapper_spl_to_ll.o(i._ZN48_INTERNAL_26_Line_wrapper_SPL_to_LL_cpp_34a2820723LL_TIM_IsEnabledCounterEP11TIM_TypeDef) for [local to Line_wrapper_SPL_to_LL_cpp]::LL_TIM_IsEnabledCounter(TIM_TypeDef*)
    line_wrapper_spl_to_ll.o(i.TIM_DeInit) refers to stm32l4xx_ll_tim.o(i.LL_TIM_DeInit) for LL_TIM_DeInit
    line_wrapper_spl_to_ll.o(i.TIM_ITConfig) refers to memcpya.o(.text) for __aeabi_memcpy4
    line_wrapper_spl_to_ll.o(i.TIM_ITConfig) refers to line_wrapper_spl_to_ll.o(.constdata) for .constdata
    line_wrapper_spl_to_ll.o(i.TIM_OC1Init) refers to line_wrapper_spl_to_ll.o(i._ZN48_INTERNAL_26_Line_wrapper_SPL_to_LL_cpp_34a2820724LL_TIM_CC_DisableChannelEP11TIM_TypeDefj) for [local to Line_wrapper_SPL_to_LL_cpp]::LL_TIM_CC_DisableChannel(TIM_TypeDef*, unsigned)
    line_wrapper_spl_to_ll.o(i.TIM_OC1Init) refers to line_wrapper_spl_to_ll.o(i._ZN48_INTERNAL_26_Line_wrapper_SPL_to_LL_cpp_34a2820717LL_TIM_OC_SetModeEP11TIM_TypeDefjj) for [local to Line_wrapper_SPL_to_LL_cpp]::LL_TIM_OC_SetMode(TIM_TypeDef*, unsigned, unsigned)
    line_wrapper_spl_to_ll.o(i.TIM_OC1Init) refers to line_wrapper_spl_to_ll.o(i._ZN48_INTERNAL_26_Line_wrapper_SPL_to_LL_cpp_34a2820724LL_TIM_IC_SetActiveInputEP11TIM_TypeDefjj) for [local to Line_wrapper_SPL_to_LL_cpp]::LL_TIM_IC_SetActiveInput(TIM_TypeDef*, unsigned, unsigned)
    line_wrapper_spl_to_ll.o(i.TIM_OC1Init) refers to line_wrapper_spl_to_ll.o(i._ZN48_INTERNAL_26_Line_wrapper_SPL_to_LL_cpp_34a2820721LL_TIM_OC_SetPolarityEP11TIM_TypeDefjj) for [local to Line_wrapper_SPL_to_LL_cpp]::LL_TIM_OC_SetPolarity(TIM_TypeDef*, unsigned, unsigned)
    line_wrapper_spl_to_ll.o(i.TIM_OC1Init) refers to line_wrapper_spl_to_ll.o(i._ZN48_INTERNAL_26_Line_wrapper_SPL_to_LL_cpp_34a2820723LL_TIM_OC_SetCompareCH1EP11TIM_TypeDefj) for [local to Line_wrapper_SPL_to_LL_cpp]::LL_TIM_OC_SetCompareCH1(TIM_TypeDef*, unsigned)
    line_wrapper_spl_to_ll.o(i.TIM_OC2Init) refers to line_wrapper_spl_to_ll.o(i._ZN48_INTERNAL_26_Line_wrapper_SPL_to_LL_cpp_34a2820724LL_TIM_CC_DisableChannelEP11TIM_TypeDefj) for [local to Line_wrapper_SPL_to_LL_cpp]::LL_TIM_CC_DisableChannel(TIM_TypeDef*, unsigned)
    line_wrapper_spl_to_ll.o(i.TIM_OC2Init) refers to line_wrapper_spl_to_ll.o(i._ZN48_INTERNAL_26_Line_wrapper_SPL_to_LL_cpp_34a2820717LL_TIM_OC_SetModeEP11TIM_TypeDefjj) for [local to Line_wrapper_SPL_to_LL_cpp]::LL_TIM_OC_SetMode(TIM_TypeDef*, unsigned, unsigned)
    line_wrapper_spl_to_ll.o(i.TIM_OC2Init) refers to line_wrapper_spl_to_ll.o(i._ZN48_INTERNAL_26_Line_wrapper_SPL_to_LL_cpp_34a2820724LL_TIM_IC_SetActiveInputEP11TIM_TypeDefjj) for [local to Line_wrapper_SPL_to_LL_cpp]::LL_TIM_IC_SetActiveInput(TIM_TypeDef*, unsigned, unsigned)
    line_wrapper_spl_to_ll.o(i.TIM_OC2Init) refers to line_wrapper_spl_to_ll.o(i._ZN48_INTERNAL_26_Line_wrapper_SPL_to_LL_cpp_34a2820721LL_TIM_OC_SetPolarityEP11TIM_TypeDefjj) for [local to Line_wrapper_SPL_to_LL_cpp]::LL_TIM_OC_SetPolarity(TIM_TypeDef*, unsigned, unsigned)
    line_wrapper_spl_to_ll.o(i.TIM_OC2Init) refers to line_wrapper_spl_to_ll.o(i._ZN48_INTERNAL_26_Line_wrapper_SPL_to_LL_cpp_34a2820723LL_TIM_OC_SetCompareCH1EP11TIM_TypeDefj) for [local to Line_wrapper_SPL_to_LL_cpp]::LL_TIM_OC_SetCompareCH1(TIM_TypeDef*, unsigned)
    line_wrapper_spl_to_ll.o(i.TIM_OC3Init) refers to line_wrapper_spl_to_ll.o(i._ZN48_INTERNAL_26_Line_wrapper_SPL_to_LL_cpp_34a2820724LL_TIM_CC_DisableChannelEP11TIM_TypeDefj) for [local to Line_wrapper_SPL_to_LL_cpp]::LL_TIM_CC_DisableChannel(TIM_TypeDef*, unsigned)
    line_wrapper_spl_to_ll.o(i.TIM_OC3Init) refers to line_wrapper_spl_to_ll.o(i._ZN48_INTERNAL_26_Line_wrapper_SPL_to_LL_cpp_34a2820717LL_TIM_OC_SetModeEP11TIM_TypeDefjj) for [local to Line_wrapper_SPL_to_LL_cpp]::LL_TIM_OC_SetMode(TIM_TypeDef*, unsigned, unsigned)
    line_wrapper_spl_to_ll.o(i.TIM_OC3Init) refers to line_wrapper_spl_to_ll.o(i._ZN48_INTERNAL_26_Line_wrapper_SPL_to_LL_cpp_34a2820724LL_TIM_IC_SetActiveInputEP11TIM_TypeDefjj) for [local to Line_wrapper_SPL_to_LL_cpp]::LL_TIM_IC_SetActiveInput(TIM_TypeDef*, unsigned, unsigned)
    line_wrapper_spl_to_ll.o(i.TIM_OC3Init) refers to line_wrapper_spl_to_ll.o(i._ZN48_INTERNAL_26_Line_wrapper_SPL_to_LL_cpp_34a2820721LL_TIM_OC_SetPolarityEP11TIM_TypeDefjj) for [local to Line_wrapper_SPL_to_LL_cpp]::LL_TIM_OC_SetPolarity(TIM_TypeDef*, unsigned, unsigned)
    line_wrapper_spl_to_ll.o(i.TIM_OC3Init) refers to line_wrapper_spl_to_ll.o(i._ZN48_INTERNAL_26_Line_wrapper_SPL_to_LL_cpp_34a2820723LL_TIM_OC_SetCompareCH1EP11TIM_TypeDefj) for [local to Line_wrapper_SPL_to_LL_cpp]::LL_TIM_OC_SetCompareCH1(TIM_TypeDef*, unsigned)
    line_wrapper_spl_to_ll.o(i._ZN48_INTERNAL_26_Line_wrapper_SPL_to_LL_cpp_34a2820717LL_TIM_OC_SetModeEP11TIM_TypeDefjj) refers to line_wrapper_spl_to_ll.o(.constdata) for OFFSET_TAB_CCMRx
    line_wrapper_spl_to_ll.o(i._ZN48_INTERNAL_26_Line_wrapper_SPL_to_LL_cpp_34a2820721LL_TIM_OC_SetPolarityEP11TIM_TypeDefjj) refers to line_wrapper_spl_to_ll.o(.constdata) for SHIFT_TAB_CCxP
    line_wrapper_spl_to_ll.o(i._ZN48_INTERNAL_26_Line_wrapper_SPL_to_LL_cpp_34a2820724LL_TIM_IC_SetActiveInputEP11TIM_TypeDefjj) refers to line_wrapper_spl_to_ll.o(.constdata) for OFFSET_TAB_CCMRx
    line_wrapper_spl_to_ll.o(.ARM.exidx) refers to line_wrapper_spl_to_ll.o(i._ZN48_INTERNAL_26_Line_wrapper_SPL_to_LL_cpp_34a2820717LL_TIM_OC_SetModeEP11TIM_TypeDefjj) for i._ZN48_INTERNAL_26_Line_wrapper_SPL_to_LL_cpp_34a2820717LL_TIM_OC_SetModeEP11TIM_TypeDefjj
    line_wrapper_spl_to_ll.o(.ARM.exidx) refers to line_wrapper_spl_to_ll.o(i._ZN48_INTERNAL_26_Line_wrapper_SPL_to_LL_cpp_34a2820721LL_TIM_OC_SetPolarityEP11TIM_TypeDefjj) for i._ZN48_INTERNAL_26_Line_wrapper_SPL_to_LL_cpp_34a2820721LL_TIM_OC_SetPolarityEP11TIM_TypeDefjj
    line_wrapper_spl_to_ll.o(.ARM.exidx) refers to line_wrapper_spl_to_ll.o(i._ZN48_INTERNAL_26_Line_wrapper_SPL_to_LL_cpp_34a2820724LL_TIM_IC_SetActiveInputEP11TIM_TypeDefjj) for i._ZN48_INTERNAL_26_Line_wrapper_SPL_to_LL_cpp_34a2820724LL_TIM_IC_SetActiveInputEP11TIM_TypeDefjj
    line_wrapper_spl_to_ll.o(.ARM.exidx) refers to line_wrapper_spl_to_ll.o(i.EXTI_ClearFlag) for i.EXTI_ClearFlag
    line_wrapper_spl_to_ll.o(.ARM.exidx) refers to line_wrapper_spl_to_ll.o(i.EXTI_GetFlagStatus) for i.EXTI_GetFlagStatus
    line_wrapper_spl_to_ll.o(.ARM.exidx) refers to line_wrapper_spl_to_ll.o(i.EXTI_Init) for i.EXTI_Init
    line_wrapper_spl_to_ll.o(.ARM.exidx) refers to line_wrapper_spl_to_ll.o(i.GPIO_Init) for i.GPIO_Init
    line_wrapper_spl_to_ll.o(.ARM.exidx) refers to line_wrapper_spl_to_ll.o(i.GPIO_ResetBits) for i.GPIO_ResetBits
    line_wrapper_spl_to_ll.o(.ARM.exidx) refers to line_wrapper_spl_to_ll.o(i.GPIO_WriteBit) for i.GPIO_WriteBit
    line_wrapper_spl_to_ll.o(.ARM.exidx) refers to line_wrapper_spl_to_ll.o(i.RCC_APB1PeriphClockCmd) for i.RCC_APB1PeriphClockCmd
    line_wrapper_spl_to_ll.o(.ARM.exidx) refers to line_wrapper_spl_to_ll.o(i.RCC_GetClocksFreq) for i.RCC_GetClocksFreq
    line_wrapper_spl_to_ll.o(.ARM.exidx) refers to line_wrapper_spl_to_ll.o(i.SYSCFG_EXTILineConfig) for i.SYSCFG_EXTILineConfig
    line_wrapper_spl_to_ll.o(.ARM.exidx) refers to line_wrapper_spl_to_ll.o(i.TIM_ClearFlag) for i.TIM_ClearFlag
    line_wrapper_spl_to_ll.o(.ARM.exidx) refers to line_wrapper_spl_to_ll.o(i.TIM_Cmd) for i.TIM_Cmd
    line_wrapper_spl_to_ll.o(.ARM.exidx) refers to line_wrapper_spl_to_ll.o(i.TIM_DeInit) for i.TIM_DeInit
    line_wrapper_spl_to_ll.o(.ARM.exidx) refers to line_wrapper_spl_to_ll.o(i.TIM_GetCounter) for i.TIM_GetCounter
    line_wrapper_spl_to_ll.o(.ARM.exidx) refers to line_wrapper_spl_to_ll.o(i.TIM_GetITStatus) for i.TIM_GetITStatus
    line_wrapper_spl_to_ll.o(.ARM.exidx) refers to line_wrapper_spl_to_ll.o(i.TIM_ITConfig) for i.TIM_ITConfig
    line_wrapper_spl_to_ll.o(.ARM.exidx) refers to line_wrapper_spl_to_ll.o(i.TIM_InternalClockConfig) for i.TIM_InternalClockConfig
    line_wrapper_spl_to_ll.o(.ARM.exidx) refers to line_wrapper_spl_to_ll.o(i.TIM_OC1Init) for i.TIM_OC1Init
    line_wrapper_spl_to_ll.o(.ARM.exidx) refers to line_wrapper_spl_to_ll.o(i.TIM_OC2Init) for i.TIM_OC2Init
    line_wrapper_spl_to_ll.o(.ARM.exidx) refers to line_wrapper_spl_to_ll.o(i.TIM_OC3Init) for i.TIM_OC3Init
    line_wrapper_spl_to_ll.o(.ARM.exidx) refers to line_wrapper_spl_to_ll.o(i.TIM_TimeBaseInit) for i.TIM_TimeBaseInit
    line_wrapper_spl_to_ll.o(.ARM.exidx) refers to line_wrapper_spl_to_ll.o(i.TIM_TimeBaseStructInit) for i.TIM_TimeBaseStructInit
    line_wrapper_spl_to_ll.o(.ARM.exidx) refers to line_wrapper_spl_to_ll.o(i._ZN48_INTERNAL_26_Line_wrapper_SPL_to_LL_cpp_34a2820727LL_APB1_GRP1_IsEnabledClockEj) for i._ZN48_INTERNAL_26_Line_wrapper_SPL_to_LL_cpp_34a2820727LL_APB1_GRP1_IsEnabledClockEj
    line_wrapper_spl_to_ll.o(.ARM.exidx) refers to line_wrapper_spl_to_ll.o(i._ZN48_INTERNAL_26_Line_wrapper_SPL_to_LL_cpp_34a2820723LL_TIM_IsEnabledCounterEP11TIM_TypeDef) for i._ZN48_INTERNAL_26_Line_wrapper_SPL_to_LL_cpp_34a2820723LL_TIM_IsEnabledCounterEP11TIM_TypeDef
    line_wrapper_spl_to_ll.o(.ARM.exidx) refers to line_wrapper_spl_to_ll.o(i._ZN48_INTERNAL_26_Line_wrapper_SPL_to_LL_cpp_34a2820724LL_TIM_CC_DisableChannelEP11TIM_TypeDefj) for i._ZN48_INTERNAL_26_Line_wrapper_SPL_to_LL_cpp_34a2820724LL_TIM_CC_DisableChannelEP11TIM_TypeDefj
    line_wrapper_spl_to_ll.o(.ARM.exidx) refers to line_wrapper_spl_to_ll.o(i._ZN48_INTERNAL_26_Line_wrapper_SPL_to_LL_cpp_34a2820723LL_TIM_OC_SetCompareCH1EP11TIM_TypeDefj) for i._ZN48_INTERNAL_26_Line_wrapper_SPL_to_LL_cpp_34a2820723LL_TIM_OC_SetCompareCH1EP11TIM_TypeDefj
    line_wrapper_spl_to_ll.o(.ARM.exidx) refers to line_wrapper_spl_to_ll.o(i._ZN48_INTERNAL_26_Line_wrapper_SPL_to_LL_cpp_34a2820720LL_TIM_ClearFlag_CC1EP11TIM_TypeDef) for i._ZN48_INTERNAL_26_Line_wrapper_SPL_to_LL_cpp_34a2820720LL_TIM_ClearFlag_CC1EP11TIM_TypeDef
    line_wrapper_spl_to_ll.o(.ARM.exidx) refers to line_wrapper_spl_to_ll.o(i._ZN48_INTERNAL_26_Line_wrapper_SPL_to_LL_cpp_34a2820720LL_TIM_ClearFlag_CC2EP11TIM_TypeDef) for i._ZN48_INTERNAL_26_Line_wrapper_SPL_to_LL_cpp_34a2820720LL_TIM_ClearFlag_CC2EP11TIM_TypeDef
    line_wrapper_spl_to_ll.o(.ARM.exidx) refers to line_wrapper_spl_to_ll.o(i._ZN48_INTERNAL_26_Line_wrapper_SPL_to_LL_cpp_34a2820720LL_TIM_ClearFlag_CC3EP11TIM_TypeDef) for i._ZN48_INTERNAL_26_Line_wrapper_SPL_to_LL_cpp_34a2820720LL_TIM_ClearFlag_CC3EP11TIM_TypeDef
    line_wrapper_spl_to_ll.o(.ARM.exidx) refers to line_wrapper_spl_to_ll.o(i._ZN48_INTERNAL_26_Line_wrapper_SPL_to_LL_cpp_34a2820719LL_TIM_EnableIT_CC1EP11TIM_TypeDef) for i._ZN48_INTERNAL_26_Line_wrapper_SPL_to_LL_cpp_34a2820719LL_TIM_EnableIT_CC1EP11TIM_TypeDef
    line_wrapper_spl_to_ll.o(.ARM.exidx) refers to line_wrapper_spl_to_ll.o(i._ZN48_INTERNAL_26_Line_wrapper_SPL_to_LL_cpp_34a2820720LL_TIM_DisableIT_CC1EP11TIM_TypeDef) for i._ZN48_INTERNAL_26_Line_wrapper_SPL_to_LL_cpp_34a2820720LL_TIM_DisableIT_CC1EP11TIM_TypeDef
    line_wrapper_spl_to_ll.o(.ARM.exidx) refers to line_wrapper_spl_to_ll.o(i._ZN48_INTERNAL_26_Line_wrapper_SPL_to_LL_cpp_34a2820719LL_TIM_EnableIT_CC2EP11TIM_TypeDef) for i._ZN48_INTERNAL_26_Line_wrapper_SPL_to_LL_cpp_34a2820719LL_TIM_EnableIT_CC2EP11TIM_TypeDef
    line_wrapper_spl_to_ll.o(.ARM.exidx) refers to line_wrapper_spl_to_ll.o(i._ZN48_INTERNAL_26_Line_wrapper_SPL_to_LL_cpp_34a2820720LL_TIM_DisableIT_CC2EP11TIM_TypeDef) for i._ZN48_INTERNAL_26_Line_wrapper_SPL_to_LL_cpp_34a2820720LL_TIM_DisableIT_CC2EP11TIM_TypeDef
    line_wrapper_spl_to_ll.o(.ARM.exidx) refers to line_wrapper_spl_to_ll.o(i._ZN48_INTERNAL_26_Line_wrapper_SPL_to_LL_cpp_34a2820719LL_TIM_EnableIT_CC3EP11TIM_TypeDef) for i._ZN48_INTERNAL_26_Line_wrapper_SPL_to_LL_cpp_34a2820719LL_TIM_EnableIT_CC3EP11TIM_TypeDef
    line_wrapper_spl_to_ll.o(.ARM.exidx) refers to line_wrapper_spl_to_ll.o(i._ZN48_INTERNAL_26_Line_wrapper_SPL_to_LL_cpp_34a2820720LL_TIM_DisableIT_CC3EP11TIM_TypeDef) for i._ZN48_INTERNAL_26_Line_wrapper_SPL_to_LL_cpp_34a2820720LL_TIM_DisableIT_CC3EP11TIM_TypeDef
    line_wrapper_spl_to_ll.o(.ARM.exidx) refers to line_wrapper_spl_to_ll.o(i._ZN48_INTERNAL_26_Line_wrapper_SPL_to_LL_cpp_34a2820722LL_GPIO_ResetOutputPinEP12GPIO_TypeDefj) for i._ZN48_INTERNAL_26_Line_wrapper_SPL_to_LL_cpp_34a2820722LL_GPIO_ResetOutputPinEP12GPIO_TypeDefj
    line_wrapper_spl_to_ll.o(.constdata) refers to line_wrapper_spl_to_ll.o(i._ZN48_INTERNAL_26_Line_wrapper_SPL_to_LL_cpp_34a2820720LL_TIM_ClearFlag_CC1EP11TIM_TypeDef) for [local to Line_wrapper_SPL_to_LL_cpp]::LL_TIM_ClearFlag_CC1(TIM_TypeDef*)
    line_wrapper_spl_to_ll.o(.constdata) refers to line_wrapper_spl_to_ll.o(i._ZN48_INTERNAL_26_Line_wrapper_SPL_to_LL_cpp_34a2820720LL_TIM_ClearFlag_CC2EP11TIM_TypeDef) for [local to Line_wrapper_SPL_to_LL_cpp]::LL_TIM_ClearFlag_CC2(TIM_TypeDef*)
    line_wrapper_spl_to_ll.o(.constdata) refers to line_wrapper_spl_to_ll.o(i._ZN48_INTERNAL_26_Line_wrapper_SPL_to_LL_cpp_34a2820720LL_TIM_ClearFlag_CC3EP11TIM_TypeDef) for [local to Line_wrapper_SPL_to_LL_cpp]::LL_TIM_ClearFlag_CC3(TIM_TypeDef*)
    line_wrapper_spl_to_ll.o(.constdata) refers to line_wrapper_spl_to_ll.o(i._ZN48_INTERNAL_26_Line_wrapper_SPL_to_LL_cpp_34a2820720LL_TIM_DisableIT_CC1EP11TIM_TypeDef) for [local to Line_wrapper_SPL_to_LL_cpp]::LL_TIM_DisableIT_CC1(TIM_TypeDef*)
    line_wrapper_spl_to_ll.o(.constdata) refers to line_wrapper_spl_to_ll.o(i._ZN48_INTERNAL_26_Line_wrapper_SPL_to_LL_cpp_34a2820719LL_TIM_EnableIT_CC1EP11TIM_TypeDef) for [local to Line_wrapper_SPL_to_LL_cpp]::LL_TIM_EnableIT_CC1(TIM_TypeDef*)
    line_wrapper_spl_to_ll.o(.constdata) refers to line_wrapper_spl_to_ll.o(i._ZN48_INTERNAL_26_Line_wrapper_SPL_to_LL_cpp_34a2820720LL_TIM_DisableIT_CC2EP11TIM_TypeDef) for [local to Line_wrapper_SPL_to_LL_cpp]::LL_TIM_DisableIT_CC2(TIM_TypeDef*)
    line_wrapper_spl_to_ll.o(.constdata) refers to line_wrapper_spl_to_ll.o(i._ZN48_INTERNAL_26_Line_wrapper_SPL_to_LL_cpp_34a2820719LL_TIM_EnableIT_CC2EP11TIM_TypeDef) for [local to Line_wrapper_SPL_to_LL_cpp]::LL_TIM_EnableIT_CC2(TIM_TypeDef*)
    line_wrapper_spl_to_ll.o(.constdata) refers to line_wrapper_spl_to_ll.o(i._ZN48_INTERNAL_26_Line_wrapper_SPL_to_LL_cpp_34a2820720LL_TIM_DisableIT_CC3EP11TIM_TypeDef) for [local to Line_wrapper_SPL_to_LL_cpp]::LL_TIM_DisableIT_CC3(TIM_TypeDef*)
    line_wrapper_spl_to_ll.o(.constdata) refers to line_wrapper_spl_to_ll.o(i._ZN48_INTERNAL_26_Line_wrapper_SPL_to_LL_cpp_34a2820719LL_TIM_EnableIT_CC3EP11TIM_TypeDef) for [local to Line_wrapper_SPL_to_LL_cpp]::LL_TIM_EnableIT_CC3(TIM_TypeDef*)
    sens_types.o(i.SetMainFlag) refers to sensline.o(i.getssec) for getssec
    sens_types.o(i.SetMainFlag) refers to sens_types.o(.data) for MainFlags
    sensline.o(i.AddTime) refers to line_wrapper_spl_to_ll.o(i.TIM_ClearFlag) for TIM_ClearFlag
    sensline.o(i.AddTime) refers to line_wrapper_spl_to_ll.o(i.TIM_ITConfig) for TIM_ITConfig
    sensline.o(i.BlockST) refers to sensline.o(.data) for SensConfig
    sensline.o(i.CheckBSTr) refers to sensline.o(.data) for SensConfig
    sensline.o(i.CheckZZZ) refers to sensline.o(i.EnableINT) for EnableINT
    sensline.o(i.CheckZZZ) refers to sensline.o(i.AddTime) for AddTime
    sensline.o(i.CheckZZZ) refers to sensline.o(i.SetOut) for SetOut
    sensline.o(i.CheckZZZ) refers to sensline.o(.data) for ZZZ
    sensline.o(i.ConfigSENS) refers to line_wrapper_spl_to_ll.o(i.GPIO_Init) for GPIO_Init
    sensline.o(i.ConfigSENS) refers to line_wrapper_spl_to_ll.o(i.SYSCFG_EXTILineConfig) for SYSCFG_EXTILineConfig
    sensline.o(i.ConfigSENS) refers to line_wrapper_spl_to_ll.o(i.EXTI_Init) for EXTI_Init
    sensline.o(i.ConfigSENS) refers to line_wrapper_spl_to_ll.o(i.RCC_APB1PeriphClockCmd) for RCC_APB1PeriphClockCmd
    sensline.o(i.ConfigSENS) refers to line_wrapper_spl_to_ll.o(i.TIM_DeInit) for TIM_DeInit
    sensline.o(i.ConfigSENS) refers to line_wrapper_spl_to_ll.o(i.TIM_InternalClockConfig) for TIM_InternalClockConfig
    sensline.o(i.ConfigSENS) refers to line_wrapper_spl_to_ll.o(i.RCC_GetClocksFreq) for RCC_GetClocksFreq
    sensline.o(i.ConfigSENS) refers to line_wrapper_spl_to_ll.o(i.TIM_TimeBaseStructInit) for TIM_TimeBaseStructInit
    sensline.o(i.ConfigSENS) refers to line_wrapper_spl_to_ll.o(i.TIM_TimeBaseInit) for TIM_TimeBaseInit
    sensline.o(i.ConfigSENS) refers to line_wrapper_spl_to_ll.o(i.TIM_GetCounter) for TIM_GetCounter
    sensline.o(i.ConfigSENS) refers to line_wrapper_spl_to_ll.o(i.TIM_OC2Init) for TIM_OC2Init
    sensline.o(i.ConfigSENS) refers to line_wrapper_spl_to_ll.o(i.TIM_OC3Init) for TIM_OC3Init
    sensline.o(i.ConfigSENS) refers to line_wrapper_spl_to_ll.o(i.TIM_OC1Init) for TIM_OC1Init
    sensline.o(i.ConfigSENS) refers to line_wrapper_spl_to_ll.o(i.TIM_ITConfig) for TIM_ITConfig
    sensline.o(i.ConfigSENS) refers to sensline.o(i.NVIC_EnableIRQ) for NVIC_EnableIRQ
    sensline.o(i.ConfigSENS) refers to line_wrapper_spl_to_ll.o(i.GPIO_WriteBit) for GPIO_WriteBit
    sensline.o(i.ConfigSENS) refers to line_wrapper_spl_to_ll.o(i.TIM_Cmd) for TIM_Cmd
    sensline.o(i.ConfigSENS) refers to sensline.o(.data) for SensConfig
    sensline.o(i.DisableINT) refers to sensline.o(i.NVIC_DisableIRQ) for NVIC_DisableIRQ
    sensline.o(i.DisableTIM) refers to line_wrapper_spl_to_ll.o(i.TIM_ITConfig) for TIM_ITConfig
    sensline.o(i.EXTI9_5_IRQHandler) refers to line_wrapper_spl_to_ll.o(i.EXTI_GetFlagStatus) for EXTI_GetFlagStatus
    sensline.o(i.EXTI9_5_IRQHandler) refers to line_wrapper_spl_to_ll.o(i.EXTI_ClearFlag) for EXTI_ClearFlag
    sensline.o(i.EXTI9_5_IRQHandler) refers to sensline.o(i.DisableINT) for DisableINT
    sensline.o(i.EXTI9_5_IRQHandler) refers to sensline.o(i.SelectND) for SelectND
    sensline.o(i.EXTI9_5_IRQHandler) refers to line_wrapper_spl_to_ll.o(i.TIM_ClearFlag) for TIM_ClearFlag
    sensline.o(i.EXTI9_5_IRQHandler) refers to line_wrapper_spl_to_ll.o(i.TIM_ITConfig) for TIM_ITConfig
    sensline.o(i.EXTI9_5_IRQHandler) refers to sensline.o(i.NewTime) for NewTime
    sensline.o(i.EXTI9_5_IRQHandler) refers to sensline.o(.data) for SensState
    sensline.o(i.EnableINT) refers to line_wrapper_spl_to_ll.o(i.EXTI_ClearFlag) for EXTI_ClearFlag
    sensline.o(i.EnableINT) refers to sensline.o(i.NVIC_EnableIRQ) for NVIC_EnableIRQ
    sensline.o(i.EnableTIM) refers to line_wrapper_spl_to_ll.o(i.TIM_ClearFlag) for TIM_ClearFlag
    sensline.o(i.EnableTIM) refers to line_wrapper_spl_to_ll.o(i.TIM_ITConfig) for TIM_ITConfig
    sensline.o(i.GetBSBuf) refers to sensline.o(.data) for BSPointer
    sensline.o(i.GetNC) refers to sensline.o(.data) for NCK
    sensline.o(i.NewTime) refers to line_wrapper_spl_to_ll.o(i.TIM_ClearFlag) for TIM_ClearFlag
    sensline.o(i.NewTime) refers to line_wrapper_spl_to_ll.o(i.TIM_ITConfig) for TIM_ITConfig
    sensline.o(i.NextBit) refers to sensline.o(i.RemovePkg) for RemovePkg
    sensline.o(i.NextBit) refers to sensline.o(i.AddTime) for AddTime
    sensline.o(i.NextBit) refers to sensline.o(i.SelectND) for SelectND
    sensline.o(i.NextBit) refers to sensline.o(i.SetOut) for SetOut
    sensline.o(i.NextBit) refers to sensline.o(.data) for curbit
    sensline.o(i.NextBit) refers to sensline.o(.bss) for TrBuffer
    sensline.o(i.RemovePkg) refers to sensline.o(.data) for SensConfig
    sensline.o(i.RemovePkg) refers to sensline.o(.bss) for TrBuffer
    sensline.o(i.SelectND) refers to sensline.o(i.EnableINT) for EnableINT
    sensline.o(i.SelectND) refers to sensline.o(i.AddTime) for AddTime
    sensline.o(i.SelectND) refers to sensline.o(i.SetWritePkg) for SetWritePkg
    sensline.o(i.SelectND) refers to sensline.o(.data) for Ni
    sensline.o(i.SensGetPkg) refers to sensline.o(.data) for RdBufPointerHead
    sensline.o(i.SensGetPkg) refers to sensline.o(.bss) for RdBuffer
    sensline.o(i.SensSendPkg) refers to sensline.o(.data) for TrBufPointerHead
    sensline.o(i.SensSendPkg) refers to sensline.o(.bss) for TrBuffer
    sensline.o(i.SetBSBuf) refers to sensline.o(.data) for BSPointer
    sensline.o(i.SetOut) refers to line_wrapper_spl_to_ll.o(i.GPIO_WriteBit) for GPIO_WriteBit
    sensline.o(i.SetWritePkg) refers to sensline.o(i.AddTime) for AddTime
    sensline.o(i.SetWritePkg) refers to sensline.o(.data) for curtrbuf
    sensline.o(i.SetWritePkg) refers to sensline.o(.bss) for TrBuffer
    sensline.o(i.StopSENS) refers to line_wrapper_spl_to_ll.o(i.EXTI_Init) for EXTI_Init
    sensline.o(i.StopSENS) refers to line_wrapper_spl_to_ll.o(i.TIM_Cmd) for TIM_Cmd
    sensline.o(i.StopSENS) refers to sensline.o(i.NVIC_DisableIRQ) for NVIC_DisableIRQ
    sensline.o(i.StopSENS) refers to line_wrapper_spl_to_ll.o(i.GPIO_ResetBits) for GPIO_ResetBits
    sensline.o(i.TIM3_IRQHandler) refers to line_wrapper_spl_to_ll.o(i.TIM_GetITStatus) for TIM_GetITStatus
    sensline.o(i.TIM3_IRQHandler) refers to line_wrapper_spl_to_ll.o(i.TIM_ClearFlag) for TIM_ClearFlag
    sensline.o(i.TIM3_IRQHandler) refers to line_wrapper_spl_to_ll.o(i.TIM_ITConfig) for TIM_ITConfig
    sensline.o(i.TIM3_IRQHandler) refers to sensline.o(i.GetInput) for GetInput
    sensline.o(i.TIM3_IRQHandler) refers to sensline.o(i.DisableINT) for DisableINT
    sensline.o(i.TIM3_IRQHandler) refers to sensline.o(i.SetOut) for SetOut
    sensline.o(i.TIM3_IRQHandler) refers to sensline.o(i.AddTime) for AddTime
    sensline.o(i.TIM3_IRQHandler) refers to sensline.o(i.EnableINT) for EnableINT
    sensline.o(i.TIM3_IRQHandler) refers to sensline.o(i.NewTime) for NewTime
    sensline.o(i.TIM3_IRQHandler) refers to sensline.o(i.SelectND) for SelectND
    sensline.o(i.TIM3_IRQHandler) refers to sensline.o(i.CheckZZZ) for CheckZZZ
    sensline.o(i.TIM3_IRQHandler) refers to sensline.o(.data) for ssec
    sensline.o(i.TIM3_IRQHandler) refers to sensline.o(.bss) for RdBuffer
    sensline.o(i.TIM3_IRQHandler) refers to sensline.o(i.NextBit) for NextBit
    sensline.o(i.TIM3_IRQHandler) refers to sensline.o(i.RemovePkg) for RemovePkg
    sensline.o(i.UnblockST) refers to sensline.o(.data) for BSPointer
    sensline.o(i.getssec) refers to sensline.o(.data) for ssec
    sensline.o(i.tdlt) refers to sensline.o(.data) for ssec
    sensline.o(i.zgetssec) refers to sensline.o(.data) for ssec
    sensline.o(.data) refers to sensline.o(.bss) for TrBuffer
    sensproc.o(i.CheckPSWD) refers to sensproc.o(i.S3BToFloat) for S3BToFloat
    sensproc.o(i.CheckPSWD) refers to sensproc.o(.data) for pp
    sensproc.o(i.FindParam) refers to sensdev.o(.constdata) for Params
    sensproc.o(i.GetAccessMode) refers to sensproc.o(.data) for Access
    sensproc.o(i.ResetAccess) refers to sensdev.o(i.LoadConst) for LoadConst
    sensproc.o(i.ResetAccess) refers to sensproc.o(.data) for Access
    sensproc.o(i.SensAnswerPkg) refers to sensdev.o(i.SaveConst) for SaveConst
    sensproc.o(i.SensAnswerPkg) refers to sensdev.o(i.LoadConst) for LoadConst
    sensproc.o(i.SensAnswerPkg) refers to sensproc.o(i.CheckPSWD) for CheckPSWD
    sensproc.o(i.SensAnswerPkg) refers to sensproc.o(i.GetAccessMode) for GetAccessMode
    sensproc.o(i.SensAnswerPkg) refers to sensdev.o(i.SetTCPnt) for SetTCPnt
    sensproc.o(i.SensAnswerPkg) refers to sensproc.o(i.FloatToS3B) for FloatToS3B
    sensproc.o(i.SensAnswerPkg) refers to sensproc.o(i.S3BToFloat) for S3BToFloat
    sensproc.o(i.SensAnswerPkg) refers to sensdev.o(i.ThePredef) for ThePredef
    sensproc.o(i.SensAnswerPkg) refers to sensproc.o(i.FindParam) for FindParam
    sensproc.o(i.SensAnswerPkg) refers to sensproc.o(i.GetReadOnly) for GetReadOnly
    sensproc.o(i.SensAnswerPkg) refers to sensproc.o(.data) for Access
    sensproc.o(i.SensAnswerPkg) refers to sens_types.o(.bss) for HardDSt
    sensproc.o(i.SensAnswerPkg) refers to sensproc.o(i.ReadInt16) for ReadInt16
    sensproc.o(i.SensAnswerPkg) refers to sensproc.o(i.WriteInt16) for WriteInt16
    sensproc.o(i.SetSaveData) refers to sensdev.o(i.SaveConst) for SaveConst
    sensproc.o(i.SetSaveData) refers to sensproc.o(.data) for SaveData
    sensproc.o(i.isok) refers to sensproc.o(i.iserr) for iserr
    startup_stm32l431xx.o(RESET) refers to startup_stm32l431xx.o(STACK) for __initial_sp
    startup_stm32l431xx.o(RESET) refers to startup_stm32l431xx.o(.text) for Reset_Handler
    startup_stm32l431xx.o(RESET) refers to port.o(.emb_text) for SVC_Handler
    startup_stm32l431xx.o(RESET) refers to port.o(i.SysTick_Handler) for SysTick_Handler
    startup_stm32l431xx.o(RESET) refers to flash_driver.o(i.FLASH_IRQHandler) for FLASH_IRQHandler
    startup_stm32l431xx.o(RESET) refers to modbus_link.o(i.DMA1_Channel4_IRQHandler) for DMA1_Channel4_IRQHandler
    startup_stm32l431xx.o(RESET) refers to modbus_link.o(i.DMA1_Channel7_IRQHandler) for DMA1_Channel7_IRQHandler
    startup_stm32l431xx.o(RESET) refers to sensline.o(i.EXTI9_5_IRQHandler) for EXTI9_5_IRQHandler
    startup_stm32l431xx.o(RESET) refers to i2c_driver.o(i.I2C1_EV_IRQHandler) for I2C1_EV_IRQHandler
    startup_stm32l431xx.o(RESET) refers to i2c_driver.o(i.I2C1_ER_IRQHandler) for I2C1_ER_IRQHandler
    startup_stm32l431xx.o(RESET) refers to i2c_driver.o(i.I2C2_EV_IRQHandler) for I2C2_EV_IRQHandler
    startup_stm32l431xx.o(RESET) refers to i2c_driver.o(i.I2C2_ER_IRQHandler) for I2C2_ER_IRQHandler
    startup_stm32l431xx.o(RESET) refers to modbus_link.o(i.USART1_IRQHandler) for USART1_IRQHandler
    startup_stm32l431xx.o(RESET) refers to modbus_link.o(i.USART2_IRQHandler) for USART2_IRQHandler
    startup_stm32l431xx.o(RESET) refers to mpu-9250_acc_gyro_mag_driver_hl.o(i.EXTI15_10_IRQHandler) for EXTI15_10_IRQHandler
    startup_stm32l431xx.o(RESET) refers to flash_driver.o(i.TIM6_DAC_IRQHandler) for TIM6_DAC_IRQHandler
    startup_stm32l431xx.o(RESET) refers to dev_determ.o(i.TIM7_IRQHandler) for TIM7_IRQHandler
    startup_stm32l431xx.o(RESET) refers to modbus_link.o(i.DMA2_Channel6_IRQHandler) for DMA2_Channel6_IRQHandler
    startup_stm32l431xx.o(.text) refers to system_stm32l4xx.o(i.SystemInit) for SystemInit
    startup_stm32l431xx.o(.text) refers to entry.o(.ARM.Collect$$$$00000000) for __main
    system_stm32l4xx.o(i.SystemCoreClockUpdate) refers to system_stm32l4xx.o(.constdata) for MSIRangeTable
    system_stm32l4xx.o(i.SystemCoreClockUpdate) refers to system_stm32l4xx.o(.data) for SystemCoreClock
    stm32l4xx_ll_dma.o(i.LL_DMA_DeInit) refers to stm32l4xx_ll_dma.o(i.LL_AHB1_GRP1_ForceReset) for LL_AHB1_GRP1_ForceReset
    stm32l4xx_ll_dma.o(i.LL_DMA_DeInit) refers to stm32l4xx_ll_dma.o(i.LL_AHB1_GRP1_ReleaseReset) for LL_AHB1_GRP1_ReleaseReset
    stm32l4xx_ll_dma.o(i.LL_DMA_DeInit) refers to stm32l4xx_ll_dma.o(i.LL_DMA_SetPeriphRequest) for LL_DMA_SetPeriphRequest
    stm32l4xx_ll_dma.o(i.LL_DMA_Init) refers to stm32l4xx_ll_dma.o(i.LL_DMA_SetPeriphRequest) for LL_DMA_SetPeriphRequest
    stm32l4xx_ll_dma.o(i.LL_DMA_Init) refers to stm32l4xx_ll_dma.o(.constdata) for CHANNEL_OFFSET_TAB
    stm32l4xx_ll_exti.o(i.LL_EXTI_Init) refers to stm32l4xx_ll_exti.o(i.LL_EXTI_DisableEvent_0_31) for LL_EXTI_DisableEvent_0_31
    stm32l4xx_ll_exti.o(i.LL_EXTI_Init) refers to stm32l4xx_ll_exti.o(i.LL_EXTI_EnableIT_0_31) for LL_EXTI_EnableIT_0_31
    stm32l4xx_ll_exti.o(i.LL_EXTI_Init) refers to stm32l4xx_ll_exti.o(i.LL_EXTI_DisableIT_0_31) for LL_EXTI_DisableIT_0_31
    stm32l4xx_ll_exti.o(i.LL_EXTI_Init) refers to stm32l4xx_ll_exti.o(i.LL_EXTI_EnableEvent_0_31) for LL_EXTI_EnableEvent_0_31
    stm32l4xx_ll_exti.o(i.LL_EXTI_Init) refers to stm32l4xx_ll_exti.o(i.LL_EXTI_EnableRisingTrig_0_31) for LL_EXTI_EnableRisingTrig_0_31
    stm32l4xx_ll_exti.o(i.LL_EXTI_Init) refers to stm32l4xx_ll_exti.o(i.LL_EXTI_EnableFallingTrig_0_31) for LL_EXTI_EnableFallingTrig_0_31
    stm32l4xx_ll_exti.o(i.LL_EXTI_Init) refers to stm32l4xx_ll_exti.o(i.LL_EXTI_DisableEvent_32_63) for LL_EXTI_DisableEvent_32_63
    stm32l4xx_ll_exti.o(i.LL_EXTI_Init) refers to stm32l4xx_ll_exti.o(i.LL_EXTI_EnableIT_32_63) for LL_EXTI_EnableIT_32_63
    stm32l4xx_ll_exti.o(i.LL_EXTI_Init) refers to stm32l4xx_ll_exti.o(i.LL_EXTI_DisableIT_32_63) for LL_EXTI_DisableIT_32_63
    stm32l4xx_ll_exti.o(i.LL_EXTI_Init) refers to stm32l4xx_ll_exti.o(i.LL_EXTI_EnableEvent_32_63) for LL_EXTI_EnableEvent_32_63
    stm32l4xx_ll_exti.o(i.LL_EXTI_Init) refers to stm32l4xx_ll_exti.o(i.LL_EXTI_EnableRisingTrig_32_63) for LL_EXTI_EnableRisingTrig_32_63
    stm32l4xx_ll_exti.o(i.LL_EXTI_Init) refers to stm32l4xx_ll_exti.o(i.LL_EXTI_EnableFallingTrig_32_63) for LL_EXTI_EnableFallingTrig_32_63
    stm32l4xx_ll_gpio.o(i.LL_GPIO_DeInit) refers to stm32l4xx_ll_gpio.o(i.LL_AHB2_GRP1_ForceReset) for LL_AHB2_GRP1_ForceReset
    stm32l4xx_ll_gpio.o(i.LL_GPIO_DeInit) refers to stm32l4xx_ll_gpio.o(i.LL_AHB2_GRP1_ReleaseReset) for LL_AHB2_GRP1_ReleaseReset
    stm32l4xx_ll_i2c.o(i.LL_I2C_DeInit) refers to stm32l4xx_ll_i2c.o(i.LL_APB1_GRP1_ForceReset) for LL_APB1_GRP1_ForceReset
    stm32l4xx_ll_i2c.o(i.LL_I2C_DeInit) refers to stm32l4xx_ll_i2c.o(i.LL_APB1_GRP1_ReleaseReset) for LL_APB1_GRP1_ReleaseReset
    stm32l4xx_ll_rcc.o(i.LL_RCC_DeInit) refers to stm32l4xx_ll_rcc.o(i.LL_RCC_MSI_IsReady) for LL_RCC_MSI_IsReady
    stm32l4xx_ll_rcc.o(i.LL_RCC_GetADCClockFreq) refers to stm32l4xx_ll_rcc.o(i.LL_RCC_PLLSAI1_IsReady) for LL_RCC_PLLSAI1_IsReady
    stm32l4xx_ll_rcc.o(i.LL_RCC_GetADCClockFreq) refers to stm32l4xx_ll_rcc.o(i.RCC_PLLSAI1_GetFreqDomain_ADC) for RCC_PLLSAI1_GetFreqDomain_ADC
    stm32l4xx_ll_rcc.o(i.LL_RCC_GetADCClockFreq) refers to stm32l4xx_ll_rcc.o(i.RCC_GetSystemClockFreq) for RCC_GetSystemClockFreq
    stm32l4xx_ll_rcc.o(i.LL_RCC_GetI2CClockFreq) refers to stm32l4xx_ll_rcc.o(i.LL_RCC_GetI2CClockSource) for LL_RCC_GetI2CClockSource
    stm32l4xx_ll_rcc.o(i.LL_RCC_GetI2CClockFreq) refers to stm32l4xx_ll_rcc.o(i.RCC_GetSystemClockFreq) for RCC_GetSystemClockFreq
    stm32l4xx_ll_rcc.o(i.LL_RCC_GetI2CClockFreq) refers to stm32l4xx_ll_rcc.o(i.LL_RCC_HSI_IsReady) for LL_RCC_HSI_IsReady
    stm32l4xx_ll_rcc.o(i.LL_RCC_GetI2CClockFreq) refers to stm32l4xx_ll_rcc.o(i.RCC_GetHCLKClockFreq) for RCC_GetHCLKClockFreq
    stm32l4xx_ll_rcc.o(i.LL_RCC_GetI2CClockFreq) refers to stm32l4xx_ll_rcc.o(i.RCC_GetPCLK1ClockFreq) for RCC_GetPCLK1ClockFreq
    stm32l4xx_ll_rcc.o(i.LL_RCC_GetLPTIMClockFreq) refers to stm32l4xx_ll_rcc.o(i.LL_RCC_GetLPTIMClockSource) for LL_RCC_GetLPTIMClockSource
    stm32l4xx_ll_rcc.o(i.LL_RCC_GetLPTIMClockFreq) refers to stm32l4xx_ll_rcc.o(i.LL_RCC_LSI_IsReady) for LL_RCC_LSI_IsReady
    stm32l4xx_ll_rcc.o(i.LL_RCC_GetLPTIMClockFreq) refers to stm32l4xx_ll_rcc.o(i.LL_RCC_HSI_IsReady) for LL_RCC_HSI_IsReady
    stm32l4xx_ll_rcc.o(i.LL_RCC_GetLPTIMClockFreq) refers to stm32l4xx_ll_rcc.o(i.LL_RCC_LSE_IsReady) for LL_RCC_LSE_IsReady
    stm32l4xx_ll_rcc.o(i.LL_RCC_GetLPTIMClockFreq) refers to stm32l4xx_ll_rcc.o(i.RCC_GetSystemClockFreq) for RCC_GetSystemClockFreq
    stm32l4xx_ll_rcc.o(i.LL_RCC_GetLPTIMClockFreq) refers to stm32l4xx_ll_rcc.o(i.RCC_GetHCLKClockFreq) for RCC_GetHCLKClockFreq
    stm32l4xx_ll_rcc.o(i.LL_RCC_GetLPTIMClockFreq) refers to stm32l4xx_ll_rcc.o(i.RCC_GetPCLK1ClockFreq) for RCC_GetPCLK1ClockFreq
    stm32l4xx_ll_rcc.o(i.LL_RCC_GetLPUARTClockFreq) refers to stm32l4xx_ll_rcc.o(i.RCC_GetSystemClockFreq) for RCC_GetSystemClockFreq
    stm32l4xx_ll_rcc.o(i.LL_RCC_GetLPUARTClockFreq) refers to stm32l4xx_ll_rcc.o(i.LL_RCC_HSI_IsReady) for LL_RCC_HSI_IsReady
    stm32l4xx_ll_rcc.o(i.LL_RCC_GetLPUARTClockFreq) refers to stm32l4xx_ll_rcc.o(i.LL_RCC_LSE_IsReady) for LL_RCC_LSE_IsReady
    stm32l4xx_ll_rcc.o(i.LL_RCC_GetLPUARTClockFreq) refers to stm32l4xx_ll_rcc.o(i.RCC_GetHCLKClockFreq) for RCC_GetHCLKClockFreq
    stm32l4xx_ll_rcc.o(i.LL_RCC_GetLPUARTClockFreq) refers to stm32l4xx_ll_rcc.o(i.RCC_GetPCLK1ClockFreq) for RCC_GetPCLK1ClockFreq
    stm32l4xx_ll_rcc.o(i.LL_RCC_GetRNGClockFreq) refers to stm32l4xx_ll_rcc.o(i.LL_RCC_PLLSAI1_IsReady) for LL_RCC_PLLSAI1_IsReady
    stm32l4xx_ll_rcc.o(i.LL_RCC_GetRNGClockFreq) refers to stm32l4xx_ll_rcc.o(i.RCC_PLLSAI1_GetFreqDomain_48M) for RCC_PLLSAI1_GetFreqDomain_48M
    stm32l4xx_ll_rcc.o(i.LL_RCC_GetRNGClockFreq) refers to stm32l4xx_ll_rcc.o(i.LL_RCC_PLL_IsReady) for LL_RCC_PLL_IsReady
    stm32l4xx_ll_rcc.o(i.LL_RCC_GetRNGClockFreq) refers to stm32l4xx_ll_rcc.o(i.RCC_PLL_GetFreqDomain_48M) for RCC_PLL_GetFreqDomain_48M
    stm32l4xx_ll_rcc.o(i.LL_RCC_GetRNGClockFreq) refers to stm32l4xx_ll_rcc.o(i.LL_RCC_MSI_IsReady) for LL_RCC_MSI_IsReady
    stm32l4xx_ll_rcc.o(i.LL_RCC_GetRNGClockFreq) refers to stm32l4xx_ll_rcc.o(i.LL_RCC_MSI_IsEnabledRangeSelect) for LL_RCC_MSI_IsEnabledRangeSelect
    stm32l4xx_ll_rcc.o(i.LL_RCC_GetRNGClockFreq) refers to stm32l4xx_ll_rcc.o(i.LL_RCC_MSI_GetRange) for LL_RCC_MSI_GetRange
    stm32l4xx_ll_rcc.o(i.LL_RCC_GetRNGClockFreq) refers to stm32l4xx_ll_rcc.o(i.LL_RCC_MSI_GetRangeAfterStandby) for LL_RCC_MSI_GetRangeAfterStandby
    stm32l4xx_ll_rcc.o(i.LL_RCC_GetRNGClockFreq) refers to stm32l4xx_ll_rcc.o(i.LL_RCC_HSI48_IsReady) for LL_RCC_HSI48_IsReady
    stm32l4xx_ll_rcc.o(i.LL_RCC_GetRNGClockFreq) refers to system_stm32l4xx.o(.constdata) for MSIRangeTable
    stm32l4xx_ll_rcc.o(i.LL_RCC_GetSAIClockFreq) refers to stm32l4xx_ll_rcc.o(i.LL_RCC_PLLSAI1_IsReady) for LL_RCC_PLLSAI1_IsReady
    stm32l4xx_ll_rcc.o(i.LL_RCC_GetSAIClockFreq) refers to stm32l4xx_ll_rcc.o(i.RCC_PLLSAI1_GetFreqDomain_SAI) for RCC_PLLSAI1_GetFreqDomain_SAI
    stm32l4xx_ll_rcc.o(i.LL_RCC_GetSAIClockFreq) refers to stm32l4xx_ll_rcc.o(i.LL_RCC_PLL_IsReady) for LL_RCC_PLL_IsReady
    stm32l4xx_ll_rcc.o(i.LL_RCC_GetSAIClockFreq) refers to stm32l4xx_ll_rcc.o(i.RCC_PLL_GetFreqDomain_SAI) for RCC_PLL_GetFreqDomain_SAI
    stm32l4xx_ll_rcc.o(i.LL_RCC_GetSDMMCClockFreq) refers to stm32l4xx_ll_rcc.o(i.LL_RCC_PLLSAI1_IsReady) for LL_RCC_PLLSAI1_IsReady
    stm32l4xx_ll_rcc.o(i.LL_RCC_GetSDMMCClockFreq) refers to stm32l4xx_ll_rcc.o(i.RCC_PLLSAI1_GetFreqDomain_48M) for RCC_PLLSAI1_GetFreqDomain_48M
    stm32l4xx_ll_rcc.o(i.LL_RCC_GetSDMMCClockFreq) refers to stm32l4xx_ll_rcc.o(i.LL_RCC_PLL_IsReady) for LL_RCC_PLL_IsReady
    stm32l4xx_ll_rcc.o(i.LL_RCC_GetSDMMCClockFreq) refers to stm32l4xx_ll_rcc.o(i.RCC_PLL_GetFreqDomain_48M) for RCC_PLL_GetFreqDomain_48M
    stm32l4xx_ll_rcc.o(i.LL_RCC_GetSDMMCClockFreq) refers to stm32l4xx_ll_rcc.o(i.LL_RCC_MSI_IsReady) for LL_RCC_MSI_IsReady
    stm32l4xx_ll_rcc.o(i.LL_RCC_GetSDMMCClockFreq) refers to stm32l4xx_ll_rcc.o(i.LL_RCC_MSI_IsEnabledRangeSelect) for LL_RCC_MSI_IsEnabledRangeSelect
    stm32l4xx_ll_rcc.o(i.LL_RCC_GetSDMMCClockFreq) refers to stm32l4xx_ll_rcc.o(i.LL_RCC_MSI_GetRange) for LL_RCC_MSI_GetRange
    stm32l4xx_ll_rcc.o(i.LL_RCC_GetSDMMCClockFreq) refers to stm32l4xx_ll_rcc.o(i.LL_RCC_MSI_GetRangeAfterStandby) for LL_RCC_MSI_GetRangeAfterStandby
    stm32l4xx_ll_rcc.o(i.LL_RCC_GetSDMMCClockFreq) refers to stm32l4xx_ll_rcc.o(i.LL_RCC_HSI48_IsReady) for LL_RCC_HSI48_IsReady
    stm32l4xx_ll_rcc.o(i.LL_RCC_GetSDMMCClockFreq) refers to system_stm32l4xx.o(.constdata) for MSIRangeTable
    stm32l4xx_ll_rcc.o(i.LL_RCC_GetSWPMIClockFreq) refers to stm32l4xx_ll_rcc.o(i.LL_RCC_HSI_IsReady) for LL_RCC_HSI_IsReady
    stm32l4xx_ll_rcc.o(i.LL_RCC_GetSWPMIClockFreq) refers to stm32l4xx_ll_rcc.o(i.RCC_GetSystemClockFreq) for RCC_GetSystemClockFreq
    stm32l4xx_ll_rcc.o(i.LL_RCC_GetSWPMIClockFreq) refers to stm32l4xx_ll_rcc.o(i.RCC_GetHCLKClockFreq) for RCC_GetHCLKClockFreq
    stm32l4xx_ll_rcc.o(i.LL_RCC_GetSWPMIClockFreq) refers to stm32l4xx_ll_rcc.o(i.RCC_GetPCLK1ClockFreq) for RCC_GetPCLK1ClockFreq
    stm32l4xx_ll_rcc.o(i.LL_RCC_GetSystemClocksFreq) refers to stm32l4xx_ll_rcc.o(i.RCC_GetSystemClockFreq) for RCC_GetSystemClockFreq
    stm32l4xx_ll_rcc.o(i.LL_RCC_GetSystemClocksFreq) refers to stm32l4xx_ll_rcc.o(i.RCC_GetHCLKClockFreq) for RCC_GetHCLKClockFreq
    stm32l4xx_ll_rcc.o(i.LL_RCC_GetSystemClocksFreq) refers to stm32l4xx_ll_rcc.o(i.RCC_GetPCLK1ClockFreq) for RCC_GetPCLK1ClockFreq
    stm32l4xx_ll_rcc.o(i.LL_RCC_GetSystemClocksFreq) refers to stm32l4xx_ll_rcc.o(i.RCC_GetPCLK2ClockFreq) for RCC_GetPCLK2ClockFreq
    stm32l4xx_ll_rcc.o(i.LL_RCC_GetUSARTClockFreq) refers to stm32l4xx_ll_rcc.o(i.LL_RCC_GetUSARTClockSource) for LL_RCC_GetUSARTClockSource
    stm32l4xx_ll_rcc.o(i.LL_RCC_GetUSARTClockFreq) refers to stm32l4xx_ll_rcc.o(i.RCC_GetSystemClockFreq) for RCC_GetSystemClockFreq
    stm32l4xx_ll_rcc.o(i.LL_RCC_GetUSARTClockFreq) refers to stm32l4xx_ll_rcc.o(i.LL_RCC_HSI_IsReady) for LL_RCC_HSI_IsReady
    stm32l4xx_ll_rcc.o(i.LL_RCC_GetUSARTClockFreq) refers to stm32l4xx_ll_rcc.o(i.LL_RCC_LSE_IsReady) for LL_RCC_LSE_IsReady
    stm32l4xx_ll_rcc.o(i.LL_RCC_GetUSARTClockFreq) refers to stm32l4xx_ll_rcc.o(i.RCC_GetHCLKClockFreq) for RCC_GetHCLKClockFreq
    stm32l4xx_ll_rcc.o(i.LL_RCC_GetUSARTClockFreq) refers to stm32l4xx_ll_rcc.o(i.RCC_GetPCLK2ClockFreq) for RCC_GetPCLK2ClockFreq
    stm32l4xx_ll_rcc.o(i.LL_RCC_GetUSARTClockFreq) refers to stm32l4xx_ll_rcc.o(i.RCC_GetPCLK1ClockFreq) for RCC_GetPCLK1ClockFreq
    stm32l4xx_ll_rcc.o(i.RCC_GetHCLKClockFreq) refers to system_stm32l4xx.o(.constdata) for AHBPrescTable
    stm32l4xx_ll_rcc.o(i.RCC_GetPCLK1ClockFreq) refers to system_stm32l4xx.o(.constdata) for APBPrescTable
    stm32l4xx_ll_rcc.o(i.RCC_GetPCLK2ClockFreq) refers to system_stm32l4xx.o(.constdata) for APBPrescTable
    stm32l4xx_ll_rcc.o(i.RCC_GetSystemClockFreq) refers to stm32l4xx_ll_rcc.o(i.LL_RCC_MSI_IsEnabledRangeSelect) for LL_RCC_MSI_IsEnabledRangeSelect
    stm32l4xx_ll_rcc.o(i.RCC_GetSystemClockFreq) refers to stm32l4xx_ll_rcc.o(i.LL_RCC_MSI_GetRange) for LL_RCC_MSI_GetRange
    stm32l4xx_ll_rcc.o(i.RCC_GetSystemClockFreq) refers to stm32l4xx_ll_rcc.o(i.LL_RCC_MSI_GetRangeAfterStandby) for LL_RCC_MSI_GetRangeAfterStandby
    stm32l4xx_ll_rcc.o(i.RCC_GetSystemClockFreq) refers to stm32l4xx_ll_rcc.o(i.RCC_PLL_GetFreqDomain_SYS) for RCC_PLL_GetFreqDomain_SYS
    stm32l4xx_ll_rcc.o(i.RCC_GetSystemClockFreq) refers to system_stm32l4xx.o(.constdata) for MSIRangeTable
    stm32l4xx_ll_rcc.o(i.RCC_PLLSAI1_GetFreqDomain_48M) refers to stm32l4xx_ll_rcc.o(i.LL_RCC_PLL_GetMainSource) for LL_RCC_PLL_GetMainSource
    stm32l4xx_ll_rcc.o(i.RCC_PLLSAI1_GetFreqDomain_48M) refers to stm32l4xx_ll_rcc.o(i.LL_RCC_MSI_IsEnabledRangeSelect) for LL_RCC_MSI_IsEnabledRangeSelect
    stm32l4xx_ll_rcc.o(i.RCC_PLLSAI1_GetFreqDomain_48M) refers to stm32l4xx_ll_rcc.o(i.LL_RCC_MSI_GetRange) for LL_RCC_MSI_GetRange
    stm32l4xx_ll_rcc.o(i.RCC_PLLSAI1_GetFreqDomain_48M) refers to stm32l4xx_ll_rcc.o(i.LL_RCC_MSI_GetRangeAfterStandby) for LL_RCC_MSI_GetRangeAfterStandby
    stm32l4xx_ll_rcc.o(i.RCC_PLLSAI1_GetFreqDomain_48M) refers to stm32l4xx_ll_rcc.o(i.LL_RCC_PLL_GetDivider) for LL_RCC_PLL_GetDivider
    stm32l4xx_ll_rcc.o(i.RCC_PLLSAI1_GetFreqDomain_48M) refers to stm32l4xx_ll_rcc.o(i.LL_RCC_PLLSAI1_GetN) for LL_RCC_PLLSAI1_GetN
    stm32l4xx_ll_rcc.o(i.RCC_PLLSAI1_GetFreqDomain_48M) refers to system_stm32l4xx.o(.constdata) for MSIRangeTable
    stm32l4xx_ll_rcc.o(i.RCC_PLLSAI1_GetFreqDomain_ADC) refers to stm32l4xx_ll_rcc.o(i.LL_RCC_PLL_GetMainSource) for LL_RCC_PLL_GetMainSource
    stm32l4xx_ll_rcc.o(i.RCC_PLLSAI1_GetFreqDomain_ADC) refers to stm32l4xx_ll_rcc.o(i.LL_RCC_MSI_IsEnabledRangeSelect) for LL_RCC_MSI_IsEnabledRangeSelect
    stm32l4xx_ll_rcc.o(i.RCC_PLLSAI1_GetFreqDomain_ADC) refers to stm32l4xx_ll_rcc.o(i.LL_RCC_MSI_GetRange) for LL_RCC_MSI_GetRange
    stm32l4xx_ll_rcc.o(i.RCC_PLLSAI1_GetFreqDomain_ADC) refers to stm32l4xx_ll_rcc.o(i.LL_RCC_MSI_GetRangeAfterStandby) for LL_RCC_MSI_GetRangeAfterStandby
    stm32l4xx_ll_rcc.o(i.RCC_PLLSAI1_GetFreqDomain_ADC) refers to stm32l4xx_ll_rcc.o(i.LL_RCC_PLL_GetDivider) for LL_RCC_PLL_GetDivider
    stm32l4xx_ll_rcc.o(i.RCC_PLLSAI1_GetFreqDomain_ADC) refers to stm32l4xx_ll_rcc.o(i.LL_RCC_PLLSAI1_GetN) for LL_RCC_PLLSAI1_GetN
    stm32l4xx_ll_rcc.o(i.RCC_PLLSAI1_GetFreqDomain_ADC) refers to system_stm32l4xx.o(.constdata) for MSIRangeTable
    stm32l4xx_ll_rcc.o(i.RCC_PLLSAI1_GetFreqDomain_SAI) refers to stm32l4xx_ll_rcc.o(i.LL_RCC_PLL_GetMainSource) for LL_RCC_PLL_GetMainSource
    stm32l4xx_ll_rcc.o(i.RCC_PLLSAI1_GetFreqDomain_SAI) refers to stm32l4xx_ll_rcc.o(i.LL_RCC_MSI_IsEnabledRangeSelect) for LL_RCC_MSI_IsEnabledRangeSelect
    stm32l4xx_ll_rcc.o(i.RCC_PLLSAI1_GetFreqDomain_SAI) refers to stm32l4xx_ll_rcc.o(i.LL_RCC_MSI_GetRange) for LL_RCC_MSI_GetRange
    stm32l4xx_ll_rcc.o(i.RCC_PLLSAI1_GetFreqDomain_SAI) refers to stm32l4xx_ll_rcc.o(i.LL_RCC_MSI_GetRangeAfterStandby) for LL_RCC_MSI_GetRangeAfterStandby
    stm32l4xx_ll_rcc.o(i.RCC_PLLSAI1_GetFreqDomain_SAI) refers to stm32l4xx_ll_rcc.o(i.LL_RCC_PLL_GetDivider) for LL_RCC_PLL_GetDivider
    stm32l4xx_ll_rcc.o(i.RCC_PLLSAI1_GetFreqDomain_SAI) refers to stm32l4xx_ll_rcc.o(i.LL_RCC_PLLSAI1_GetN) for LL_RCC_PLLSAI1_GetN
    stm32l4xx_ll_rcc.o(i.RCC_PLLSAI1_GetFreqDomain_SAI) refers to system_stm32l4xx.o(.constdata) for MSIRangeTable
    stm32l4xx_ll_rcc.o(i.RCC_PLL_GetFreqDomain_48M) refers to stm32l4xx_ll_rcc.o(i.LL_RCC_PLL_GetMainSource) for LL_RCC_PLL_GetMainSource
    stm32l4xx_ll_rcc.o(i.RCC_PLL_GetFreqDomain_48M) refers to stm32l4xx_ll_rcc.o(i.LL_RCC_MSI_IsEnabledRangeSelect) for LL_RCC_MSI_IsEnabledRangeSelect
    stm32l4xx_ll_rcc.o(i.RCC_PLL_GetFreqDomain_48M) refers to stm32l4xx_ll_rcc.o(i.LL_RCC_MSI_GetRange) for LL_RCC_MSI_GetRange
    stm32l4xx_ll_rcc.o(i.RCC_PLL_GetFreqDomain_48M) refers to stm32l4xx_ll_rcc.o(i.LL_RCC_MSI_GetRangeAfterStandby) for LL_RCC_MSI_GetRangeAfterStandby
    stm32l4xx_ll_rcc.o(i.RCC_PLL_GetFreqDomain_48M) refers to stm32l4xx_ll_rcc.o(i.LL_RCC_PLL_GetDivider) for LL_RCC_PLL_GetDivider
    stm32l4xx_ll_rcc.o(i.RCC_PLL_GetFreqDomain_48M) refers to stm32l4xx_ll_rcc.o(i.LL_RCC_PLL_GetN) for LL_RCC_PLL_GetN
    stm32l4xx_ll_rcc.o(i.RCC_PLL_GetFreqDomain_48M) refers to system_stm32l4xx.o(.constdata) for MSIRangeTable
    stm32l4xx_ll_rcc.o(i.RCC_PLL_GetFreqDomain_SAI) refers to stm32l4xx_ll_rcc.o(i.LL_RCC_PLL_GetMainSource) for LL_RCC_PLL_GetMainSource
    stm32l4xx_ll_rcc.o(i.RCC_PLL_GetFreqDomain_SAI) refers to stm32l4xx_ll_rcc.o(i.LL_RCC_MSI_IsEnabledRangeSelect) for LL_RCC_MSI_IsEnabledRangeSelect
    stm32l4xx_ll_rcc.o(i.RCC_PLL_GetFreqDomain_SAI) refers to stm32l4xx_ll_rcc.o(i.LL_RCC_MSI_GetRange) for LL_RCC_MSI_GetRange
    stm32l4xx_ll_rcc.o(i.RCC_PLL_GetFreqDomain_SAI) refers to stm32l4xx_ll_rcc.o(i.LL_RCC_MSI_GetRangeAfterStandby) for LL_RCC_MSI_GetRangeAfterStandby
    stm32l4xx_ll_rcc.o(i.RCC_PLL_GetFreqDomain_SAI) refers to stm32l4xx_ll_rcc.o(i.LL_RCC_PLL_GetDivider) for LL_RCC_PLL_GetDivider
    stm32l4xx_ll_rcc.o(i.RCC_PLL_GetFreqDomain_SAI) refers to stm32l4xx_ll_rcc.o(i.LL_RCC_PLL_GetN) for LL_RCC_PLL_GetN
    stm32l4xx_ll_rcc.o(i.RCC_PLL_GetFreqDomain_SAI) refers to system_stm32l4xx.o(.constdata) for MSIRangeTable
    stm32l4xx_ll_rcc.o(i.RCC_PLL_GetFreqDomain_SYS) refers to stm32l4xx_ll_rcc.o(i.LL_RCC_PLL_GetMainSource) for LL_RCC_PLL_GetMainSource
    stm32l4xx_ll_rcc.o(i.RCC_PLL_GetFreqDomain_SYS) refers to stm32l4xx_ll_rcc.o(i.LL_RCC_MSI_IsEnabledRangeSelect) for LL_RCC_MSI_IsEnabledRangeSelect
    stm32l4xx_ll_rcc.o(i.RCC_PLL_GetFreqDomain_SYS) refers to stm32l4xx_ll_rcc.o(i.LL_RCC_MSI_GetRange) for LL_RCC_MSI_GetRange
    stm32l4xx_ll_rcc.o(i.RCC_PLL_GetFreqDomain_SYS) refers to stm32l4xx_ll_rcc.o(i.LL_RCC_MSI_GetRangeAfterStandby) for LL_RCC_MSI_GetRangeAfterStandby
    stm32l4xx_ll_rcc.o(i.RCC_PLL_GetFreqDomain_SYS) refers to stm32l4xx_ll_rcc.o(i.LL_RCC_PLL_GetDivider) for LL_RCC_PLL_GetDivider
    stm32l4xx_ll_rcc.o(i.RCC_PLL_GetFreqDomain_SYS) refers to stm32l4xx_ll_rcc.o(i.LL_RCC_PLL_GetN) for LL_RCC_PLL_GetN
    stm32l4xx_ll_rcc.o(i.RCC_PLL_GetFreqDomain_SYS) refers to system_stm32l4xx.o(.constdata) for MSIRangeTable
    stm32l4xx_ll_spi.o(i.LL_SPI_DeInit) refers to stm32l4xx_ll_spi.o(i.LL_APB1_GRP1_ForceReset) for LL_APB1_GRP1_ForceReset
    stm32l4xx_ll_spi.o(i.LL_SPI_DeInit) refers to stm32l4xx_ll_spi.o(i.LL_APB1_GRP1_ReleaseReset) for LL_APB1_GRP1_ReleaseReset
    stm32l4xx_ll_tim.o(i.LL_TIM_DeInit) refers to stm32l4xx_ll_tim.o(i.LL_APB2_GRP1_ForceReset) for LL_APB2_GRP1_ForceReset
    stm32l4xx_ll_tim.o(i.LL_TIM_DeInit) refers to stm32l4xx_ll_tim.o(i.LL_APB2_GRP1_ReleaseReset) for LL_APB2_GRP1_ReleaseReset
    stm32l4xx_ll_tim.o(i.LL_TIM_DeInit) refers to stm32l4xx_ll_tim.o(i.LL_APB1_GRP1_ForceReset) for LL_APB1_GRP1_ForceReset
    stm32l4xx_ll_tim.o(i.LL_TIM_DeInit) refers to stm32l4xx_ll_tim.o(i.LL_APB1_GRP1_ReleaseReset) for LL_APB1_GRP1_ReleaseReset
    stm32l4xx_ll_tim.o(i.LL_TIM_HALLSENSOR_Init) refers to stm32l4xx_ll_tim.o(i.LL_TIM_OC_SetCompareCH2) for LL_TIM_OC_SetCompareCH2
    stm32l4xx_ll_tim.o(i.LL_TIM_IC_Init) refers to stm32l4xx_ll_tim.o(i.IC1Config) for IC1Config
    stm32l4xx_ll_tim.o(i.LL_TIM_IC_Init) refers to stm32l4xx_ll_tim.o(i.IC2Config) for IC2Config
    stm32l4xx_ll_tim.o(i.LL_TIM_IC_Init) refers to stm32l4xx_ll_tim.o(i.IC3Config) for IC3Config
    stm32l4xx_ll_tim.o(i.LL_TIM_IC_Init) refers to stm32l4xx_ll_tim.o(i.IC4Config) for IC4Config
    stm32l4xx_ll_tim.o(i.LL_TIM_OC_Init) refers to stm32l4xx_ll_tim.o(i.OC1Config) for OC1Config
    stm32l4xx_ll_tim.o(i.LL_TIM_OC_Init) refers to stm32l4xx_ll_tim.o(i.OC2Config) for OC2Config
    stm32l4xx_ll_tim.o(i.LL_TIM_OC_Init) refers to stm32l4xx_ll_tim.o(i.OC3Config) for OC3Config
    stm32l4xx_ll_tim.o(i.LL_TIM_OC_Init) refers to stm32l4xx_ll_tim.o(i.OC4Config) for OC4Config
    stm32l4xx_ll_tim.o(i.LL_TIM_OC_Init) refers to stm32l4xx_ll_tim.o(i.OC5Config) for OC5Config
    stm32l4xx_ll_tim.o(i.LL_TIM_OC_Init) refers to stm32l4xx_ll_tim.o(i.OC6Config) for OC6Config
    stm32l4xx_ll_tim.o(i.OC2Config) refers to stm32l4xx_ll_tim.o(i.LL_TIM_OC_SetCompareCH2) for LL_TIM_OC_SetCompareCH2
    stm32l4xx_ll_usart.o(i.LL_USART_ClockInit) refers to stm32l4xx_ll_usart.o(i.LL_USART_IsEnabled) for LL_USART_IsEnabled
    stm32l4xx_ll_usart.o(i.LL_USART_DeInit) refers to stm32l4xx_ll_usart.o(i.LL_APB1_GRP1_ForceReset) for LL_APB1_GRP1_ForceReset
    stm32l4xx_ll_usart.o(i.LL_USART_DeInit) refers to stm32l4xx_ll_usart.o(i.LL_APB1_GRP1_ReleaseReset) for LL_APB1_GRP1_ReleaseReset
    stm32l4xx_ll_usart.o(i.LL_USART_Init) refers to stm32l4xx_ll_usart.o(i.LL_USART_IsEnabled) for LL_USART_IsEnabled
    stm32l4xx_ll_usart.o(i.LL_USART_Init) refers to stm32l4xx_ll_rcc.o(i.LL_RCC_GetUSARTClockFreq) for LL_RCC_GetUSARTClockFreq
    stm32l4xx_ll_utils.o(i.LL_PLL_ConfigSystemClock_HSE) refers to stm32l4xx_ll_utils.o(i.UTILS_PLL_IsBusy) for UTILS_PLL_IsBusy
    stm32l4xx_ll_utils.o(i.LL_PLL_ConfigSystemClock_HSE) refers to stm32l4xx_ll_utils.o(i.UTILS_GetPLLOutputFrequency) for UTILS_GetPLLOutputFrequency
    stm32l4xx_ll_utils.o(i.LL_PLL_ConfigSystemClock_HSE) refers to stm32l4xx_ll_utils.o(i.LL_RCC_HSE_IsReady) for LL_RCC_HSE_IsReady
    stm32l4xx_ll_utils.o(i.LL_PLL_ConfigSystemClock_HSE) refers to stm32l4xx_ll_utils.o(i.LL_RCC_PLL_ConfigDomain_SYS) for LL_RCC_PLL_ConfigDomain_SYS
    stm32l4xx_ll_utils.o(i.LL_PLL_ConfigSystemClock_HSE) refers to stm32l4xx_ll_utils.o(i.UTILS_EnablePLLAndSwitchSystem) for UTILS_EnablePLLAndSwitchSystem
    stm32l4xx_ll_utils.o(i.LL_PLL_ConfigSystemClock_HSI) refers to stm32l4xx_ll_utils.o(i.UTILS_PLL_IsBusy) for UTILS_PLL_IsBusy
    stm32l4xx_ll_utils.o(i.LL_PLL_ConfigSystemClock_HSI) refers to stm32l4xx_ll_utils.o(i.UTILS_GetPLLOutputFrequency) for UTILS_GetPLLOutputFrequency
    stm32l4xx_ll_utils.o(i.LL_PLL_ConfigSystemClock_HSI) refers to stm32l4xx_ll_utils.o(i.LL_RCC_HSI_IsReady) for LL_RCC_HSI_IsReady
    stm32l4xx_ll_utils.o(i.LL_PLL_ConfigSystemClock_HSI) refers to stm32l4xx_ll_utils.o(i.LL_RCC_PLL_ConfigDomain_SYS) for LL_RCC_PLL_ConfigDomain_SYS
    stm32l4xx_ll_utils.o(i.LL_PLL_ConfigSystemClock_HSI) refers to stm32l4xx_ll_utils.o(i.UTILS_EnablePLLAndSwitchSystem) for UTILS_EnablePLLAndSwitchSystem
    stm32l4xx_ll_utils.o(i.LL_PLL_ConfigSystemClock_MSI) refers to stm32l4xx_ll_utils.o(i.UTILS_PLL_IsBusy) for UTILS_PLL_IsBusy
    stm32l4xx_ll_utils.o(i.LL_PLL_ConfigSystemClock_MSI) refers to stm32l4xx_ll_utils.o(i.LL_RCC_MSI_IsEnabledRangeSelect) for LL_RCC_MSI_IsEnabledRangeSelect
    stm32l4xx_ll_utils.o(i.LL_PLL_ConfigSystemClock_MSI) refers to stm32l4xx_ll_utils.o(i.UTILS_GetPLLOutputFrequency) for UTILS_GetPLLOutputFrequency
    stm32l4xx_ll_utils.o(i.LL_PLL_ConfigSystemClock_MSI) refers to stm32l4xx_ll_utils.o(i.LL_RCC_MSI_IsReady) for LL_RCC_MSI_IsReady
    stm32l4xx_ll_utils.o(i.LL_PLL_ConfigSystemClock_MSI) refers to stm32l4xx_ll_utils.o(i.LL_RCC_PLL_ConfigDomain_SYS) for LL_RCC_PLL_ConfigDomain_SYS
    stm32l4xx_ll_utils.o(i.LL_PLL_ConfigSystemClock_MSI) refers to stm32l4xx_ll_utils.o(i.UTILS_EnablePLLAndSwitchSystem) for UTILS_EnablePLLAndSwitchSystem
    stm32l4xx_ll_utils.o(i.LL_PLL_ConfigSystemClock_MSI) refers to system_stm32l4xx.o(.constdata) for MSIRangeTable
    stm32l4xx_ll_utils.o(i.LL_SetSystemCoreClock) refers to system_stm32l4xx.o(.data) for SystemCoreClock
    stm32l4xx_ll_utils.o(i.UTILS_EnablePLLAndSwitchSystem) refers to stm32l4xx_ll_utils.o(i.UTILS_SetFlashLatency) for UTILS_SetFlashLatency
    stm32l4xx_ll_utils.o(i.UTILS_EnablePLLAndSwitchSystem) refers to stm32l4xx_ll_utils.o(i.LL_RCC_PLL_IsReady) for LL_RCC_PLL_IsReady
    stm32l4xx_ll_utils.o(i.UTILS_EnablePLLAndSwitchSystem) refers to stm32l4xx_ll_utils.o(i.LL_SetSystemCoreClock) for LL_SetSystemCoreClock
    stm32l4xx_ll_utils.o(i.UTILS_EnablePLLAndSwitchSystem) refers to system_stm32l4xx.o(.constdata) for AHBPrescTable
    stm32l4xx_ll_utils.o(i.UTILS_EnablePLLAndSwitchSystem) refers to system_stm32l4xx.o(.data) for SystemCoreClock
    stm32l4xx_ll_utils.o(i.UTILS_PLL_IsBusy) refers to stm32l4xx_ll_utils.o(i.LL_RCC_PLL_IsReady) for LL_RCC_PLL_IsReady
    motion_tl.o(.text.ST_XLTilt_Enable) refers to anon$$obj.o(customTilt) for customTilt
    motion_tl.o(.text.ST_XLTilt_Run) refers to f2d.o(.text) for __aeabi_f2d
    motion_tl.o(.text.ST_XLTilt_Run) refers to sqrt.o(i.sqrt) for sqrt
    motion_tl.o(.text.ST_XLTilt_Run) refers to d2f.o(.text) for __aeabi_d2f
    motion_tl.o(.text.ST_XLTilt_Run) refers to anon$$obj.o(customTilt) for customTilt
    motion_tl.o(.text.ST_XLTilt_GetAngles) refers to f2d.o(.text) for __aeabi_f2d
    motion_tl.o(.text.ST_XLTilt_GetAngles) refers to atan2.o(i.atan2) for atan2
    motion_tl.o(.text.ST_XLTilt_GetAngles) refers to dmul.o(.text) for __aeabi_dmul
    motion_tl.o(.text.ST_XLTilt_GetAngles) refers to d2f.o(.text) for __aeabi_d2f
    motion_tl.o(.text.ST_XLTilt_GetAngles) refers to asin.o(i.asin) for asin
    motion_tl.o(.text.ST_XLTilt_GetAngles) refers to acos.o(i.acos) for acos
    motion_tl.o(.text.ST_XLTilt_GetAngles) refers to anon$$obj.o(customTilt) for customTilt
    motion_tl.o(.text.ST_XLTilt_GetAnglesAtan) refers to f2d.o(.text) for __aeabi_f2d
    motion_tl.o(.text.ST_XLTilt_GetAnglesAtan) refers to dmul.o(.text) for __aeabi_dmul
    motion_tl.o(.text.ST_XLTilt_GetAnglesAtan) refers to dadd.o(.text) for __aeabi_dadd
    motion_tl.o(.text.ST_XLTilt_GetAnglesAtan) refers to sqrt.o(i.sqrt) for sqrt
    motion_tl.o(.text.ST_XLTilt_GetAnglesAtan) refers to ddiv.o(.text) for __aeabi_ddiv
    motion_tl.o(.text.ST_XLTilt_GetAnglesAtan) refers to atan.o(i.atan) for atan
    motion_tl.o(.text.ST_XLTilt_GetAnglesAtan) refers to d2f.o(.text) for __aeabi_d2f
    motion_tl.o(.text.ST_XLTilt_GetAnglesAtan) refers to anon$$obj.o(customTilt) for customTilt
    motion_tl.o(.text.ST_XLTilt_libVer) refers to motion_tl.o(.rodata) for [Anonymous Symbol]
    motion_tl.o(.text.MotionTL_Initialize) refers to motion_tl.o(.bss) for [Anonymous Symbol]
    motion_tl.o(.text.MotionTL_SetOrientation_Acc) refers to motion_tl.o(.bss) for [Anonymous Symbol]
    motion_tl.o(.text.MotionTL_Update) refers to f2d.o(.text) for __aeabi_f2d
    motion_tl.o(.text.MotionTL_Update) refers to sqrt.o(i.sqrt) for sqrt
    motion_tl.o(.text.MotionTL_Update) refers to d2f.o(.text) for __aeabi_d2f
    motion_tl.o(.text.MotionTL_Update) refers to motion_tl.o(.bss) for [Anonymous Symbol]
    motion_tl.o(.text.MotionTL_Update) refers to motion_tl.o(.data) for [Anonymous Symbol]
    motion_tl.o(.text.MotionTL_Update) refers to anon$$obj.o(customTilt) for customTilt
    motion_tl.o(.text.MotionTL_GetAngles) refers to f2d.o(.text) for __aeabi_f2d
    motion_tl.o(.text.MotionTL_GetAngles) refers to atan2.o(i.atan2) for atan2
    motion_tl.o(.text.MotionTL_GetAngles) refers to dmul.o(.text) for __aeabi_dmul
    motion_tl.o(.text.MotionTL_GetAngles) refers to d2f.o(.text) for __aeabi_d2f
    motion_tl.o(.text.MotionTL_GetAngles) refers to asin.o(i.asin) for asin
    motion_tl.o(.text.MotionTL_GetAngles) refers to acos.o(i.acos) for acos
    motion_tl.o(.text.MotionTL_GetAngles) refers to motion_tl.o(.bss) for [Anonymous Symbol]
    motion_tl.o(.text.MotionTL_GetAngles) refers to anon$$obj.o(customTilt) for customTilt
    motion_tl.o(.text.MotionTL_GetAngles) refers to motion_tl.o(.text.ST_XLTilt_GetAnglesAtan) for ST_XLTilt_GetAnglesAtan
    motion_tl.o(.text.MotionTL_GetLibVersion) refers to motion_tl.o(.bss) for [Anonymous Symbol]
    motion_tl.o(.text.MotionTL_GetLibVersion) refers to motion_tl.o(.rodata) for [Anonymous Symbol]
    motion_tl.o(.text.MotionTL_CalibratePosition) refers to motion_tl.o(.bss) for [Anonymous Symbol]
    motion_tl.o(.text.MotionTL_CalibratePosition) refers to motion_tl.o(.data) for [Anonymous Symbol]
    motion_tl.o(.text.MotionTL_GetCalValues) refers to motion_tl.o(.bss) for [Anonymous Symbol]
    motion_tl.o(.text.MotionTL_GetCalValues) refers to motion_tl.o(.data) for [Anonymous Symbol]
    motion_tl.o(.text.MotionTL_SetCalValues) refers to motion_tl.o(.bss) for [Anonymous Symbol]
    motion_tl.o(.text.MotionTL_SetCalValues) refers to motion_tl.o(.data) for [Anonymous Symbol]
    cxa_guard_acquire.o(.ARM.exidx) refers to cxa_guard_acquire.o(i.__cxa_guard_acquire) for i.__cxa_guard_acquire
    cxa_guard_release.o(.ARM.exidx) refers to cxa_guard_release.o(i.__cxa_guard_release) for i.__cxa_guard_release
    acos.o(i.__hardfp_acos) refers (Special) to iusefp.o(.text) for __I$use$fp
    acos.o(i.__hardfp_acos) refers to dunder.o(i.__mathlib_dbl_infnan) for __mathlib_dbl_infnan
    acos.o(i.__hardfp_acos) refers to errno.o(i.__set_errno) for __set_errno
    acos.o(i.__hardfp_acos) refers to dunder.o(i.__mathlib_dbl_invalid) for __mathlib_dbl_invalid
    acos.o(i.__hardfp_acos) refers to dmul.o(.text) for __aeabi_dmul
    acos.o(i.__hardfp_acos) refers to poly.o(i.__kernel_poly) for __kernel_poly
    acos.o(i.__hardfp_acos) refers to dadd.o(.text) for __aeabi_dadd
    acos.o(i.__hardfp_acos) refers to ddiv.o(.text) for __aeabi_ddiv
    acos.o(i.__hardfp_acos) refers to sqrt.o(i.sqrt) for sqrt
    acos.o(i.__hardfp_acos) refers to acos.o(.constdata) for .constdata
    acos.o(i.__softfp_acos) refers (Special) to iusefp.o(.text) for __I$use$fp
    acos.o(i.__softfp_acos) refers to acos.o(i.__hardfp_acos) for __hardfp_acos
    acos.o(i.acos) refers (Special) to iusefp.o(.text) for __I$use$fp
    acos.o(i.acos) refers to acos.o(i.__hardfp_acos) for __hardfp_acos
    acos.o(.constdata) refers (Special) to iusefp.o(.text) for __I$use$fp
    acos_x.o(i.____hardfp_acos$lsc) refers (Special) to iusefp.o(.text) for __I$use$fp
    acos_x.o(i.____hardfp_acos$lsc) refers to dunder.o(i.__mathlib_dbl_infnan) for __mathlib_dbl_infnan
    acos_x.o(i.____hardfp_acos$lsc) refers to errno.o(i.__set_errno) for __set_errno
    acos_x.o(i.____hardfp_acos$lsc) refers to dmul.o(.text) for __aeabi_dmul
    acos_x.o(i.____hardfp_acos$lsc) refers to poly.o(i.__kernel_poly) for __kernel_poly
    acos_x.o(i.____hardfp_acos$lsc) refers to dadd.o(.text) for __aeabi_dadd
    acos_x.o(i.____hardfp_acos$lsc) refers to ddiv.o(.text) for __aeabi_ddiv
    acos_x.o(i.____hardfp_acos$lsc) refers to sqrt.o(i.sqrt) for sqrt
    acos_x.o(i.____hardfp_acos$lsc) refers to acos_x.o(.constdata) for .constdata
    acos_x.o(i.____softfp_acos$lsc) refers (Special) to iusefp.o(.text) for __I$use$fp
    acos_x.o(i.____softfp_acos$lsc) refers to acos_x.o(i.____hardfp_acos$lsc) for ____hardfp_acos$lsc
    acos_x.o(i.__acos$lsc) refers (Special) to iusefp.o(.text) for __I$use$fp
    acos_x.o(i.__acos$lsc) refers to acos_x.o(i.____hardfp_acos$lsc) for ____hardfp_acos$lsc
    acos_x.o(.constdata) refers (Special) to iusefp.o(.text) for __I$use$fp
    asin.o(i.__hardfp_asin) refers (Special) to iusefp.o(.text) for __I$use$fp
    asin.o(i.__hardfp_asin) refers to dunder.o(i.__mathlib_dbl_infnan) for __mathlib_dbl_infnan
    asin.o(i.__hardfp_asin) refers to dmul.o(.text) for __aeabi_dmul
    asin.o(i.__hardfp_asin) refers to dadd.o(.text) for __aeabi_dadd
    asin.o(i.__hardfp_asin) refers to errno.o(i.__set_errno) for __set_errno
    asin.o(i.__hardfp_asin) refers to dunder.o(i.__mathlib_dbl_invalid) for __mathlib_dbl_invalid
    asin.o(i.__hardfp_asin) refers to fpclassify.o(i.__ARM_fpclassify) for __ARM_fpclassify
    asin.o(i.__hardfp_asin) refers to dunder.o(i.__mathlib_dbl_underflow) for __mathlib_dbl_underflow
    asin.o(i.__hardfp_asin) refers to poly.o(i.__kernel_poly) for __kernel_poly
    asin.o(i.__hardfp_asin) refers to ddiv.o(.text) for __aeabi_ddiv
    asin.o(i.__hardfp_asin) refers to fabs.o(i.fabs) for fabs
    asin.o(i.__hardfp_asin) refers to sqrt.o(i.sqrt) for sqrt
    asin.o(i.__hardfp_asin) refers to asin.o(.constdata) for .constdata
    asin.o(i.__softfp_asin) refers (Special) to iusefp.o(.text) for __I$use$fp
    asin.o(i.__softfp_asin) refers to asin.o(i.__hardfp_asin) for __hardfp_asin
    asin.o(i.asin) refers (Special) to iusefp.o(.text) for __I$use$fp
    asin.o(i.asin) refers to asin.o(i.__hardfp_asin) for __hardfp_asin
    asin.o(.constdata) refers (Special) to iusefp.o(.text) for __I$use$fp
    asin_x.o(i.____hardfp_asin$lsc) refers (Special) to iusefp.o(.text) for __I$use$fp
    asin_x.o(i.____hardfp_asin$lsc) refers to dunder.o(i.__mathlib_dbl_infnan) for __mathlib_dbl_infnan
    asin_x.o(i.____hardfp_asin$lsc) refers to dmul.o(.text) for __aeabi_dmul
    asin_x.o(i.____hardfp_asin$lsc) refers to dadd.o(.text) for __aeabi_dadd
    asin_x.o(i.____hardfp_asin$lsc) refers to errno.o(i.__set_errno) for __set_errno
    asin_x.o(i.____hardfp_asin$lsc) refers to poly.o(i.__kernel_poly) for __kernel_poly
    asin_x.o(i.____hardfp_asin$lsc) refers to ddiv.o(.text) for __aeabi_ddiv
    asin_x.o(i.____hardfp_asin$lsc) refers to fabs.o(i.fabs) for fabs
    asin_x.o(i.____hardfp_asin$lsc) refers to sqrt.o(i.sqrt) for sqrt
    asin_x.o(i.____hardfp_asin$lsc) refers to asin_x.o(.constdata) for .constdata
    asin_x.o(i.____softfp_asin$lsc) refers (Special) to iusefp.o(.text) for __I$use$fp
    asin_x.o(i.____softfp_asin$lsc) refers to asin_x.o(i.____hardfp_asin$lsc) for ____hardfp_asin$lsc
    asin_x.o(i.__asin$lsc) refers (Special) to iusefp.o(.text) for __I$use$fp
    asin_x.o(i.__asin$lsc) refers to asin_x.o(i.____hardfp_asin$lsc) for ____hardfp_asin$lsc
    asin_x.o(.constdata) refers (Special) to iusefp.o(.text) for __I$use$fp
    atan.o(i.__hardfp_atan) refers (Special) to iusefp.o(.text) for __I$use$fp
    atan.o(i.__hardfp_atan) refers to dunder.o(i.__mathlib_dbl_infnan) for __mathlib_dbl_infnan
    atan.o(i.__hardfp_atan) refers to fpclassify.o(i.__ARM_fpclassify) for __ARM_fpclassify
    atan.o(i.__hardfp_atan) refers to dunder.o(i.__mathlib_dbl_underflow) for __mathlib_dbl_underflow
    atan.o(i.__hardfp_atan) refers to fabs.o(i.fabs) for fabs
    atan.o(i.__hardfp_atan) refers to dadd.o(.text) for __aeabi_dadd
    atan.o(i.__hardfp_atan) refers to dmul.o(.text) for __aeabi_dmul
    atan.o(i.__hardfp_atan) refers to ddiv.o(.text) for __aeabi_ddiv
    atan.o(i.__hardfp_atan) refers to poly.o(i.__kernel_poly) for __kernel_poly
    atan.o(i.__hardfp_atan) refers to atan.o(.constdata) for .constdata
    atan.o(i.__softfp_atan) refers (Special) to iusefp.o(.text) for __I$use$fp
    atan.o(i.__softfp_atan) refers to atan.o(i.__hardfp_atan) for __hardfp_atan
    atan.o(i.atan) refers (Special) to iusefp.o(.text) for __I$use$fp
    atan.o(i.atan) refers to atan.o(i.__hardfp_atan) for __hardfp_atan
    atan.o(.constdata) refers (Special) to iusefp.o(.text) for __I$use$fp
    atan_x.o(i.____hardfp_atan$lsc) refers (Special) to iusefp.o(.text) for __I$use$fp
    atan_x.o(i.____hardfp_atan$lsc) refers to dunder.o(i.__mathlib_dbl_infnan) for __mathlib_dbl_infnan
    atan_x.o(i.____hardfp_atan$lsc) refers to fabs.o(i.fabs) for fabs
    atan_x.o(i.____hardfp_atan$lsc) refers to dadd.o(.text) for __aeabi_dadd
    atan_x.o(i.____hardfp_atan$lsc) refers to dmul.o(.text) for __aeabi_dmul
    atan_x.o(i.____hardfp_atan$lsc) refers to ddiv.o(.text) for __aeabi_ddiv
    atan_x.o(i.____hardfp_atan$lsc) refers to poly.o(i.__kernel_poly) for __kernel_poly
    atan_x.o(i.____hardfp_atan$lsc) refers to atan_x.o(.constdata) for .constdata
    atan_x.o(i.____softfp_atan$lsc) refers (Special) to iusefp.o(.text) for __I$use$fp
    atan_x.o(i.____softfp_atan$lsc) refers to atan_x.o(i.____hardfp_atan$lsc) for ____hardfp_atan$lsc
    atan_x.o(i.__atan$lsc) refers (Special) to iusefp.o(.text) for __I$use$fp
    atan_x.o(i.__atan$lsc) refers to atan_x.o(i.____hardfp_atan$lsc) for ____hardfp_atan$lsc
    atan_x.o(.constdata) refers (Special) to iusefp.o(.text) for __I$use$fp
    atan2.o(i.__hardfp_atan2) refers (Special) to iusefp.o(.text) for __I$use$fp
    atan2.o(i.__hardfp_atan2) refers to dunder.o(i.__mathlib_dbl_infnan2) for __mathlib_dbl_infnan2
    atan2.o(i.__hardfp_atan2) refers to atan.o(i.atan) for atan
    atan2.o(i.__hardfp_atan2) refers to ddiv.o(.text) for __aeabi_ddiv
    atan2.o(i.__hardfp_atan2) refers to fabs.o(i.fabs) for fabs
    atan2.o(i.__hardfp_atan2) refers to dadd.o(.text) for __aeabi_dsub
    atan2.o(i.__hardfp_atan2) refers to qnan.o(.constdata) for __mathlib_zero
    atan2.o(i.__softfp_atan2) refers (Special) to iusefp.o(.text) for __I$use$fp
    atan2.o(i.__softfp_atan2) refers to atan2.o(i.__hardfp_atan2) for __hardfp_atan2
    atan2.o(i.atan2) refers (Special) to iusefp.o(.text) for __I$use$fp
    atan2.o(i.atan2) refers to atan2.o(i.__hardfp_atan2) for __hardfp_atan2
    atan2_x.o(i.____hardfp_atan2$lsc) refers (Special) to iusefp.o(.text) for __I$use$fp
    atan2_x.o(i.____hardfp_atan2$lsc) refers to dunder.o(i.__mathlib_dbl_infnan2) for __mathlib_dbl_infnan2
    atan2_x.o(i.____hardfp_atan2$lsc) refers to atan.o(i.atan) for atan
    atan2_x.o(i.____hardfp_atan2$lsc) refers to errno.o(i.__set_errno) for __set_errno
    atan2_x.o(i.____hardfp_atan2$lsc) refers to ddiv.o(.text) for __aeabi_ddiv
    atan2_x.o(i.____hardfp_atan2$lsc) refers to fabs.o(i.fabs) for fabs
    atan2_x.o(i.____hardfp_atan2$lsc) refers to dadd.o(.text) for __aeabi_dsub
    atan2_x.o(i.____hardfp_atan2$lsc) refers to qnan.o(.constdata) for __mathlib_zero
    atan2_x.o(i.____softfp_atan2$lsc) refers (Special) to iusefp.o(.text) for __I$use$fp
    atan2_x.o(i.____softfp_atan2$lsc) refers to atan2_x.o(i.____hardfp_atan2$lsc) for ____hardfp_atan2$lsc
    atan2_x.o(i.__atan2$lsc) refers (Special) to iusefp.o(.text) for __I$use$fp
    atan2_x.o(i.__atan2$lsc) refers to atan2_x.o(i.____hardfp_atan2$lsc) for ____hardfp_atan2$lsc
    atan2f.o(i.__hardfp_atan2f) refers (Special) to iusefp.o(.text) for __I$use$fp
    atan2f.o(i.__hardfp_atan2f) refers to fpclassifyf.o(i.__ARM_fpclassifyf) for __ARM_fpclassifyf
    atan2f.o(i.__hardfp_atan2f) refers to funder.o(i.__mathlib_flt_underflow) for __mathlib_flt_underflow
    atan2f.o(i.__hardfp_atan2f) refers to funder.o(i.__mathlib_flt_infnan2) for __mathlib_flt_infnan2
    atan2f.o(i.__softfp_atan2f) refers (Special) to iusefp.o(.text) for __I$use$fp
    atan2f.o(i.__softfp_atan2f) refers to atan2f.o(i.__hardfp_atan2f) for __hardfp_atan2f
    atan2f.o(i.atan2f) refers (Special) to iusefp.o(.text) for __I$use$fp
    atan2f.o(i.atan2f) refers to atan2f.o(i.__hardfp_atan2f) for __hardfp_atan2f
    atan2f_x.o(i.____hardfp_atan2f$lsc) refers (Special) to iusefp.o(.text) for __I$use$fp
    atan2f_x.o(i.____hardfp_atan2f$lsc) refers to funder.o(i.__mathlib_flt_infnan2) for __mathlib_flt_infnan2
    atan2f_x.o(i.____hardfp_atan2f$lsc) refers to errno.o(i.__set_errno) for __set_errno
    atan2f_x.o(i.____softfp_atan2f$lsc) refers (Special) to iusefp.o(.text) for __I$use$fp
    atan2f_x.o(i.____softfp_atan2f$lsc) refers to atan2f_x.o(i.____hardfp_atan2f$lsc) for ____hardfp_atan2f$lsc
    atan2f_x.o(i.__atan2f$lsc) refers (Special) to iusefp.o(.text) for __I$use$fp
    atan2f_x.o(i.__atan2f$lsc) refers to atan2f_x.o(i.____hardfp_atan2f$lsc) for ____hardfp_atan2f$lsc
    powf.o(i.__hardfp_powf) refers (Special) to iusefp.o(.text) for __I$use$fp
    powf.o(i.__hardfp_powf) refers to fpstat.o(.text) for __ieee_status
    powf.o(i.__hardfp_powf) refers to errno.o(i.__set_errno) for __set_errno
    powf.o(i.__hardfp_powf) refers to funder.o(i.__mathlib_flt_overflow) for __mathlib_flt_overflow
    powf.o(i.__hardfp_powf) refers to fpclassifyf.o(i.__ARM_fpclassifyf) for __ARM_fpclassifyf
    powf.o(i.__hardfp_powf) refers to funder.o(i.__mathlib_flt_underflow) for __mathlib_flt_underflow
    powf.o(i.__hardfp_powf) refers to funder.o(i.__mathlib_flt_invalid) for __mathlib_flt_invalid
    powf.o(i.__hardfp_powf) refers to powf.o(.constdata) for .constdata
    powf.o(i.__hardfp_powf) refers to funder.o(i.__mathlib_flt_infnan2) for __mathlib_flt_infnan2
    powf.o(i.__hardfp_powf) refers to funder.o(i.__mathlib_flt_divzero) for __mathlib_flt_divzero
    powf.o(i.__softfp_powf) refers (Special) to iusefp.o(.text) for __I$use$fp
    powf.o(i.__softfp_powf) refers to powf.o(i.__hardfp_powf) for __hardfp_powf
    powf.o(i.powf) refers (Special) to iusefp.o(.text) for __I$use$fp
    powf.o(i.powf) refers to powf.o(i.__hardfp_powf) for __hardfp_powf
    powf.o(.constdata) refers (Special) to iusefp.o(.text) for __I$use$fp
    powf_x.o(i.____hardfp_powf$lsc) refers (Special) to iusefp.o(.text) for __I$use$fp
    powf_x.o(i.____hardfp_powf$lsc) refers to fpstat.o(.text) for __ieee_status
    powf_x.o(i.____hardfp_powf$lsc) refers to errno.o(i.__set_errno) for __set_errno
    powf_x.o(i.____hardfp_powf$lsc) refers to powf_x.o(.constdata) for .constdata
    powf_x.o(i.____hardfp_powf$lsc) refers to funder.o(i.__mathlib_flt_infnan2) for __mathlib_flt_infnan2
    powf_x.o(i.____softfp_powf$lsc) refers (Special) to iusefp.o(.text) for __I$use$fp
    powf_x.o(i.____softfp_powf$lsc) refers to powf_x.o(i.____hardfp_powf$lsc) for ____hardfp_powf$lsc
    powf_x.o(i.__powf$lsc) refers (Special) to iusefp.o(.text) for __I$use$fp
    powf_x.o(i.__powf$lsc) refers to powf_x.o(i.____hardfp_powf$lsc) for ____hardfp_powf$lsc
    powf_x.o(.constdata) refers (Special) to iusefp.o(.text) for __I$use$fp
    sqrt.o(i.__hardfp_sqrt) refers (Special) to iusefp.o(.text) for __I$use$fp
    sqrt.o(i.__hardfp_sqrt) refers to dsqrt.o(.text) for _dsqrt
    sqrt.o(i.__hardfp_sqrt) refers to errno.o(i.__set_errno) for __set_errno
    sqrt.o(i.__softfp_sqrt) refers (Special) to iusefp.o(.text) for __I$use$fp
    sqrt.o(i.__softfp_sqrt) refers to dsqrt.o(.text) for _dsqrt
    sqrt.o(i.__softfp_sqrt) refers to errno.o(i.__set_errno) for __set_errno
    sqrt.o(i.sqrt) refers (Special) to iusefp.o(.text) for __I$use$fp
    sqrt.o(i.sqrt) refers to dsqrt.o(.text) for _dsqrt
    sqrt.o(i.sqrt) refers to errno.o(i.__set_errno) for __set_errno
    sqrt_x.o(i.____hardfp_sqrt$lsc) refers (Special) to iusefp.o(.text) for __I$use$fp
    sqrt_x.o(i.____hardfp_sqrt$lsc) refers to cdcmple.o(.text) for __aeabi_cdcmple
    sqrt_x.o(i.____hardfp_sqrt$lsc) refers to errno.o(i.__set_errno) for __set_errno
    sqrt_x.o(i.____hardfp_sqrt$lsc) refers to dsqrt.o(.text) for _dsqrt
    sqrt_x.o(i.____softfp_sqrt$lsc) refers (Special) to iusefp.o(.text) for __I$use$fp
    sqrt_x.o(i.____softfp_sqrt$lsc) refers to cdcmple.o(.text) for __aeabi_cdcmple
    sqrt_x.o(i.____softfp_sqrt$lsc) refers to errno.o(i.__set_errno) for __set_errno
    sqrt_x.o(i.____softfp_sqrt$lsc) refers to dsqrt.o(.text) for _dsqrt
    sqrt_x.o(i.__sqrt$lsc) refers (Special) to iusefp.o(.text) for __I$use$fp
    sqrt_x.o(i.__sqrt$lsc) refers to cdcmple.o(.text) for __aeabi_cdcmple
    sqrt_x.o(i.__sqrt$lsc) refers to errno.o(i.__set_errno) for __set_errno
    sqrt_x.o(i.__sqrt$lsc) refers to dsqrt.o(.text) for _dsqrt
    sqrtf.o(i.__hardfp_sqrtf) refers (Special) to iusefp.o(.text) for __I$use$fp
    sqrtf.o(i.__hardfp_sqrtf) refers to errno.o(i.__set_errno) for __set_errno
    sqrtf.o(i.__softfp_sqrtf) refers (Special) to iusefp.o(.text) for __I$use$fp
    sqrtf.o(i.__softfp_sqrtf) refers to errno.o(i.__set_errno) for __set_errno
    sqrtf.o(i.sqrtf) refers (Special) to iusefp.o(.text) for __I$use$fp
    sqrtf.o(i.sqrtf) refers to errno.o(i.__set_errno) for __set_errno
    sqrtf_x.o(i.____hardfp_sqrtf$lsc) refers (Special) to iusefp.o(.text) for __I$use$fp
    sqrtf_x.o(i.____hardfp_sqrtf$lsc) refers to errno.o(i.__set_errno) for __set_errno
    sqrtf_x.o(i.____softfp_sqrtf$lsc) refers (Special) to iusefp.o(.text) for __I$use$fp
    sqrtf_x.o(i.____softfp_sqrtf$lsc) refers to errno.o(i.__set_errno) for __set_errno
    sqrtf_x.o(i.__sqrtf$lsc) refers (Special) to iusefp.o(.text) for __I$use$fp
    sqrtf_x.o(i.__sqrtf$lsc) refers to errno.o(i.__set_errno) for __set_errno
    roundf.o(i.__hardfp_roundf) refers (Special) to iusefp.o(.text) for __I$use$fp
    roundf.o(i.__hardfp_roundf) refers to frnd.o(.text) for _frnd
    roundf.o(i.roundf) refers (Special) to iusefp.o(.text) for __I$use$fp
    roundf.o(i.roundf) refers to roundf.o(i.__hardfp_roundf) for __hardfp_roundf
    entry.o(.ARM.Collect$$$$00000000) refers (Special) to entry10a.o(.ARM.Collect$$$$0000000D) for __rt_final_cpp
    entry.o(.ARM.Collect$$$$00000000) refers (Special) to entry11a.o(.ARM.Collect$$$$0000000F) for __rt_final_exit
    entry.o(.ARM.Collect$$$$00000000) refers (Special) to entry7b.o(.ARM.Collect$$$$00000008) for _main_clock
    entry.o(.ARM.Collect$$$$00000000) refers (Special) to entry8b.o(.ARM.Collect$$$$0000000A) for _main_cpp_init
    entry.o(.ARM.Collect$$$$00000000) refers (Special) to entry9a.o(.ARM.Collect$$$$0000000B) for _main_init
    entry.o(.ARM.Collect$$$$00000000) refers (Special) to entry5.o(.ARM.Collect$$$$00000004) for _main_scatterload
    entry.o(.ARM.Collect$$$$00000000) refers (Special) to entry2.o(.ARM.Collect$$$$00000001) for _main_stk
    cpp_init.o(.emb_text) refers (Special) to entry8a.o(.ARM.Collect$$$$00000009) for _main_cpp_init$empty
    cpp_init.o(.init_array) refers (Special) to entry8a.o(.ARM.Collect$$$$00000009) for _main_cpp_init$empty
    cpp_init.o(.init_array) refers to cpp_init.o(.text) for __cpp_initialize__aeabi_
    cpp_init.o(.dummy_text) refers (Special) to entry8a.o(.ARM.Collect$$$$00000009) for _main_cpp_init$empty
    cpp_init.o(.text) refers (Special) to entry8a.o(.ARM.Collect$$$$00000009) for _main_cpp_init$empty
    aeabi_atexit.o(.text) refers (Special) to cxa_finalize.o(.text) for __cxa_finalize
    aeabi_atexit.o(.text) refers to malloc.o(i.malloc) for malloc
    aeabi_atexit.o(.text) refers to cpp_dtor.o(.text) for __rt_ddtor_pointer_addr
    dadd.o(.text) refers (Special) to iusefp.o(.text) for __I$use$fp
    dadd.o(.text) refers to llshl.o(.text) for __aeabi_llsl
    dadd.o(.text) refers to llsshr.o(.text) for __aeabi_lasr
    dadd.o(.text) refers to depilogue.o(.text) for _double_epilogue
    dmul.o(.text) refers (Special) to iusefp.o(.text) for __I$use$fp
    dmul.o(.text) refers to depilogue.o(.text) for _double_epilogue
    ddiv.o(.text) refers (Special) to iusefp.o(.text) for __I$use$fp
    ddiv.o(.text) refers to depilogue.o(.text) for _double_round
    f2d.o(.text) refers (Special) to iusefp.o(.text) for __I$use$fp
    d2f.o(.text) refers (Special) to iusefp.o(.text) for __I$use$fp
    d2f.o(.text) refers to fepilogue.o(.text) for _float_round
    dunder.o(i.__mathlib_dbl_divzero) refers to ddiv.o(.text) for __aeabi_ddiv
    dunder.o(i.__mathlib_dbl_infnan) refers to dadd.o(.text) for __aeabi_dadd
    dunder.o(i.__mathlib_dbl_infnan2) refers to dadd.o(.text) for __aeabi_dadd
    dunder.o(i.__mathlib_dbl_invalid) refers to ddiv.o(.text) for __aeabi_ddiv
    dunder.o(i.__mathlib_dbl_overflow) refers to dmul.o(.text) for __aeabi_dmul
    dunder.o(i.__mathlib_dbl_posinfnan) refers to dmul.o(.text) for __aeabi_dmul
    dunder.o(i.__mathlib_dbl_underflow) refers to dmul.o(.text) for __aeabi_dmul
    fabs.o(i.__hardfp_fabs) refers (Special) to iusefp.o(.text) for __I$use$fp
    fabs.o(i.__softfp_fabs) refers (Special) to iusefp.o(.text) for __I$use$fp
    fabs.o(i.fabs) refers (Special) to iusefp.o(.text) for __I$use$fp
    fpclassify.o(i.__ARM_fpclassify) refers (Special) to iusefp.o(.text) for __I$use$fp
    fpclassifyf.o(i.__ARM_fpclassifyf) refers (Special) to iusefp.o(.text) for __I$use$fp
    poly.o(i.__kernel_poly) refers (Special) to iusefp.o(.text) for __I$use$fp
    poly.o(i.__kernel_poly) refers to dmul.o(.text) for __aeabi_dmul
    poly.o(i.__kernel_poly) refers to dadd.o(.text) for __aeabi_dadd
    qnan.o(.constdata) refers (Special) to iusefp.o(.text) for __I$use$fp
    entry2.o(.ARM.Collect$$$$00000001) refers to entry2.o(.ARM.Collect$$$$00002712) for __lit__00000000
    entry2.o(.ARM.Collect$$$$00002712) refers to startup_stm32l431xx.o(STACK) for __initial_sp
    entry2.o(__vectab_stack_and_reset_area) refers to startup_stm32l431xx.o(STACK) for __initial_sp
    entry2.o(__vectab_stack_and_reset_area) refers to entry.o(.ARM.Collect$$$$00000000) for __main
    entry5.o(.ARM.Collect$$$$00000004) refers to init.o(.text) for __scatterload
    entry8a.o(.ARM.Collect$$$$00000009) refers (Weak) to cpp_init.o(.text) for __cpp_initialize__aeabi_
    entry9a.o(.ARM.Collect$$$$0000000B) refers to main.o(i.main) for main
    entry9b.o(.ARM.Collect$$$$0000000C) refers to main.o(i.main) for main
    entry10b.o(.ARM.Collect$$$$0000000E) refers (Weak) to cxa_finalize.o(.text) for __cxa_finalize
    malloc.o(i.free) refers to mvars.o(.data) for __microlib_freelist
    malloc.o(i.malloc) refers to mvars.o(.data) for __microlib_freelist_initialised
    malloc.o(i.malloc) refers to mvars.o(.data) for __microlib_freelist
    malloc.o(i.malloc) refers to startup_stm32l431xx.o(HEAP) for __heap_base
    mallocr.o(i.__free$realloc) refers to mvars.o(.data) for __microlib_freelist
    mallocr.o(i.__malloc$realloc) refers to mallocr.o(i.internal_alloc) for internal_alloc
    mallocr.o(i.__malloc$realloc) refers to mvars.o(.data) for __microlib_freelist_initialised
    mallocr.o(i.__malloc$realloc) refers to startup_stm32l431xx.o(HEAP) for __heap_base
    mallocr.o(i.__malloc$realloc) refers to mvars.o(.data) for __microlib_freelist
    mallocr.o(i.internal_alloc) refers to memcpya.o(.text) for __aeabi_memcpy
    mallocr.o(i.internal_alloc) refers to mvars.o(.data) for __microlib_freelist
    mallocr.o(i.realloc) refers to mallocr.o(i.__free$realloc) for __free$realloc
    mallocr.o(i.realloc) refers to mallocr.o(i.internal_alloc) for internal_alloc
    mallocr.o(i.realloc) refers to mallocr.o(i.__malloc$realloc) for __malloc$realloc
    mallocr.o(i.realloc) refers to mvars.o(.data) for __microlib_freelist
    malloca.o(i.__aligned_malloc) refers to mvars.o(.data) for __microlib_freelist_initialised
    malloca.o(i.__aligned_malloc) refers to mvars.o(.data) for __microlib_freelist
    malloca.o(i.__aligned_malloc) refers to startup_stm32l431xx.o(HEAP) for __heap_base
    malloca.o(i.__free$memalign) refers to mvars.o(.data) for __microlib_freelist
    malloca.o(i.__malloc$memalign) refers to malloca.o(i.__aligned_malloc) for __aligned_malloc
    mallocra.o(i.__aligned_malloc$realloc) refers to mallocra.o(i.internal_alloc) for internal_alloc
    mallocra.o(i.__aligned_malloc$realloc) refers to mvars.o(.data) for __microlib_freelist_initialised
    mallocra.o(i.__aligned_malloc$realloc) refers to startup_stm32l431xx.o(HEAP) for __heap_base
    mallocra.o(i.__aligned_malloc$realloc) refers to mvars.o(.data) for __microlib_freelist
    mallocra.o(i.__free$realloc$memalign) refers to mvars.o(.data) for __microlib_freelist
    mallocra.o(i.__malloc$realloc$memalign) refers to mallocra.o(i.__aligned_malloc$realloc) for __aligned_malloc$realloc
    mallocra.o(i.__realloc$memalign) refers to mallocra.o(i.__free$realloc$memalign) for __free$realloc$memalign
    mallocra.o(i.__realloc$memalign) refers to mallocra.o(i.internal_alloc) for internal_alloc
    mallocra.o(i.__realloc$memalign) refers to mallocra.o(i.__malloc$realloc$memalign) for __malloc$realloc$memalign
    mallocra.o(i.__realloc$memalign) refers to mvars.o(.data) for __microlib_freelist
    mallocra.o(i.internal_alloc) refers to memcpya.o(.text) for __aeabi_memcpy
    mallocra.o(i.internal_alloc) refers to mvars.o(.data) for __microlib_freelist
    errno.o(i.__aeabi_errno_addr) refers to errno.o(.data) for .data
    errno.o(i.__read_errno) refers to errno.o(.data) for .data
    errno.o(i.__set_errno) refers to errno.o(.data) for .data
    cpp_dtor.o(.text) refers to cpp_dtor.o(.data) for .data
    cxa_finalize.o(.text) refers (Special) to cpp_final.o(.text) for __rt_lib_shutdown_cpp_2
    cxa_finalize.o(.text) refers to cpp_dtor.o(.text) for __rt_ddtor_pointer_addr
    cxa_finalize.o(.text) refers to malloc.o(i.free) for free
    frnd.o(.text) refers to fepilogue.o(.text) for _float_round
    depilogue.o(.text) refers to llshl.o(.text) for __aeabi_llsl
    depilogue.o(.text) refers to llushr.o(.text) for __aeabi_llsr
    dsqrt.o(.text) refers to llushr.o(.text) for __aeabi_llsr
    dsqrt.o(.text) refers to depilogue.o(.text) for _double_round
    init.o(.text) refers to entry5.o(.ARM.Collect$$$$00000004) for __main_after_scatterload
    cpp_final.o(.text) refers (Special) to entry10b.o(.ARM.Collect$$$$0000000E) for __rt_final_cpp$nonempty
    mpu-9250_acc_gyro_mag_driver_hl.o(.ARM.exidx) refers to mpu-9250_acc_gyro_mag_driver_hl.o(i._ZN8MPU_925020TAccGyroMagDriver_HL13rev_half_wordENS_11TSensorDataE) for i._ZN8MPU_925020TAccGyroMagDriver_HL13rev_half_wordENS_11TSensorDataE
    model.o(t._ZN6TModel11access_protIhU8__packedhEEvRT_RKT0_) refers to queue.o(i.xQueueGenericReceive) for xQueueGenericReceive
    model.o(t._ZN6TModel11access_protIhU8__packedhEEvRT_RKT0_) refers to queue.o(i.xQueueGenericSend) for xQueueGenericSend
    model.o(.ARM.exidx) refers to model.o(t._ZN6TModel11access_protIhU8__packedhEEvRT_RKT0_) for t._ZN6TModel11access_protIhU8__packedhEEvRT_RKT0_
    model.o(t._ZN6TModel11access_protIU8__packedhhEEvRT_RKT0_) refers to queue.o(i.xQueueGenericReceive) for xQueueGenericReceive
    model.o(t._ZN6TModel11access_protIU8__packedhhEEvRT_RKT0_) refers to queue.o(i.xQueueGenericSend) for xQueueGenericSend
    model.o(.ARM.exidx) refers to model.o(t._ZN6TModel11access_protIU8__packedhhEEvRT_RKT0_) for t._ZN6TModel11access_protIU8__packedhhEEvRT_RKT0_
    model.o(t._ZN6TModel11access_protIfU8__packedfEEvRT_RKT0_) refers to queue.o(i.xQueueGenericReceive) for xQueueGenericReceive
    model.o(t._ZN6TModel11access_protIfU8__packedfEEvRT_RKT0_) refers to queue.o(i.xQueueGenericSend) for xQueueGenericSend
    model.o(.ARM.exidx) refers to model.o(t._ZN6TModel11access_protIfU8__packedfEEvRT_RKT0_) for t._ZN6TModel11access_protIfU8__packedfEEvRT_RKT0_
    model.o(t._ZN6TModel11access_protIU8__packedffEEvRT_RKT0_) refers to queue.o(i.xQueueGenericReceive) for xQueueGenericReceive
    model.o(t._ZN6TModel11access_protIU8__packedffEEvRT_RKT0_) refers to queue.o(i.xQueueGenericSend) for xQueueGenericSend
    model.o(.ARM.exidx) refers to model.o(t._ZN6TModel11access_protIU8__packedffEEvRT_RKT0_) for t._ZN6TModel11access_protIU8__packedffEEvRT_RKT0_
    model.o(t._ZN6TModel11access_protIN9TSettings6TStateES2_EEvRT_RKT0_) refers to queue.o(i.xQueueGenericReceive) for xQueueGenericReceive
    model.o(t._ZN6TModel11access_protIN9TSettings6TStateES2_EEvRT_RKT0_) refers to queue.o(i.xQueueGenericSend) for xQueueGenericSend
    model.o(.ARM.exidx) refers to model.o(t._ZN6TModel11access_protIN9TSettings6TStateES2_EEvRT_RKT0_) for t._ZN6TModel11access_protIN9TSettings6TStateES2_EEvRT_RKT0_
    model.o(t._ZN6TModel11access_protIsU8__packedsEEvRT_RKT0_) refers to queue.o(i.xQueueGenericReceive) for xQueueGenericReceive
    model.o(t._ZN6TModel11access_protIsU8__packedsEEvRT_RKT0_) refers to queue.o(i.xQueueGenericSend) for xQueueGenericSend
    model.o(.ARM.exidx) refers to model.o(t._ZN6TModel11access_protIsU8__packedsEEvRT_RKT0_) for t._ZN6TModel11access_protIsU8__packedsEEvRT_RKT0_
    model.o(t._ZN6TModel11access_protIU8__packedssEEvRT_RKT0_) refers to queue.o(i.xQueueGenericReceive) for xQueueGenericReceive
    model.o(t._ZN6TModel11access_protIU8__packedssEEvRT_RKT0_) refers to queue.o(i.xQueueGenericSend) for xQueueGenericSend
    model.o(.ARM.exidx) refers to model.o(t._ZN6TModel11access_protIU8__packedssEEvRT_RKT0_) for t._ZN6TModel11access_protIU8__packedssEEvRT_RKT0_
    model.o(t._ZN6TModel11access_protIN9TSettings10TFlashDataES2_EEvRT_RKT0_) refers to queue.o(i.xQueueGenericReceive) for xQueueGenericReceive
    model.o(t._ZN6TModel11access_protIN9TSettings10TFlashDataES2_EEvRT_RKT0_) refers to memcpya.o(.text) for __aeabi_memcpy
    model.o(t._ZN6TModel11access_protIN9TSettings10TFlashDataES2_EEvRT_RKT0_) refers to queue.o(i.xQueueGenericSend) for xQueueGenericSend
    model.o(.ARM.exidx) refers to model.o(t._ZN6TModel11access_protIN9TSettings10TFlashDataES2_EEvRT_RKT0_) for t._ZN6TModel11access_protIN9TSettings10TFlashDataES2_EEvRT_RKT0_
    model.o(t._ZN6TModel11access_protIaU8__packedaEEvRT_RKT0_) refers to queue.o(i.xQueueGenericReceive) for xQueueGenericReceive
    model.o(t._ZN6TModel11access_protIaU8__packedaEEvRT_RKT0_) refers to queue.o(i.xQueueGenericSend) for xQueueGenericSend
    model.o(.ARM.exidx) refers to model.o(t._ZN6TModel11access_protIaU8__packedaEEvRT_RKT0_) for t._ZN6TModel11access_protIaU8__packedaEEvRT_RKT0_
    model.o(t._ZN6TModel11access_protIU8__packedaaEEvRT_RKT0_) refers to queue.o(i.xQueueGenericReceive) for xQueueGenericReceive
    model.o(t._ZN6TModel11access_protIU8__packedaaEEvRT_RKT0_) refers to queue.o(i.xQueueGenericSend) for xQueueGenericSend
    model.o(.ARM.exidx) refers to model.o(t._ZN6TModel11access_protIU8__packedaaEEvRT_RKT0_) for t._ZN6TModel11access_protIU8__packedaaEEvRT_RKT0_
    model.o(t._ZN6TModel11access_protIU8__packedjjEEvRT_RKT0_) refers to queue.o(i.xQueueGenericReceive) for xQueueGenericReceive
    model.o(t._ZN6TModel11access_protIU8__packedjjEEvRT_RKT0_) refers to queue.o(i.xQueueGenericSend) for xQueueGenericSend
    model.o(.ARM.exidx) refers to model.o(t._ZN6TModel11access_protIU8__packedjjEEvRT_RKT0_) for t._ZN6TModel11access_protIU8__packedjjEEvRT_RKT0_
    model.o(t._ZN6TModel11access_protIN9TSettings12TCommunicateES2_EEvRT_RKT0_) refers to queue.o(i.xQueueGenericReceive) for xQueueGenericReceive
    model.o(t._ZN6TModel11access_protIN9TSettings12TCommunicateES2_EEvRT_RKT0_) refers to queue.o(i.xQueueGenericSend) for xQueueGenericSend
    model.o(.ARM.exidx) refers to model.o(t._ZN6TModel11access_protIN9TSettings12TCommunicateES2_EEvRT_RKT0_) for t._ZN6TModel11access_protIN9TSettings12TCommunicateES2_EEvRT_RKT0_
    model.o(t._ZN6TModel11access_protI5TBitsS1_EEvRT_RKT0_) refers to queue.o(i.xQueueGenericReceive) for xQueueGenericReceive
    model.o(t._ZN6TModel11access_protI5TBitsS1_EEvRT_RKT0_) refers to queue.o(i.xQueueGenericSend) for xQueueGenericSend
    model.o(.ARM.exidx) refers to model.o(t._ZN6TModel11access_protI5TBitsS1_EEvRT_RKT0_) for t._ZN6TModel11access_protI5TBitsS1_EEvRT_RKT0_
    model.o(t._ZN6TModel11access_protI10MySettingsS1_EEvRT_RKT0_) refers to queue.o(i.xQueueGenericReceive) for xQueueGenericReceive
    model.o(t._ZN6TModel11access_protI10MySettingsS1_EEvRT_RKT0_) refers to memcpya.o(.text) for __aeabi_memcpy
    model.o(t._ZN6TModel11access_protI10MySettingsS1_EEvRT_RKT0_) refers to queue.o(i.xQueueGenericSend) for xQueueGenericSend
    model.o(.ARM.exidx) refers to model.o(t._ZN6TModel11access_protI10MySettingsS1_EEvRT_RKT0_) for t._ZN6TModel11access_protI10MySettingsS1_EEvRT_RKT0_
    model.o(t._ZN6TModel11access_protI3TIfS1_EEvRT_RKT0_) refers to queue.o(i.xQueueGenericReceive) for xQueueGenericReceive
    model.o(t._ZN6TModel11access_protI3TIfS1_EEvRT_RKT0_) refers to queue.o(i.xQueueGenericSend) for xQueueGenericSend
    model.o(.ARM.exidx) refers to model.o(t._ZN6TModel11access_protI3TIfS1_EEvRT_RKT0_) for t._ZN6TModel11access_protI3TIfS1_EEvRT_RKT0_
    model.o(t._ZN6TModel11access_protIN9TSettings11TAccCalDataES2_EEvRT_RKT0_) refers to queue.o(i.xQueueGenericReceive) for xQueueGenericReceive
    model.o(t._ZN6TModel11access_protIN9TSettings11TAccCalDataES2_EEvRT_RKT0_) refers to memcpya.o(.text) for __aeabi_memcpy
    model.o(t._ZN6TModel11access_protIN9TSettings11TAccCalDataES2_EEvRT_RKT0_) refers to queue.o(i.xQueueGenericSend) for xQueueGenericSend
    model.o(.ARM.exidx) refers to model.o(t._ZN6TModel11access_protIN9TSettings11TAccCalDataES2_EEvRT_RKT0_) for t._ZN6TModel11access_protIN9TSettings11TAccCalDataES2_EEvRT_RKT0_
    modbus_app.o(.ARM.exidx) refers to modbus_app.o(t._ZSt4copyIPhS0_ET0_T_S2_S1_) for t._ZSt4copyIPhS0_ET0_T_S2_S1_
    coding_switch.o(.ARM.exidx) refers to coding_switch.o(t._ZSt5equalIPhS0_EbT_S1_T0_) for t._ZSt5equalIPhS0_EbT_S1_T0_
    mems.o(.ARM.exidx) refers to mems.o(t._ZSt4fillIPfjEvT_S1_RKT0_) for t._ZSt4fillIPfjEvT_S1_RKT0_
    mems.o(i._ZSt3powfi) refers to powf.o(i.__hardfp_powf) for __hardfp_powf
    mems.o(.ARM.exidx) refers to mems.o(i._ZSt3powfi) for i._ZSt3powfi
    mems.o(i._ZSt4sqrtf) refers to sqrtf.o(i.__hardfp_sqrtf) for __hardfp_sqrtf
    mems.o(.ARM.exidx) refers to mems.o(i._ZSt4sqrtf) for i._ZSt4sqrtf
    settings.o(.ARM.exidx) refers to settings.o(t._ZNK9TSettings9chk_paramIhEEbRKNS_6TRangeET_) for t._ZNK9TSettings9chk_paramIhEEbRKNS_6TRangeET_
    settings.o(.ARM.exidx) refers to settings.o(t._ZNK9TSettings9chk_paramIsEEbRKNS_6TRangeET_) for t._ZNK9TSettings9chk_paramIsEEbRKNS_6TRangeET_
    logger_ctrl.o(.ARM.exidx) refers to logger_ctrl.o(t._ZSt4copyIPKhPhET0_T_S4_S3_) for t._ZSt4copyIPKhPhET0_T_S4_S3_


==============================================================================

Removing Unused input sections from the image.

    Removing mpu-9250_acc_gyro_mag_driver_hl.o(.rev16_text), (4 bytes).
    Removing mpu-9250_acc_gyro_mag_driver_hl.o(.revsh_text), (4 bytes).
    Removing mpu-9250_acc_gyro_mag_driver_hl.o(.rrx_text), (6 bytes).
    Removing mpu-9250_acc_gyro_mag_driver_hl.o(i._ZN8MPU_925020TAccGyroMagDriver_HL10config_magEv), (350 bytes).
    Removing mpu-9250_acc_gyro_mag_driver_hl.o(i._ZN8MPU_925020TAccGyroMagDriver_HL10count_gyroEPKNS_12TRawAxesDataE), (74 bytes).
    Removing mpu-9250_acc_gyro_mag_driver_hl.o(i._ZN8MPU_925020TAccGyroMagDriver_HL12check_id_magEv), (60 bytes).
    Removing mpu-9250_acc_gyro_mag_driver_hl.o(i._ZN8MPU_925020TAccGyroMagDriver_HL13count_magnetoEPKNS_12TRawAxesDataE), (74 bytes).
    Removing mpu-9250_acc_gyro_mag_driver_hl.o(i._ZN8MPU_925020TAccGyroMagDriver_HL13get_mag_stateEv), (8 bytes).
    Removing mpu-9250_acc_gyro_mag_driver_hl.o(i._ZN8MPU_925020TAccGyroMagDriver_HL16collect_all_dataEv), (60 bytes).
    Removing mpu-9250_acc_gyro_mag_driver_hl.o(i._ZN8MPU_925020TAccGyroMagDriver_HL16collect_mag_dataEv), (50 bytes).
    Removing mpu-9250_acc_gyro_mag_driver_hl.o(i._ZN8MPU_925020TAccGyroMagDriver_HL16convert_all_dataEPh), (66 bytes).
    Removing mpu-9250_acc_gyro_mag_driver_hl.o(i._ZN8MPU_925020TAccGyroMagDriver_HL16convert_mag_dataEPh), (46 bytes).
    Removing mpu-9250_acc_gyro_mag_driver_hl.o(i._ZN8MPU_925020TAccGyroMagDriver_HL17count_temperatureEs), (40 bytes).
    Removing mpu-9250_acc_gyro_mag_driver_hl.o(i._ZN8MPU_925020TAccGyroMagDriver_HL3powEhh), (22 bytes).
    Removing mpu-9250_acc_gyro_mag_driver_hl.o(i._ZNK8MPU_925020TAccGyroMagDriver_HL13get_gyro_dataEv), (8 bytes).
    Removing mpu-9250_acc_gyro_mag_driver_hl.o(i._ZNK8MPU_925020TAccGyroMagDriver_HL15get_temperatureEv), (6 bytes).
    Removing mpu-9250_acc_gyro_mag_driver_hl.o(i._ZNK8MPU_925020TAccGyroMagDriver_HL16get_magneto_dataEv), (8 bytes).
    Removing mpu-9250_acc_gyro_mag_driver_hl.o(i._ZNK8MPU_925020TAccGyroMagDriver_HL19get_mag_sample_rateEv), (8 bytes).
    Removing mpu-9250_acc_gyro_mag_driver_hl.o(i._ZNK8MPU_925020TAccGyroMagDriver_HL20get_gyro_sample_rateEv), (8 bytes).
    Removing mpu-9250_acc_gyro_mag_driver_hl.o(i._ZNK8MPU_925020TAccGyroMagDriver_HL21get_accel_sample_rateEv), (8 bytes).
    Removing mpu-9250_acc_gyro_mag_driver_hl.o(.ARM.exidx), (8 bytes).
    Removing mpu-9250_acc_gyro_mag_driver_hl.o(.ARM.exidx), (8 bytes).
    Removing mpu-9250_acc_gyro_mag_driver_hl.o(.ARM.exidx), (8 bytes).
    Removing mpu-9250_acc_gyro_mag_driver_hl.o(.ARM.exidx), (8 bytes).
    Removing mpu-9250_acc_gyro_mag_driver_hl.o(.ARM.exidx), (8 bytes).
    Removing mpu-9250_acc_gyro_mag_driver_hl.o(.ARM.exidx), (8 bytes).
    Removing mpu-9250_acc_gyro_mag_driver_hl.o(.ARM.exidx), (8 bytes).
    Removing mpu-9250_acc_gyro_mag_driver_hl.o(.ARM.exidx), (8 bytes).
    Removing mpu-9250_acc_gyro_mag_driver_hl.o(.ARM.exidx), (8 bytes).
    Removing mpu-9250_acc_gyro_mag_driver_hl.o(.ARM.exidx), (8 bytes).
    Removing mpu-9250_acc_gyro_mag_driver_hl.o(.ARM.exidx), (8 bytes).
    Removing mpu-9250_acc_gyro_mag_driver_hl.o(.ARM.exidx), (8 bytes).
    Removing mpu-9250_acc_gyro_mag_driver_hl.o(.ARM.exidx), (8 bytes).
    Removing mpu-9250_acc_gyro_mag_driver_hl.o(.ARM.exidx), (8 bytes).
    Removing mpu-9250_acc_gyro_mag_driver_hl.o(.ARM.exidx), (8 bytes).
    Removing mpu-9250_acc_gyro_mag_driver_hl.o(.ARM.exidx), (8 bytes).
    Removing mpu-9250_acc_gyro_mag_driver_hl.o(.ARM.exidx), (8 bytes).
    Removing mpu-9250_acc_gyro_mag_driver_hl.o(.ARM.exidx), (8 bytes).
    Removing mpu-9250_acc_gyro_mag_driver_hl.o(.ARM.exidx), (8 bytes).
    Removing mpu-9250_acc_gyro_mag_driver_hl.o(.ARM.exidx), (8 bytes).
    Removing mpu-9250_acc_gyro_mag_driver_hl.o(.ARM.exidx), (8 bytes).
    Removing mpu-9250_acc_gyro_mag_driver_hl.o(.ARM.exidx), (8 bytes).
    Removing mpu-9250_acc_gyro_mag_driver_hl.o(.ARM.exidx), (8 bytes).
    Removing mpu-9250_acc_gyro_mag_driver_hl.o(.ARM.exidx), (8 bytes).
    Removing mpu-9250_acc_gyro_mag_driver_hl.o(.ARM.exidx), (8 bytes).
    Removing mpu-9250_acc_gyro_mag_driver_hl.o(.ARM.exidx), (8 bytes).
    Removing mpu-9250_acc_gyro_mag_driver_hl.o(.ARM.exidx), (8 bytes).
    Removing mpu-9250_acc_gyro_mag_driver_hl.o(.ARM.exidx), (8 bytes).
    Removing mpu-9250_acc_gyro_mag_driver_hl.o(.ARM.exidx), (8 bytes).
    Removing mpu-9250_acc_gyro_mag_driver_hl.o(.ARM.exidx), (8 bytes).
    Removing mpu-9250_acc_gyro_mag_driver_hl.o(.ARM.exidx), (8 bytes).
    Removing mpu-9250_acc_gyro_mag_driver_hl.o(.constdata), (48 bytes).
    Removing mpu-9250_acc_gyro_mag_driver_ll.o(i._ZN8MPU_925020TAccGyroMagDriver_LL10cycle_ctrlEPhNS_9VSetResetE), (24 bytes).
    Removing mpu-9250_acc_gyro_mag_driver_ll.o(i._ZN8MPU_925020TAccGyroMagDriver_LL10sleep_ctrlEPhNS_9VSetResetE), (24 bytes).
    Removing mpu-9250_acc_gyro_mag_driver_ll.o(i._ZN8MPU_925020TAccGyroMagDriver_LL11gyro_x_ctrlEPhNS_6VEnDisE), (24 bytes).
    Removing mpu-9250_acc_gyro_mag_driver_ll.o(i._ZN8MPU_925020TAccGyroMagDriver_LL11gyro_y_ctrlEPhNS_6VEnDisE), (24 bytes).
    Removing mpu-9250_acc_gyro_mag_driver_ll.o(i._ZN8MPU_925020TAccGyroMagDriver_LL11gyro_z_ctrlEPhNS_6VEnDisE), (24 bytes).
    Removing mpu-9250_acc_gyro_mag_driver_ll.o(i._ZN8MPU_925020TAccGyroMagDriver_LL11slv0_enableEPhNS_6VEnDisE), (24 bytes).
    Removing mpu-9250_acc_gyro_mag_driver_ll.o(i._ZN8MPU_925020TAccGyroMagDriver_LL12accel_x_ctrlEPhNS_6VEnDisE), (24 bytes).
    Removing mpu-9250_acc_gyro_mag_driver_ll.o(i._ZN8MPU_925020TAccGyroMagDriver_LL12accel_y_ctrlEPhNS_6VEnDisE), (24 bytes).
    Removing mpu-9250_acc_gyro_mag_driver_ll.o(i._ZN8MPU_925020TAccGyroMagDriver_LL12accel_z_ctrlEPhNS_6VEnDisE), (24 bytes).
    Removing mpu-9250_acc_gyro_mag_driver_ll.o(i._ZN8MPU_925020TAccGyroMagDriver_LL12fsync_enableEPhNS_6VEnDisE), (24 bytes).
    Removing mpu-9250_acc_gyro_mag_driver_ll.o(i._ZN8MPU_925020TAccGyroMagDriver_LL12mag_overflowEhPNS_11VStatusFlagE), (26 bytes).
    Removing mpu-9250_acc_gyro_mag_driver_ll.o(i._ZN8MPU_925020TAccGyroMagDriver_LL12slv0_rx_nackEhPNS_11VStatusFlagE), (26 bytes).
    Removing mpu-9250_acc_gyro_mag_driver_ll.o(i._ZN8MPU_925020TAccGyroMagDriver_LL12slv1_rx_nackEhPNS_11VStatusFlagE), (26 bytes).
    Removing mpu-9250_acc_gyro_mag_driver_ll.o(i._ZN8MPU_925020TAccGyroMagDriver_LL12slv2_rx_nackEhPNS_11VStatusFlagE), (26 bytes).
    Removing mpu-9250_acc_gyro_mag_driver_ll.o(i._ZN8MPU_925020TAccGyroMagDriver_LL12slv3_rx_nackEhPNS_11VStatusFlagE), (26 bytes).
    Removing mpu-9250_acc_gyro_mag_driver_ll.o(i._ZN8MPU_925020TAccGyroMagDriver_LL12slv4_rx_nackEhPNS_11VStatusFlagE), (26 bytes).
    Removing mpu-9250_acc_gyro_mag_driver_ll.o(i._ZN8MPU_925020TAccGyroMagDriver_LL14fifo_mode_ctrlEPhNS_6VEnDisE), (24 bytes).
    Removing mpu-9250_acc_gyro_mag_driver_ll.o(i._ZN8MPU_925020TAccGyroMagDriver_LL14fsync_int_ctrlEPhNS_6VEnDisE), (24 bytes).
    Removing mpu-9250_acc_gyro_mag_driver_ll.o(i._ZN8MPU_925020TAccGyroMagDriver_LL14mag_data_readyEhPNS_11VStatusFlagE), (26 bytes).
    Removing mpu-9250_acc_gyro_mag_driver_ll.o(i._ZN8MPU_925020TAccGyroMagDriver_LL15int_status_ctrlEPhNS_6VEnDisE), (24 bytes).
    Removing mpu-9250_acc_gyro_mag_driver_ll.o(i._ZN8MPU_925020TAccGyroMagDriver_LL15mag_i2c_disableEPh), (10 bytes).
    Removing mpu-9250_acc_gyro_mag_driver_ll.o(i._ZN8MPU_925020TAccGyroMagDriver_LL15slv0_group_dataEPhNS_6VEnDisE), (24 bytes).
    Removing mpu-9250_acc_gyro_mag_driver_ll.o(i._ZN8MPU_925020TAccGyroMagDriver_LL15slv0_swap_bytesEPhNS_6VEnDisE), (24 bytes).
    Removing mpu-9250_acc_gyro_mag_driver_ll.o(i._ZN8MPU_925020TAccGyroMagDriver_LL16clock_src_choiseEPhNS_15VClockSrcChoiseE), (24 bytes).
    Removing mpu-9250_acc_gyro_mag_driver_ll.o(i._ZN8MPU_925020TAccGyroMagDriver_LL16fifo_mode_configEPhNS_15VFifoModeConfigE), (24 bytes).
    Removing mpu-9250_acc_gyro_mag_driver_ll.o(i._ZN8MPU_925020TAccGyroMagDriver_LL16fsync_int_statusEhPNS_11VStatusFlagE), (26 bytes).
    Removing mpu-9250_acc_gyro_mag_driver_ll.o(i._ZN8MPU_925020TAccGyroMagDriver_LL16fsync_level_ctrlEPhNS_6VEnDisE), (24 bytes).
    Removing mpu-9250_acc_gyro_mag_driver_ll.o(i._ZN8MPU_925020TAccGyroMagDriver_LL16fsync_pin_configEPhNS_15VFsyncPinConfigE), (24 bytes).
    Removing mpu-9250_acc_gyro_mag_driver_ll.o(i._ZN8MPU_925020TAccGyroMagDriver_LL16mag_data_overrunEhPNS_11VStatusFlagE), (26 bytes).
    Removing mpu-9250_acc_gyro_mag_driver_ll.o(i._ZN8MPU_925020TAccGyroMagDriver_LL16slv0_phy_addressEPhh), (24 bytes).
    Removing mpu-9250_acc_gyro_mag_driver_ll.o(i._ZN8MPU_925020TAccGyroMagDriver_LL17gyro_standby_ctrlEPhNS_9VSetResetE), (24 bytes).
    Removing mpu-9250_acc_gyro_mag_driver_ll.o(i._ZN8MPU_925020TAccGyroMagDriver_LL17reset_fifo_moduleEPhNS_6VEnDisE), (24 bytes).
    Removing mpu-9250_acc_gyro_mag_driver_ll.o(i._ZN8MPU_925020TAccGyroMagDriver_LL18fifo_ovrf_int_ctrlEPhNS_6VEnDisE), (24 bytes).
    Removing mpu-9250_acc_gyro_mag_driver_ll.o(i._ZN8MPU_925020TAccGyroMagDriver_LL18mag_output_bit_setEPhNS_16VMagOutputBitSetE), (24 bytes).
    Removing mpu-9250_acc_gyro_mag_driver_ll.o(i._ZN8MPU_925020TAccGyroMagDriver_LL18mag_self_test_ctrlEPhNS_16VMagSelfTestCtrlE), (24 bytes).
    Removing mpu-9250_acc_gyro_mag_driver_ll.o(i._ZN8MPU_925020TAccGyroMagDriver_LL18write_temp_to_fifoEPhNS_6VEnDisE), (24 bytes).
    Removing mpu-9250_acc_gyro_mag_driver_ll.o(i._ZN8MPU_925020TAccGyroMagDriver_LL19config_internal_clkEPhNS_18VConfigInternalClkE), (24 bytes).
    Removing mpu-9250_acc_gyro_mag_driver_ll.o(i._ZN8MPU_925020TAccGyroMagDriver_LL19interface_mode_ctrlEPhNS_6VEnDisE), (24 bytes).
    Removing mpu-9250_acc_gyro_mag_driver_ll.o(i._ZN8MPU_925020TAccGyroMagDriver_LL19mag_mirror_data_bitEhPNS_11VStatusFlagE), (26 bytes).
    Removing mpu-9250_acc_gyro_mag_driver_ll.o(i._ZN8MPU_925020TAccGyroMagDriver_LL19mag_output_bit_readEhPNS_16VMagOutputBitSetE), (26 bytes).
    Removing mpu-9250_acc_gyro_mag_driver_ll.o(i._ZN8MPU_925020TAccGyroMagDriver_LL19mag_soft_reset_ctrlEPhNS_17VMagSoftResetCtrlE), (24 bytes).
    Removing mpu-9250_acc_gyro_mag_driver_ll.o(i._ZN8MPU_925020TAccGyroMagDriver_LL19multi_master_enableEPhNS_6VEnDisE), (24 bytes).
    Removing mpu-9250_acc_gyro_mag_driver_ll.o(i._ZN8MPU_925020TAccGyroMagDriver_LL19slv0_num_bytes_readEPhNS_16VSlvNumBytesReadE), (24 bytes).
    Removing mpu-9250_acc_gyro_mag_driver_ll.o(i._ZN8MPU_925020TAccGyroMagDriver_LL19write_accel_to_fifoEPhNS_6VEnDisE), (24 bytes).
    Removing mpu-9250_acc_gyro_mag_driver_ll.o(i._ZN8MPU_925020TAccGyroMagDriver_LL20delay_data_ready_intEPhNS_6VEnDisE), (24 bytes).
    Removing mpu-9250_acc_gyro_mag_driver_ll.o(i._ZN8MPU_925020TAccGyroMagDriver_LL20fifo_high_bits_countEPhh), (24 bytes).
    Removing mpu-9250_acc_gyro_mag_driver_ll.o(i._ZN8MPU_925020TAccGyroMagDriver_LL20fifo_ovrf_int_statusEhPNS_11VStatusFlagE), (26 bytes).
    Removing mpu-9250_acc_gyro_mag_driver_ll.o(i._ZN8MPU_925020TAccGyroMagDriver_LL20gyro_full_scale_readEhPNS_20VGyroFullScaleSelectE), (26 bytes).
    Removing mpu-9250_acc_gyro_mag_driver_ll.o(i._ZN8MPU_925020TAccGyroMagDriver_LL20i2c_master_pins_ctrlEPhNS_6VEnDisE), (24 bytes).
    Removing mpu-9250_acc_gyro_mag_driver_ll.o(i._ZN8MPU_925020TAccGyroMagDriver_LL20i2c_master_pins_readEhPNS_6VEnDisE), (26 bytes).
    Removing mpu-9250_acc_gyro_mag_driver_ll.o(i._ZN8MPU_925020TAccGyroMagDriver_LL20slv0_direct_transferEPhNS_16VI2CTransferTypeE), (24 bytes).
    Removing mpu-9250_acc_gyro_mag_driver_ll.o(i._ZN8MPU_925020TAccGyroMagDriver_LL20slv0_dly_access_ctrlEPhNS_6VEnDisE), (24 bytes).
    Removing mpu-9250_acc_gyro_mag_driver_ll.o(i._ZN8MPU_925020TAccGyroMagDriver_LL20slv1_dly_access_ctrlEPhNS_6VEnDisE), (24 bytes).
    Removing mpu-9250_acc_gyro_mag_driver_ll.o(i._ZN8MPU_925020TAccGyroMagDriver_LL20slv2_dly_access_ctrlEPhNS_6VEnDisE), (24 bytes).
    Removing mpu-9250_acc_gyro_mag_driver_ll.o(i._ZN8MPU_925020TAccGyroMagDriver_LL20slv3_dly_access_ctrlEPhNS_6VEnDisE), (24 bytes).
    Removing mpu-9250_acc_gyro_mag_driver_ll.o(i._ZN8MPU_925020TAccGyroMagDriver_LL20slv4_dly_access_ctrlEPhNS_6VEnDisE), (24 bytes).
    Removing mpu-9250_acc_gyro_mag_driver_ll.o(i._ZN8MPU_925020TAccGyroMagDriver_LL20slv_lost_arbitrationEhPNS_11VStatusFlagE), (26 bytes).
    Removing mpu-9250_acc_gyro_mag_driver_ll.o(i._ZN8MPU_925020TAccGyroMagDriver_LL20write_gyro_x_to_fifoEPhNS_6VEnDisE), (24 bytes).
    Removing mpu-9250_acc_gyro_mag_driver_ll.o(i._ZN8MPU_925020TAccGyroMagDriver_LL20write_gyro_y_to_fifoEPhNS_6VEnDisE), (24 bytes).
    Removing mpu-9250_acc_gyro_mag_driver_ll.o(i._ZN8MPU_925020TAccGyroMagDriver_LL20write_gyro_z_to_fifoEPhNS_6VEnDisE), (24 bytes).
    Removing mpu-9250_acc_gyro_mag_driver_ll.o(i._ZN8MPU_925020TAccGyroMagDriver_LL20write_slave0_to_fifoEPhNS_6VEnDisE), (24 bytes).
    Removing mpu-9250_acc_gyro_mag_driver_ll.o(i._ZN8MPU_925020TAccGyroMagDriver_LL20write_slave1_to_fifoEPhNS_6VEnDisE), (24 bytes).
    Removing mpu-9250_acc_gyro_mag_driver_ll.o(i._ZN8MPU_925020TAccGyroMagDriver_LL20write_slave2_to_fifoEPhNS_6VEnDisE), (24 bytes).
    Removing mpu-9250_acc_gyro_mag_driver_ll.o(i._ZN8MPU_925020TAccGyroMagDriver_LL21reset_all_signal_pathEPhNS_6VEnDisE), (24 bytes).
    Removing mpu-9250_acc_gyro_mag_driver_ll.o(i._ZN8MPU_925020TAccGyroMagDriver_LL21set_accel_wakeup_freqEPhNS_19VSetAccelWakeupFreqE), (24 bytes).
    Removing mpu-9250_acc_gyro_mag_driver_ll.o(i._ZN8MPU_925020TAccGyroMagDriver_LL21slv0_write_reg_enableEPhNS_6VEnDisE), (24 bytes).
    Removing mpu-9250_acc_gyro_mag_driver_ll.o(i._ZN8MPU_925020TAccGyroMagDriver_LL22mag_operation_mode_setEPhNS_20VMagOperationModeSetE), (24 bytes).
    Removing mpu-9250_acc_gyro_mag_driver_ll.o(i._ZN8MPU_925020TAccGyroMagDriver_LL22reset_gyro_signal_pathEPhNS_6VEnDisE), (24 bytes).
    Removing mpu-9250_acc_gyro_mag_driver_ll.o(i._ZN8MPU_925020TAccGyroMagDriver_LL22reset_temp_signal_pathEPhNS_6VEnDisE), (24 bytes).
    Removing mpu-9250_acc_gyro_mag_driver_ll.o(i._ZN8MPU_925020TAccGyroMagDriver_LL22slv4_transfer_completeEhPNS_11VStatusFlagE), (26 bytes).
    Removing mpu-9250_acc_gyro_mag_driver_ll.o(i._ZN8MPU_925020TAccGyroMagDriver_LL22status_fsync_interruptEhPNS_11VStatusFlagE), (24 bytes).
    Removing mpu-9250_acc_gyro_mag_driver_ll.o(i._ZN8MPU_925020TAccGyroMagDriver_LL22voltage_generator_ctrlEPhNS_9VSetResetE), (24 bytes).
    Removing mpu-9250_acc_gyro_mag_driver_ll.o(i._ZN8MPU_925020TAccGyroMagDriver_LL23enable_x_gyro_self_testEPhNS_6VEnDisE), (24 bytes).
    Removing mpu-9250_acc_gyro_mag_driver_ll.o(i._ZN8MPU_925020TAccGyroMagDriver_LL23enable_y_gyro_self_testEPhNS_6VEnDisE), (24 bytes).
    Removing mpu-9250_acc_gyro_mag_driver_ll.o(i._ZN8MPU_925020TAccGyroMagDriver_LL23enable_z_gyro_self_testEPhNS_6VEnDisE), (24 bytes).
    Removing mpu-9250_acc_gyro_mag_driver_ll.o(i._ZN8MPU_925020TAccGyroMagDriver_LL23mag_operation_mode_readEhPNS_20VMagOperationModeSetE), (26 bytes).
    Removing mpu-9250_acc_gyro_mag_driver_ll.o(i._ZN8MPU_925020TAccGyroMagDriver_LL23reset_accel_signal_pathEPhNS_6VEnDisE), (24 bytes).
    Removing mpu-9250_acc_gyro_mag_driver_ll.o(i._ZN8MPU_925020TAccGyroMagDriver_LL23reset_i2c_master_moduleEPhNS_6VEnDisE), (24 bytes).
    Removing mpu-9250_acc_gyro_mag_driver_ll.o(i._ZN8MPU_925020TAccGyroMagDriver_LL23wake_on_motion_int_ctrlEPhNS_6VEnDisE), (24 bytes).
    Removing mpu-9250_acc_gyro_mag_driver_ll.o(i._ZN8MPU_925020TAccGyroMagDriver_LL23write_data_slv3_to_fifoEPhNS_6VEnDisE), (24 bytes).
    Removing mpu-9250_acc_gyro_mag_driver_ll.o(i._ZN8MPU_925020TAccGyroMagDriver_LL24enable_x_accel_self_testEPhNS_6VEnDisE), (24 bytes).
    Removing mpu-9250_acc_gyro_mag_driver_ll.o(i._ZN8MPU_925020TAccGyroMagDriver_LL24enable_y_accel_self_testEPhNS_6VEnDisE), (24 bytes).
    Removing mpu-9250_acc_gyro_mag_driver_ll.o(i._ZN8MPU_925020TAccGyroMagDriver_LL24enable_z_accel_self_testEPhNS_6VEnDisE), (24 bytes).
    Removing mpu-9250_acc_gyro_mag_driver_ll.o(i._ZN8MPU_925020TAccGyroMagDriver_LL25accel_wake_on_motion_ctrlEPhNS_6VEnDisE), (24 bytes).
    Removing mpu-9250_acc_gyro_mag_driver_ll.o(i._ZN8MPU_925020TAccGyroMagDriver_LL25raw_data_ready_int_statusEhPNS_11VStatusFlagE), (26 bytes).
    Removing mpu-9250_acc_gyro_mag_driver_ll.o(i._ZN8MPU_925020TAccGyroMagDriver_LL25wake_on_motion_int_statusEhPNS_11VStatusFlagE), (26 bytes).
    Removing mpu-9250_acc_gyro_mag_driver_ll.o(i._ZN8MPU_925020TAccGyroMagDriver_LL26accel_compare_samples_ctrlEPhNS_6VEnDisE), (24 bytes).
    Removing mpu-9250_acc_gyro_mag_driver_ll.o(i._ZN8MPU_925020TAccGyroMagDriver_LL26ctrl_slave_read_transitionEPhNS_6VEnDisE), (24 bytes).
    Removing mpu-9250_acc_gyro_mag_driver_ll.o(i._ZN8MPU_925020TAccGyroMagDriver_LL26delay_shadow_ext_sens_ctrlEPhNS_6VEnDisE), (24 bytes).
    Removing mpu-9250_acc_gyro_mag_driver_ll.o(i._ZN8MPU_925020TAccGyroMagDriver_LL31reset_and_restore_internal_regsEPhNS_9VSetResetE), (24 bytes).
    Removing mpu-9250_acc_gyro_mag_driver_ll.o(i._ZNK8MPU_925020TAccGyroMagDriver_LL12get_mag_addrEv), (6 bytes).
    Removing mpu-9250_acc_gyro_mag_driver_ll.o(.ARM.exidx), (8 bytes).
    Removing mpu-9250_acc_gyro_mag_driver_ll.o(.ARM.exidx), (8 bytes).
    Removing mpu-9250_acc_gyro_mag_driver_ll.o(.ARM.exidx), (8 bytes).
    Removing mpu-9250_acc_gyro_mag_driver_ll.o(.ARM.exidx), (8 bytes).
    Removing mpu-9250_acc_gyro_mag_driver_ll.o(.ARM.exidx), (8 bytes).
    Removing mpu-9250_acc_gyro_mag_driver_ll.o(.ARM.exidx), (8 bytes).
    Removing mpu-9250_acc_gyro_mag_driver_ll.o(.ARM.exidx), (8 bytes).
    Removing mpu-9250_acc_gyro_mag_driver_ll.o(.ARM.exidx), (8 bytes).
    Removing mpu-9250_acc_gyro_mag_driver_ll.o(.ARM.exidx), (8 bytes).
    Removing mpu-9250_acc_gyro_mag_driver_ll.o(.ARM.exidx), (8 bytes).
    Removing mpu-9250_acc_gyro_mag_driver_ll.o(.ARM.exidx), (8 bytes).
    Removing mpu-9250_acc_gyro_mag_driver_ll.o(.ARM.exidx), (8 bytes).
    Removing mpu-9250_acc_gyro_mag_driver_ll.o(.ARM.exidx), (8 bytes).
    Removing mpu-9250_acc_gyro_mag_driver_ll.o(.ARM.exidx), (8 bytes).
    Removing mpu-9250_acc_gyro_mag_driver_ll.o(.ARM.exidx), (8 bytes).
    Removing mpu-9250_acc_gyro_mag_driver_ll.o(.ARM.exidx), (8 bytes).
    Removing mpu-9250_acc_gyro_mag_driver_ll.o(.ARM.exidx), (8 bytes).
    Removing mpu-9250_acc_gyro_mag_driver_ll.o(.ARM.exidx), (8 bytes).
    Removing mpu-9250_acc_gyro_mag_driver_ll.o(.ARM.exidx), (8 bytes).
    Removing mpu-9250_acc_gyro_mag_driver_ll.o(.ARM.exidx), (8 bytes).
    Removing mpu-9250_acc_gyro_mag_driver_ll.o(.ARM.exidx), (8 bytes).
    Removing mpu-9250_acc_gyro_mag_driver_ll.o(.ARM.exidx), (8 bytes).
    Removing mpu-9250_acc_gyro_mag_driver_ll.o(.ARM.exidx), (8 bytes).
    Removing mpu-9250_acc_gyro_mag_driver_ll.o(.ARM.exidx), (8 bytes).
    Removing mpu-9250_acc_gyro_mag_driver_ll.o(.ARM.exidx), (8 bytes).
    Removing mpu-9250_acc_gyro_mag_driver_ll.o(.ARM.exidx), (8 bytes).
    Removing mpu-9250_acc_gyro_mag_driver_ll.o(.ARM.exidx), (8 bytes).
    Removing mpu-9250_acc_gyro_mag_driver_ll.o(.ARM.exidx), (8 bytes).
    Removing mpu-9250_acc_gyro_mag_driver_ll.o(.ARM.exidx), (8 bytes).
    Removing mpu-9250_acc_gyro_mag_driver_ll.o(.ARM.exidx), (8 bytes).
    Removing mpu-9250_acc_gyro_mag_driver_ll.o(.ARM.exidx), (8 bytes).
    Removing mpu-9250_acc_gyro_mag_driver_ll.o(.ARM.exidx), (8 bytes).
    Removing mpu-9250_acc_gyro_mag_driver_ll.o(.ARM.exidx), (8 bytes).
    Removing mpu-9250_acc_gyro_mag_driver_ll.o(.ARM.exidx), (8 bytes).
    Removing mpu-9250_acc_gyro_mag_driver_ll.o(.ARM.exidx), (8 bytes).
    Removing mpu-9250_acc_gyro_mag_driver_ll.o(.ARM.exidx), (8 bytes).
    Removing mpu-9250_acc_gyro_mag_driver_ll.o(.ARM.exidx), (8 bytes).
    Removing mpu-9250_acc_gyro_mag_driver_ll.o(.ARM.exidx), (8 bytes).
    Removing mpu-9250_acc_gyro_mag_driver_ll.o(.ARM.exidx), (8 bytes).
    Removing mpu-9250_acc_gyro_mag_driver_ll.o(.ARM.exidx), (8 bytes).
    Removing mpu-9250_acc_gyro_mag_driver_ll.o(.ARM.exidx), (8 bytes).
    Removing mpu-9250_acc_gyro_mag_driver_ll.o(.ARM.exidx), (8 bytes).
    Removing mpu-9250_acc_gyro_mag_driver_ll.o(.ARM.exidx), (8 bytes).
    Removing mpu-9250_acc_gyro_mag_driver_ll.o(.ARM.exidx), (8 bytes).
    Removing mpu-9250_acc_gyro_mag_driver_ll.o(.ARM.exidx), (8 bytes).
    Removing mpu-9250_acc_gyro_mag_driver_ll.o(.ARM.exidx), (8 bytes).
    Removing mpu-9250_acc_gyro_mag_driver_ll.o(.ARM.exidx), (8 bytes).
    Removing mpu-9250_acc_gyro_mag_driver_ll.o(.ARM.exidx), (8 bytes).
    Removing mpu-9250_acc_gyro_mag_driver_ll.o(.ARM.exidx), (8 bytes).
    Removing mpu-9250_acc_gyro_mag_driver_ll.o(.ARM.exidx), (8 bytes).
    Removing mpu-9250_acc_gyro_mag_driver_ll.o(.ARM.exidx), (8 bytes).
    Removing mpu-9250_acc_gyro_mag_driver_ll.o(.ARM.exidx), (8 bytes).
    Removing mpu-9250_acc_gyro_mag_driver_ll.o(.ARM.exidx), (8 bytes).
    Removing mpu-9250_acc_gyro_mag_driver_ll.o(.ARM.exidx), (8 bytes).
    Removing mpu-9250_acc_gyro_mag_driver_ll.o(.ARM.exidx), (8 bytes).
    Removing mpu-9250_acc_gyro_mag_driver_ll.o(.ARM.exidx), (8 bytes).
    Removing mpu-9250_acc_gyro_mag_driver_ll.o(.ARM.exidx), (8 bytes).
    Removing mpu-9250_acc_gyro_mag_driver_ll.o(.ARM.exidx), (8 bytes).
    Removing mpu-9250_acc_gyro_mag_driver_ll.o(.ARM.exidx), (8 bytes).
    Removing mpu-9250_acc_gyro_mag_driver_ll.o(.ARM.exidx), (8 bytes).
    Removing mpu-9250_acc_gyro_mag_driver_ll.o(.ARM.exidx), (8 bytes).
    Removing mpu-9250_acc_gyro_mag_driver_ll.o(.ARM.exidx), (8 bytes).
    Removing mpu-9250_acc_gyro_mag_driver_ll.o(.ARM.exidx), (8 bytes).
    Removing mpu-9250_acc_gyro_mag_driver_ll.o(.ARM.exidx), (8 bytes).
    Removing mpu-9250_acc_gyro_mag_driver_ll.o(.ARM.exidx), (8 bytes).
    Removing mpu-9250_acc_gyro_mag_driver_ll.o(.ARM.exidx), (8 bytes).
    Removing mpu-9250_acc_gyro_mag_driver_ll.o(.ARM.exidx), (8 bytes).
    Removing mpu-9250_acc_gyro_mag_driver_ll.o(.ARM.exidx), (8 bytes).
    Removing mpu-9250_acc_gyro_mag_driver_ll.o(.ARM.exidx), (8 bytes).
    Removing mpu-9250_acc_gyro_mag_driver_ll.o(.ARM.exidx), (8 bytes).
    Removing mpu-9250_acc_gyro_mag_driver_ll.o(.ARM.exidx), (8 bytes).
    Removing mpu-9250_acc_gyro_mag_driver_ll.o(.ARM.exidx), (8 bytes).
    Removing mpu-9250_acc_gyro_mag_driver_ll.o(.ARM.exidx), (8 bytes).
    Removing mpu-9250_acc_gyro_mag_driver_ll.o(.ARM.exidx), (8 bytes).
    Removing mpu-9250_acc_gyro_mag_driver_ll.o(.ARM.exidx), (8 bytes).
    Removing mpu-9250_acc_gyro_mag_driver_ll.o(.ARM.exidx), (8 bytes).
    Removing mpu-9250_acc_gyro_mag_driver_ll.o(.ARM.exidx), (8 bytes).
    Removing mpu-9250_acc_gyro_mag_driver_ll.o(.ARM.exidx), (8 bytes).
    Removing mpu-9250_acc_gyro_mag_driver_ll.o(.ARM.exidx), (8 bytes).
    Removing mpu-9250_acc_gyro_mag_driver_ll.o(.ARM.exidx), (8 bytes).
    Removing mpu-9250_acc_gyro_mag_driver_ll.o(.ARM.exidx), (8 bytes).
    Removing mpu-9250_acc_gyro_mag_driver_ll.o(.ARM.exidx), (8 bytes).
    Removing mpu-9250_acc_gyro_mag_driver_ll.o(.ARM.exidx), (8 bytes).
    Removing mpu-9250_acc_gyro_mag_driver_ll.o(.ARM.exidx), (8 bytes).
    Removing mpu-9250_acc_gyro_mag_driver_ll.o(.ARM.exidx), (8 bytes).
    Removing mpu-9250_acc_gyro_mag_driver_ll.o(.ARM.exidx), (8 bytes).
    Removing mpu-9250_acc_gyro_mag_driver_ll.o(.ARM.exidx), (8 bytes).
    Removing mpu-9250_acc_gyro_mag_driver_ll.o(.ARM.exidx), (8 bytes).
    Removing mpu-9250_acc_gyro_mag_driver_ll.o(.ARM.exidx), (8 bytes).
    Removing mpu-9250_acc_gyro_mag_driver_ll.o(.ARM.exidx), (8 bytes).
    Removing mpu-9250_acc_gyro_mag_driver_ll.o(.ARM.exidx), (8 bytes).
    Removing mpu-9250_acc_gyro_mag_driver_ll.o(.ARM.exidx), (8 bytes).
    Removing mpu-9250_acc_gyro_mag_driver_ll.o(.ARM.exidx), (8 bytes).
    Removing mpu-9250_acc_gyro_mag_driver_ll.o(.ARM.exidx), (8 bytes).
    Removing mpu-9250_acc_gyro_mag_driver_ll.o(.ARM.exidx), (8 bytes).
    Removing mpu-9250_acc_gyro_mag_driver_ll.o(.ARM.exidx), (8 bytes).
    Removing mpu-9250_acc_gyro_mag_driver_ll.o(.ARM.exidx), (8 bytes).
    Removing mpu-9250_acc_gyro_mag_driver_ll.o(.ARM.exidx), (8 bytes).
    Removing mpu-9250_acc_gyro_mag_driver_ll.o(.ARM.exidx), (8 bytes).
    Removing mpu-9250_acc_gyro_mag_driver_ll.o(.ARM.exidx), (8 bytes).
    Removing mpu-9250_acc_gyro_mag_driver_ll.o(.ARM.exidx), (8 bytes).
    Removing mpu-9250_acc_gyro_mag_driver_ll.o(.ARM.exidx), (8 bytes).
    Removing mpu-9250_acc_gyro_mag_driver_ll.o(.ARM.exidx), (8 bytes).
    Removing mpu-9250_acc_gyro_mag_driver_ll.o(.ARM.exidx), (8 bytes).
    Removing mpu-9250_acc_gyro_mag_driver_ll.o(.ARM.exidx), (8 bytes).
    Removing mpu-9250_acc_gyro_mag_driver_ll.o(.ARM.exidx), (8 bytes).
    Removing mpu-9250_acc_gyro_mag_driver_ll.o(.ARM.exidx), (8 bytes).
    Removing relay.o(.rev16_text), (4 bytes).
    Removing relay.o(.revsh_text), (4 bytes).
    Removing relay.o(.rrx_text), (6 bytes).
    Removing relay.o(i._ZNK5relay6TRelay2onEv), (10 bytes).
    Removing relay.o(i._ZNK5relay6TRelay3offEv), (14 bytes).
    Removing relay.o(i._ZNK5relay6TRelay6toggleEv), (14 bytes).
    Removing relay.o(.ARM.exidx), (8 bytes).
    Removing relay.o(.ARM.exidx), (8 bytes).
    Removing relay.o(.ARM.exidx), (8 bytes).
    Removing relay.o(.ARM.exidx), (8 bytes).
    Removing relay.o(.ARM.exidx), (8 bytes).
    Removing relay.o(.ARM.exidx), (8 bytes).
    Removing rs-485_phy.o(i._ZN12T_RS_485_phy15get_de_polarityEv), (6 bytes).
    Removing rs-485_phy.o(.ARM.exidx), (8 bytes).
    Removing rs-485_phy.o(.ARM.exidx), (8 bytes).
    Removing rs-485_phy.o(.ARM.exidx), (8 bytes).
    Removing rs-485_phy.o(.ARM.exidx), (8 bytes).
    Removing sn65hvd233d.o(i._ZN11SN65HVD233D7TCANPhy11get_rs_typeEv), (6 bytes).
    Removing sn65hvd233d.o(i._ZN11SN65HVD233D7TCANPhy12get_lbk_typeEv), (6 bytes).
    Removing sn65hvd233d.o(i._ZN11SN65HVD233D7TCANPhy8get_modeEv), (6 bytes).
    Removing sn65hvd233d.o(i._ZN11SN65HVD233D7TCANPhy8get_rateEv), (6 bytes).
    Removing sn65hvd233d.o(i._ZN11SN65HVD233D7TCANPhy8set_modeENS_5TModeE), (4 bytes).
    Removing sn65hvd233d.o(i._ZN11SN65HVD233D7TCANPhy8set_rateENS_5TRateE), (4 bytes).
    Removing sn65hvd233d.o(i._ZN11SN65HVD233D7TCANPhyC1Ev), (16 bytes).
    Removing sn65hvd233d.o(i._ZN11SN65HVD233D7TCANPhyD1Ev), (2 bytes).
    Removing sn65hvd233d.o(.ARM.exidx), (8 bytes).
    Removing sn65hvd233d.o(.ARM.exidx), (8 bytes).
    Removing sn65hvd233d.o(.ARM.exidx), (8 bytes).
    Removing sn65hvd233d.o(.ARM.exidx), (8 bytes).
    Removing sn65hvd233d.o(.ARM.exidx), (8 bytes).
    Removing sn65hvd233d.o(.ARM.exidx), (8 bytes).
    Removing sn65hvd233d.o(.ARM.exidx), (8 bytes).
    Removing sn65hvd233d.o(.ARM.exidx), (8 bytes).
    Removing button.o(.rev16_text), (4 bytes).
    Removing button.o(.revsh_text), (4 bytes).
    Removing button.o(.rrx_text), (6 bytes).
    Removing button.o(.ARM.exidx), (8 bytes).
    Removing button.o(.ARM.exidx), (8 bytes).
    Removing button.o(.ARM.exidx), (8 bytes).
    Removing button.o(.ARM.exidx), (8 bytes).
    Removing button.o(.ARM.exidx), (8 bytes).
    Removing led.o(.rev16_text), (4 bytes).
    Removing led.o(.revsh_text), (4 bytes).
    Removing led.o(.rrx_text), (6 bytes).
    Removing led.o(i._ZN4TLed11free_toggleEv), (14 bytes).
    Removing led.o(.ARM.exidx), (8 bytes).
    Removing led.o(.ARM.exidx), (8 bytes).
    Removing led.o(.ARM.exidx), (8 bytes).
    Removing led.o(.ARM.exidx), (8 bytes).
    Removing led.o(.ARM.exidx), (8 bytes).
    Removing led.o(.ARM.exidx), (8 bytes).
    Removing led.o(.ARM.exidx), (8 bytes).
    Removing led.o(.ARM.exidx), (8 bytes).
    Removing led.o(.ARM.exidx), (8 bytes).
    Removing led.o(.ARM.exidx), (8 bytes).
    Removing angles_cnt.o(.ARM.exidx), (8 bytes).
    Removing angles_cnt.o(.ARM.exidx), (8 bytes).
    Removing angles_cnt.o(.ARM.exidx), (8 bytes).
    Removing angles_cnt.o(.ARM.exidx), (8 bytes).
    Removing angles_cnt.o(.ARM.exidx), (8 bytes).
    Removing angles_cnt.o(.ARM.exidx), (8 bytes).
    Removing angles_cnt.o(.ARM.exidx), (8 bytes).
    Removing angles_cnt.o(.ARM.exidx), (8 bytes).
    Removing angles_cnt.o(.ARM.exidx), (8 bytes).
    Removing angles_cnt.o(.ARM.exidx), (8 bytes).
    Removing angles_cnt.o(.ARM.exidx), (8 bytes).
    Removing angles_cnt.o(.ARM.exidx), (8 bytes).
    Removing angles_cnt.o(.ARM.exidx), (8 bytes).
    Removing angles_cnt.o(.ARM.exidx), (8 bytes).
    Removing angles_cnt.o(.ARM.exidx), (8 bytes).
    Removing angles_cnt.o(.ARM.exidx), (8 bytes).
    Removing angles_cnt.o(.ARM.exidx), (8 bytes).
    Removing angles_cnt.o(.ARM.exidx), (8 bytes).
    Removing angles_cnt.o(.ARM.exidx), (8 bytes).
    Removing angles_cnt.o(.ARM.exidx), (8 bytes).
    Removing angles_cnt.o(.ARM.exidx), (8 bytes).
    Removing angles_cnt.o(.ARM.exidx), (8 bytes).
    Removing angles_cnt.o(.ARM.exidx), (8 bytes).
    Removing angles_cnt.o(.ARM.exidx), (8 bytes).
    Removing angles_cnt.o(.ARM.exidx), (8 bytes).
    Removing angles_cnt.o(.ARM.exidx), (8 bytes).
    Removing angles_cnt.o(.ARM.exidx), (8 bytes).
    Removing angles_cnt.o(.ARM.exidx), (8 bytes).
    Removing angles_cnt.o(.ARM.exidx), (8 bytes).
    Removing main.o(.rev16_text), (4 bytes).
    Removing main.o(.revsh_text), (4 bytes).
    Removing main.o(.rrx_text), (6 bytes).
    Removing main.o(i._Z11err_handlerv), (4 bytes).
    Removing main.o(i._Z29vApplicationStackOverflowHookPPvPa), (16 bytes).
    Removing main.o(.ARM.exidx), (8 bytes).
    Removing main.o(.ARM.exidx), (8 bytes).
    Removing main.o(.ARM.exidx), (8 bytes).
    Removing main.o(.ARM.exidx), (8 bytes).
    Removing main.o(.ARM.exidx), (8 bytes).
    Removing main.o(.ARM.exidx), (8 bytes).
    Removing main.o(.ARM.exidx), (8 bytes).
    Removing main.o(.ARM.exidx), (8 bytes).
    Removing main.o(.ARM.exidx), (8 bytes).
    Removing main.o(.ARM.exidx), (8 bytes).
    Removing main.o(.ARM.exidx), (8 bytes).
    Removing main.o(.ARM.exidx), (8 bytes).
    Removing main.o(.ARM.exidx), (8 bytes).
    Removing main.o(.ARM.exidx), (8 bytes).
    Removing main.o(.ARM.exidx), (8 bytes).
    Removing main.o(.ARM.exidx), (8 bytes).
    Removing main.o(.ARM.exidx), (8 bytes).
    Removing main.o(.ARM.exidx), (8 bytes).
    Removing main.o(.ARM.exidx), (8 bytes).
    Removing main.o(.ARM.exidx), (8 bytes).
    Removing main.o(.ARM.exidx), (8 bytes).
    Removing sensdev.o(.rev16_text), (4 bytes).
    Removing sensdev.o(.revsh_text), (4 bytes).
    Removing sensdev.o(.rrx_text), (6 bytes).
    Removing sensdev.o(i.HardSaveConst), (2 bytes).
    Removing sensdev.o(i.IsEmuMode), (20 bytes).
    Removing sensdev.o(i.LoadConst), (20 bytes).
    Removing sensdev.o(i.ReadConst), (2 bytes).
    Removing sensdev.o(i.ReadTCTab), (2 bytes).
    Removing sensdev.o(i.ReinitMemory), (2 bytes).
    Removing sensdev.o(i.SaveConst), (2 bytes).
    Removing sensdev.o(i.SetTCPnt), (44 bytes).
    Removing sensdev.o(i.TCPProc), (40 bytes).
    Removing sensdev.o(i.ThePredef), (16 bytes).
    Removing sensdev.o(i._Z4MenuhPh), (290 bytes).
    Removing sensdev.o(.ARM.exidx), (8 bytes).
    Removing sensdev.o(.ARM.exidx), (8 bytes).
    Removing sensdev.o(.ARM.exidx), (8 bytes).
    Removing sensdev.o(.ARM.exidx), (8 bytes).
    Removing sensdev.o(.ARM.exidx), (8 bytes).
    Removing sensdev.o(.ARM.exidx), (8 bytes).
    Removing sensdev.o(.ARM.exidx), (8 bytes).
    Removing sensdev.o(.ARM.exidx), (8 bytes).
    Removing sensdev.o(.ARM.exidx), (8 bytes).
    Removing sensdev.o(.ARM.exidx), (8 bytes).
    Removing sensdev.o(.ARM.exidx), (8 bytes).
    Removing sensdev.o(.ARM.exidx), (8 bytes).
    Removing sensdev.o(.bss), (44 bytes).
    Removing sensdev.o(.constdata), (126 bytes).
    Removing hard_config.o(.rev16_text), (4 bytes).
    Removing hard_config.o(.revsh_text), (4 bytes).
    Removing hard_config.o(.rrx_text), (6 bytes).
    Removing hard_config.o(.ARM.exidx), (8 bytes).
    Removing hard_config.o(.ARM.exidx), (8 bytes).
    Removing hard_config.o(.ARM.exidx), (8 bytes).
    Removing dev_determ.o(.rev16_text), (4 bytes).
    Removing dev_determ.o(.revsh_text), (4 bytes).
    Removing dev_determ.o(.rrx_text), (6 bytes).
    Removing dev_determ.o(.ARM.exidx), (8 bytes).
    Removing dev_determ.o(.ARM.exidx), (8 bytes).
    Removing dev_determ.o(.ARM.exidx), (8 bytes).
    Removing dev_determ.o(.ARM.exidx), (8 bytes).
    Removing dev_determ.o(.ARM.exidx), (8 bytes).
    Removing dev_determ.o(.ARM.exidx), (8 bytes).
    Removing dev_determ.o(.ARM.exidx), (8 bytes).
    Removing model.o(.rev16_text), (4 bytes).
    Removing model.o(.revsh_text), (4 bytes).
    Removing model.o(.rrx_text), (6 bytes).
    Removing model.o(i._ZN6TModel11get_if_setsER3TIf), (20 bytes).
    Removing model.o(i._ZN6TModel11set_if_setsERK3TIf), (26 bytes).
    Removing model.o(i._ZN6TModel13get_sens_addrEv), (22 bytes).
    Removing model.o(i._ZN6TModel13set_sens_addrERKh), (26 bytes).
    Removing model.o(i._ZN6TModel14get_flash_dataERN9TSettings10TFlashDataE), (20 bytes).
    Removing model.o(i._ZN6TModel17get_transact_signERh), (20 bytes).
    Removing model.o(i._ZN6TModel17set_transact_signERKh), (20 bytes).
    Removing model.o(i._ZN6TModel19get_flash_prog_signEv), (52 bytes).
    Removing model.o(i._ZN6TModel19set_flash_prog_signERKN9TSettings12TIsFlashProgE), (56 bytes).
    Removing model.o(i._ZN6TModel20get_accel_calib_dataERN9TSettings11TAccCalDataE), (20 bytes).
    Removing model.o(i._ZN6TModel20set_accel_calib_dataERKN9TSettings11TAccCalDataE), (26 bytes).
    Removing model.o(i._ZN6TModel20set_communicate_byteEN9TSettings12TCommunicateE), (18 bytes).
    Removing model.o(i._ZN6TModel22clr_calib_position_ctrENS_11TMemsOrientE), (76 bytes).
    Removing model.o(i._ZN6TModel22get_calib_position_ctrEv), (48 bytes).
    Removing model.o(i._ZN6TModel22set_calib_position_ctrENS_11TMemsOrientE), (88 bytes).
    Removing model.o(i._ZN6TModel8get_setsER10MySettings), (20 bytes).
    Removing model.o(i._ZN6TModel8set_setsERK10MySettings), (26 bytes).
    Removing model.o(.ARM.exidx), (8 bytes).
    Removing model.o(.ARM.exidx), (8 bytes).
    Removing model.o(.ARM.exidx), (8 bytes).
    Removing model.o(.ARM.exidx), (8 bytes).
    Removing model.o(.ARM.exidx), (8 bytes).
    Removing model.o(.ARM.exidx), (8 bytes).
    Removing model.o(.ARM.exidx), (8 bytes).
    Removing model.o(.ARM.exidx), (8 bytes).
    Removing model.o(.ARM.exidx), (8 bytes).
    Removing model.o(.ARM.exidx), (8 bytes).
    Removing model.o(.ARM.exidx), (8 bytes).
    Removing model.o(.ARM.exidx), (8 bytes).
    Removing model.o(.ARM.exidx), (8 bytes).
    Removing model.o(.ARM.exidx), (8 bytes).
    Removing model.o(.ARM.exidx), (8 bytes).
    Removing model.o(.ARM.exidx), (8 bytes).
    Removing model.o(.ARM.exidx), (8 bytes).
    Removing model.o(.ARM.exidx), (8 bytes).
    Removing model.o(.ARM.exidx), (8 bytes).
    Removing model.o(.ARM.exidx), (8 bytes).
    Removing model.o(.ARM.exidx), (8 bytes).
    Removing model.o(.ARM.exidx), (8 bytes).
    Removing model.o(.ARM.exidx), (8 bytes).
    Removing model.o(.ARM.exidx), (8 bytes).
    Removing model.o(.ARM.exidx), (8 bytes).
    Removing model.o(.ARM.exidx), (8 bytes).
    Removing model.o(.ARM.exidx), (8 bytes).
    Removing model.o(.ARM.exidx), (8 bytes).
    Removing model.o(.ARM.exidx), (8 bytes).
    Removing model.o(.ARM.exidx), (8 bytes).
    Removing model.o(.ARM.exidx), (8 bytes).
    Removing model.o(.ARM.exidx), (8 bytes).
    Removing model.o(.ARM.exidx), (8 bytes).
    Removing model.o(.ARM.exidx), (8 bytes).
    Removing model.o(.ARM.exidx), (8 bytes).
    Removing model.o(.ARM.exidx), (8 bytes).
    Removing model.o(.ARM.exidx), (8 bytes).
    Removing model.o(.ARM.exidx), (8 bytes).
    Removing model.o(.ARM.exidx), (8 bytes).
    Removing model.o(.ARM.exidx), (8 bytes).
    Removing model.o(.ARM.exidx), (8 bytes).
    Removing model.o(.ARM.exidx), (8 bytes).
    Removing model.o(.ARM.exidx), (8 bytes).
    Removing model.o(.ARM.exidx), (8 bytes).
    Removing model.o(.ARM.exidx), (8 bytes).
    Removing model.o(.ARM.exidx), (8 bytes).
    Removing model.o(.ARM.exidx), (8 bytes).
    Removing model.o(.ARM.exidx), (8 bytes).
    Removing model.o(.ARM.exidx), (8 bytes).
    Removing model.o(.ARM.exidx), (8 bytes).
    Removing model.o(.ARM.exidx), (8 bytes).
    Removing model.o(.ARM.exidx), (8 bytes).
    Removing model.o(.ARM.exidx), (8 bytes).
    Removing model.o(.ARM.exidx), (8 bytes).
    Removing model.o(.ARM.exidx), (8 bytes).
    Removing model.o(.ARM.exidx), (8 bytes).
    Removing model.o(.ARM.exidx), (8 bytes).
    Removing model.o(.ARM.exidx), (8 bytes).
    Removing model.o(.ARM.exidx), (8 bytes).
    Removing model.o(.ARM.exidx), (8 bytes).
    Removing model.o(.ARM.exidx), (8 bytes).
    Removing model.o(.ARM.exidx), (8 bytes).
    Removing model.o(.ARM.exidx), (8 bytes).
    Removing model.o(.ARM.exidx), (8 bytes).
    Removing model.o(.ARM.exidx), (8 bytes).
    Removing model.o(.ARM.exidx), (8 bytes).
    Removing model.o(.ARM.exidx), (8 bytes).
    Removing model.o(.ARM.exidx), (8 bytes).
    Removing model.o(.ARM.exidx), (8 bytes).
    Removing model.o(.ARM.exidx), (8 bytes).
    Removing model.o(.ARM.exidx), (8 bytes).
    Removing model.o(.ARM.exidx), (8 bytes).
    Removing model.o(.ARM.exidx), (8 bytes).
    Removing model.o(.ARM.exidx), (8 bytes).
    Removing model.o(.ARM.exidx), (8 bytes).
    Removing model.o(.ARM.exidx), (8 bytes).
    Removing model.o(.ARM.exidx), (8 bytes).
    Removing model.o(.ARM.exidx), (8 bytes).
    Removing model.o(.ARM.exidx), (8 bytes).
    Removing model.o(.ARM.exidx), (8 bytes).
    Removing model.o(.ARM.exidx), (8 bytes).
    Removing model.o(.ARM.exidx), (8 bytes).
    Removing model.o(.ARM.exidx), (8 bytes).
    Removing model.o(.ARM.exidx), (8 bytes).
    Removing model.o(.ARM.exidx), (8 bytes).
    Removing model.o(.ARM.exidx), (8 bytes).
    Removing model.o(.ARM.exidx), (8 bytes).
    Removing model.o(.ARM.exidx), (8 bytes).
    Removing model.o(.ARM.exidx), (8 bytes).
    Removing model.o(.ARM.exidx), (8 bytes).
    Removing model.o(.ARM.exidx), (8 bytes).
    Removing model.o(.ARM.exidx), (8 bytes).
    Removing model.o(.ARM.exidx), (8 bytes).
    Removing model.o(.ARM.exidx), (8 bytes).
    Removing model.o(.ARM.exidx), (8 bytes).
    Removing model.o(.ARM.exidx), (8 bytes).
    Removing model.o(.ARM.exidx), (8 bytes).
    Removing model.o(.ARM.exidx), (8 bytes).
    Removing model.o(.ARM.exidx), (8 bytes).
    Removing model.o(.ARM.exidx), (8 bytes).
    Removing model.o(.ARM.exidx), (8 bytes).
    Removing model.o(.ARM.exidx), (8 bytes).
    Removing model.o(.ARM.exidx), (8 bytes).
    Removing model.o(.ARM.exidx), (8 bytes).
    Removing model.o(.ARM.exidx), (8 bytes).
    Removing model.o(.ARM.exidx), (8 bytes).
    Removing model.o(.ARM.exidx), (8 bytes).
    Removing model.o(.ARM.exidx), (8 bytes).
    Removing model.o(.ARM.exidx), (8 bytes).
    Removing model.o(.ARM.exidx), (8 bytes).
    Removing model.o(.ARM.exidx), (8 bytes).
    Removing model.o(.ARM.exidx), (8 bytes).
    Removing model.o(.ARM.exidx), (8 bytes).
    Removing model.o(.ARM.exidx), (8 bytes).
    Removing model.o(.ARM.exidx), (8 bytes).
    Removing model.o(.ARM.exidx), (8 bytes).
    Removing model.o(.ARM.exidx), (8 bytes).
    Removing model.o(.ARM.exidx), (8 bytes).
    Removing median_filter.o(.ARM.exidx), (8 bytes).
    Removing median_filter.o(.ARM.exidx), (8 bytes).
    Removing median_filter.o(.ARM.exidx), (8 bytes).
    Removing usart_driver_.o(.rev16_text), (4 bytes).
    Removing usart_driver_.o(.revsh_text), (4 bytes).
    Removing usart_driver_.o(.rrx_text), (6 bytes).
    Removing usart_driver_.o(i._ZNK6TUsart8get_setsEv), (8 bytes).
    Removing usart_driver_.o(.ARM.exidx), (8 bytes).
    Removing usart_driver_.o(.ARM.exidx), (8 bytes).
    Removing usart_driver_.o(.ARM.exidx), (8 bytes).
    Removing usart_driver_.o(.ARM.exidx), (8 bytes).
    Removing usart_driver_.o(.ARM.exidx), (8 bytes).
    Removing usart_driver_.o(.ARM.exidx), (8 bytes).
    Removing usart_driver_.o(.ARM.exidx), (8 bytes).
    Removing usart_driver_.o(.ARM.exidx), (8 bytes).
    Removing usart_driver_.o(.ARM.exidx), (8 bytes).
    Removing usart_driver_.o(.ARM.exidx), (8 bytes).
    Removing usart_driver_.o(.ARM.exidx), (8 bytes).
    Removing usart_driver_.o(.ARM.exidx), (8 bytes).
    Removing usart_driver_.o(.ARM.exidx), (8 bytes).
    Removing usart_driver_.o(.ARM.exidx), (8 bytes).
    Removing usart_driver_.o(.ARM.exidx), (8 bytes).
    Removing flash_driver.o(.rev16_text), (4 bytes).
    Removing flash_driver.o(.revsh_text), (4 bytes).
    Removing flash_driver.o(.rrx_text), (6 bytes).
    Removing flash_driver.o(i._ZNK6TFlash6rdp_obEv), (68 bytes).
    Removing flash_driver.o(.ARM.exidx), (8 bytes).
    Removing flash_driver.o(.ARM.exidx), (8 bytes).
    Removing flash_driver.o(.ARM.exidx), (8 bytes).
    Removing flash_driver.o(.ARM.exidx), (8 bytes).
    Removing flash_driver.o(.ARM.exidx), (8 bytes).
    Removing flash_driver.o(.ARM.exidx), (8 bytes).
    Removing flash_driver.o(.ARM.exidx), (8 bytes).
    Removing flash_driver.o(.ARM.exidx), (8 bytes).
    Removing flash_driver.o(.ARM.exidx), (8 bytes).
    Removing flash_driver.o(.ARM.exidx), (8 bytes).
    Removing flash_driver.o(.ARM.exidx), (8 bytes).
    Removing flash_driver.o(.ARM.exidx), (8 bytes).
    Removing flash_driver.o(.ARM.exidx), (8 bytes).
    Removing flash_driver.o(.ARM.exidx), (8 bytes).
    Removing flash_driver.o(.ARM.exidx), (8 bytes).
    Removing flash_driver.o(.ARM.exidx), (8 bytes).
    Removing flash_driver.o(.ARM.exidx), (8 bytes).
    Removing i2c_driver.o(.rev16_text), (4 bytes).
    Removing i2c_driver.o(.revsh_text), (4 bytes).
    Removing i2c_driver.o(.rrx_text), (6 bytes).
    Removing i2c_driver.o(i._ZN3I2C4TI2C11write_burstEPhhhh), (132 bytes).
    Removing i2c_driver.o(i._ZNK3I2C4TI2C12get_i2c_signEv), (16 bytes).
    Removing i2c_driver.o(.ARM.exidx), (8 bytes).
    Removing i2c_driver.o(.ARM.exidx), (8 bytes).
    Removing i2c_driver.o(.ARM.exidx), (8 bytes).
    Removing i2c_driver.o(.ARM.exidx), (8 bytes).
    Removing i2c_driver.o(.ARM.exidx), (8 bytes).
    Removing i2c_driver.o(.ARM.exidx), (8 bytes).
    Removing i2c_driver.o(.ARM.exidx), (8 bytes).
    Removing i2c_driver.o(.ARM.exidx), (8 bytes).
    Removing i2c_driver.o(.ARM.exidx), (8 bytes).
    Removing i2c_driver.o(.ARM.exidx), (8 bytes).
    Removing i2c_driver.o(.ARM.exidx), (8 bytes).
    Removing i2c_driver.o(.ARM.exidx), (8 bytes).
    Removing i2c_driver.o(.ARM.exidx), (8 bytes).
    Removing i2c_driver.o(.ARM.exidx), (8 bytes).
    Removing i2c_driver.o(.ARM.exidx), (8 bytes).
    Removing i2c_driver.o(.ARM.exidx), (8 bytes).
    Removing i2c_driver.o(.ARM.exidx), (8 bytes).
    Removing i2c_driver.o(.ARM.exidx), (8 bytes).
    Removing i2c_driver.o(.ARM.exidx), (8 bytes).
    Removing i2c_driver.o(.ARM.exidx), (8 bytes).
    Removing i2c_driver.o(.ARM.exidx), (8 bytes).
    Removing i2c_driver.o(.ARM.exidx), (8 bytes).
    Removing i2c_driver.o(.ARM.exidx), (8 bytes).
    Removing i2c_driver.o(.ARM.exidx), (8 bytes).
    Removing i2c_driver.o(.ARM.exidx), (8 bytes).
    Removing i2c_driver.o(.ARM.exidx), (8 bytes).
    Removing i2c_driver.o(.ARM.exidx), (8 bytes).
    Removing i2c_driver.o(.ARM.exidx), (8 bytes).
    Removing i2c_driver.o(.ARM.exidx), (8 bytes).
    Removing i2c_driver.o(.ARM.exidx), (8 bytes).
    Removing i2c_driver.o(.ARM.exidx), (8 bytes).
    Removing old_flash_lib.o(.rev16_text), (4 bytes).
    Removing old_flash_lib.o(.revsh_text), (4 bytes).
    Removing old_flash_lib.o(.rrx_text), (6 bytes).
    Removing old_flash_lib.o(i._Z15FLASH_OB_Unlockv), (36 bytes).
    Removing old_flash_lib.o(.ARM.exidx), (8 bytes).
    Removing old_flash_lib.o(.ARM.exidx), (8 bytes).
    Removing old_flash_lib.o(.ARM.exidx), (8 bytes).
    Removing old_flash_lib.o(.ARM.exidx), (8 bytes).
    Removing spi_dirver.o(.rev16_text), (4 bytes).
    Removing spi_dirver.o(.revsh_text), (4 bytes).
    Removing spi_dirver.o(.rrx_text), (6 bytes).
    Removing spi_dirver.o(i._ZN36_INTERNAL_14_SPI_dirver_cpp_4f82068420LL_DMA_ClearFlag_TC2EP11DMA_TypeDef), (6 bytes).
    Removing spi_dirver.o(i._ZN36_INTERNAL_14_SPI_dirver_cpp_4f82068420LL_DMA_ClearFlag_TC3EP11DMA_TypeDef), (8 bytes).
    Removing spi_dirver.o(i._ZN36_INTERNAL_14_SPI_dirver_cpp_4f82068420LL_DMA_ClearFlag_TC4EP11DMA_TypeDef), (8 bytes).
    Removing spi_dirver.o(i._ZN36_INTERNAL_14_SPI_dirver_cpp_4f82068420LL_DMA_ClearFlag_TC5EP11DMA_TypeDef), (8 bytes).
    Removing spi_dirver.o(i._ZN36_INTERNAL_14_SPI_dirver_cpp_4f82068423LL_SPI_IsActiveFlag_BSYEP11SPI_TypeDef), (10 bytes).
    Removing spi_dirver.o(i._ZN36_INTERNAL_14_SPI_dirver_cpp_4f82068424LL_AHB1_GRP1_EnableClockEj), (28 bytes).
    Removing spi_dirver.o(i._ZN4TSPI10check_busyEv), (42 bytes).
    Removing spi_dirver.o(i._ZN4TSPI10read_frameEv), (2 bytes).
    Removing spi_dirver.o(i._ZN4TSPI10write_byteEh), (62 bytes).
    Removing spi_dirver.o(i._ZN4TSPI11write_frameEPKhh), (2 bytes).
    Removing spi_dirver.o(i._ZN4TSPI14pin_clk_configEv), (142 bytes).
    Removing spi_dirver.o(i._ZN4TSPI7hw_initEv), (284 bytes).
    Removing spi_dirver.o(i._ZN4TSPI8dma_initEv), (24 bytes).
    Removing spi_dirver.o(i._ZN4TSPIC1ERK7TSpi_HWNS_5TRateE), (26 bytes).
    Removing spi_dirver.o(i._ZN4TSPID1Ev), (2 bytes).
    Removing spi_dirver.o(.ARM.exidx), (8 bytes).
    Removing spi_dirver.o(.ARM.exidx), (8 bytes).
    Removing spi_dirver.o(.ARM.exidx), (8 bytes).
    Removing spi_dirver.o(.ARM.exidx), (8 bytes).
    Removing spi_dirver.o(.ARM.exidx), (8 bytes).
    Removing spi_dirver.o(.ARM.exidx), (8 bytes).
    Removing spi_dirver.o(.ARM.exidx), (8 bytes).
    Removing spi_dirver.o(.ARM.exidx), (8 bytes).
    Removing spi_dirver.o(.ARM.exidx), (8 bytes).
    Removing spi_dirver.o(.ARM.exidx), (8 bytes).
    Removing spi_dirver.o(.ARM.exidx), (8 bytes).
    Removing spi_dirver.o(.ARM.exidx), (8 bytes).
    Removing spi_dirver.o(.ARM.exidx), (8 bytes).
    Removing spi_dirver.o(.ARM.exidx), (8 bytes).
    Removing spi_dirver.o(.ARM.exidx), (8 bytes).
    Removing spi_dirver.o(.constdata), (184 bytes).
    Removing heap_2.o(i.vPortInitialiseBlocks), (2 bytes).
    Removing port.o(i.vPortEndScheduler), (48 bytes).
    Removing queue.o(i.pcQueueGetName), (44 bytes).
    Removing queue.o(i.ucQueueGetQueueType), (8 bytes).
    Removing queue.o(i.uxQueueGetQueueNumber), (6 bytes).
    Removing queue.o(i.uxQueueMessagesWaiting), (42 bytes).
    Removing queue.o(i.uxQueueMessagesWaitingFromISR), (30 bytes).
    Removing queue.o(i.uxQueueSpacesAvailable), (48 bytes).
    Removing queue.o(i.vQueueDelete), (44 bytes).
    Removing queue.o(i.vQueueSetQueueNumber), (4 bytes).
    Removing queue.o(i.vQueueUnregisterQueue), (48 bytes).
    Removing queue.o(i.xQueueCreateCountingSemaphore), (92 bytes).
    Removing queue.o(i.xQueueGetMutexHolder), (26 bytes).
    Removing queue.o(i.xQueueGiveMutexRecursive), (72 bytes).
    Removing queue.o(i.xQueueIsQueueEmptyFromISR), (38 bytes).
    Removing queue.o(i.xQueueIsQueueFullFromISR), (42 bytes).
    Removing queue.o(i.xQueuePeekFromISR), (176 bytes).
    Removing queue.o(i.xQueueReceiveFromISR), (208 bytes).
    Removing queue.o(i.xQueueTakeMutexRecursive), (82 bytes).
    Removing tasks.o(i.eTaskGetState), (132 bytes).
    Removing tasks.o(i.pcTaskGetName), (48 bytes).
    Removing tasks.o(i.prvListTasksWithinSingleList), (106 bytes).
    Removing tasks.o(i.prvTaskCheckFreeStackSpace), (22 bytes).
    Removing tasks.o(i.prvTaskIsTaskSuspended), (88 bytes).
    Removing tasks.o(i.ulTaskNotifyTake), (116 bytes).
    Removing tasks.o(i.uxTaskGetNumberOfTasks), (12 bytes).
    Removing tasks.o(i.uxTaskGetSystemState), (176 bytes).
    Removing tasks.o(i.uxTaskGetTaskNumber), (14 bytes).
    Removing tasks.o(i.uxTaskPriorityGet), (36 bytes).
    Removing tasks.o(i.uxTaskPriorityGetFromISR), (68 bytes).
    Removing tasks.o(i.uxTaskResetEventItemValue), (28 bytes).
    Removing tasks.o(i.vTaskDelayUntil), (212 bytes).
    Removing tasks.o(i.vTaskDelete), (244 bytes).
    Removing tasks.o(i.vTaskEndScheduler), (36 bytes).
    Removing tasks.o(i.vTaskGetInfo), (120 bytes).
    Removing tasks.o(i.vTaskNotifyGiveFromISR), (240 bytes).
    Removing tasks.o(i.vTaskPlaceOnUnorderedEventList), (108 bytes).
    Removing tasks.o(i.vTaskPrioritySet), (276 bytes).
    Removing tasks.o(i.vTaskResume), (144 bytes).
    Removing tasks.o(i.vTaskSetTaskNumber), (8 bytes).
    Removing tasks.o(i.vTaskSuspend), (228 bytes).
    Removing tasks.o(i.xTaskGenericNotify), (260 bytes).
    Removing tasks.o(i.xTaskGenericNotifyFromISR), (330 bytes).
    Removing tasks.o(i.xTaskGetCurrentTaskHandle), (12 bytes).
    Removing tasks.o(i.xTaskGetTickCountFromISR), (20 bytes).
    Removing tasks.o(i.xTaskNotifyStateClear), (52 bytes).
    Removing tasks.o(i.xTaskNotifyWait), (160 bytes).
    Removing tasks.o(i.xTaskRemoveFromUnorderedEventList), (176 bytes).
    Removing tasks.o(i.xTaskResumeFromISR), (180 bytes).
    Removing timers.o(i.pcTimerGetName), (32 bytes).
    Removing timers.o(i.pvTimerGetTimerID), (44 bytes).
    Removing timers.o(i.vTimerSetTimerID), (44 bytes).
    Removing timers.o(i.xTimerGetExpiryTime), (34 bytes).
    Removing timers.o(i.xTimerGetPeriod), (32 bytes).
    Removing timers.o(i.xTimerGetTimerDaemonTaskHandle), (48 bytes).
    Removing modbus_app.o(.rev16_text), (4 bytes).
    Removing modbus_app.o(.revsh_text), (4 bytes).
    Removing modbus_app.o(.rrx_text), (6 bytes).
    Removing modbus_app.o(i._ZN10TModbusApp11cmp_if_setsEv), (140 bytes).
    Removing modbus_app.o(i._ZN10TModbusApp18m_processing_errorEv), (2 bytes).
    Removing modbus_app.o(i._ZN10TModbusApp19m_waiting_for_replyEv), (2 bytes).
    Removing modbus_app.o(i._ZN10TModbusApp26m_waiting_turnaround_delayEv), (2 bytes).
    Removing modbus_app.o(i._ZN10TModbusApp6m_idleEv), (2 bytes).
    Removing modbus_app.o(.ARM.exidx), (8 bytes).
    Removing modbus_app.o(.ARM.exidx), (8 bytes).
    Removing modbus_app.o(.ARM.exidx), (8 bytes).
    Removing modbus_app.o(.ARM.exidx), (8 bytes).
    Removing modbus_app.o(.ARM.exidx), (8 bytes).
    Removing modbus_app.o(.ARM.exidx), (8 bytes).
    Removing modbus_app.o(.ARM.exidx), (8 bytes).
    Removing modbus_app.o(.ARM.exidx), (8 bytes).
    Removing modbus_app.o(.ARM.exidx), (8 bytes).
    Removing modbus_app.o(.ARM.exidx), (8 bytes).
    Removing modbus_app.o(.ARM.exidx), (8 bytes).
    Removing modbus_app.o(.ARM.exidx), (8 bytes).
    Removing modbus_app.o(.ARM.exidx), (8 bytes).
    Removing modbus_app.o(.ARM.exidx), (8 bytes).
    Removing modbus_app.o(.ARM.exidx), (8 bytes).
    Removing modbus_app.o(.ARM.exidx), (8 bytes).
    Removing modbus_app.o(.ARM.exidx), (8 bytes).
    Removing modbus_app.o(.ARM.exidx), (8 bytes).
    Removing modbus_app.o(.ARM.exidx), (8 bytes).
    Removing modbus_app.o(.ARM.exidx), (8 bytes).
    Removing modbus_app.o(.ARM.exidx), (8 bytes).
    Removing modbus_app.o(.ARM.exidx), (8 bytes).
    Removing modbus_app.o(.ARM.exidx), (8 bytes).
    Removing modbus_app.o(.ARM.exidx), (8 bytes).
    Removing modbus_app.o(.ARM.exidx), (8 bytes).
    Removing modbus_app.o(.ARM.exidx), (8 bytes).
    Removing modbus_app.o(.ARM.exidx), (8 bytes).
    Removing modbus_app.o(.ARM.exidx), (8 bytes).
    Removing modbus_app.o(.ARM.exidx), (8 bytes).
    Removing modbus_app.o(.ARM.exidx), (8 bytes).
    Removing modbus_app.o(.ARM.exidx), (8 bytes).
    Removing modbus_app.o(.ARM.exidx), (8 bytes).
    Removing modbus_app.o(.ARM.exidx), (8 bytes).
    Removing modbus_link.o(.rev16_text), (4 bytes).
    Removing modbus_link.o(.revsh_text), (4 bytes).
    Removing modbus_link.o(.rrx_text), (6 bytes).
    Removing modbus_link.o(.ARM.exidx), (8 bytes).
    Removing modbus_link.o(.ARM.exidx), (8 bytes).
    Removing modbus_link.o(.ARM.exidx), (8 bytes).
    Removing modbus_link.o(.ARM.exidx), (8 bytes).
    Removing modbus_link.o(.ARM.exidx), (8 bytes).
    Removing modbus_link.o(.ARM.exidx), (8 bytes).
    Removing modbus_link.o(.ARM.exidx), (8 bytes).
    Removing modbus_link.o(.ARM.exidx), (8 bytes).
    Removing modbus_link.o(.ARM.exidx), (8 bytes).
    Removing modbus_link.o(.ARM.exidx), (8 bytes).
    Removing modbus_link.o(.ARM.exidx), (8 bytes).
    Removing modbus_link.o(.ARM.exidx), (8 bytes).
    Removing modbus_link.o(.ARM.exidx), (8 bytes).
    Removing modbus_link.o(.ARM.exidx), (8 bytes).
    Removing modbus_link.o(.ARM.exidx), (8 bytes).
    Removing modbus_link.o(.ARM.exidx), (8 bytes).
    Removing modbus_link.o(.ARM.exidx), (8 bytes).
    Removing modbus_link.o(.ARM.exidx), (8 bytes).
    Removing modbus_link.o(.ARM.exidx), (8 bytes).
    Removing modbus_link.o(.ARM.exidx), (8 bytes).
    Removing modbus_link.o(.ARM.exidx), (8 bytes).
    Removing modbus_link.o(.ARM.exidx), (8 bytes).
    Removing modbus_link.o(.ARM.exidx), (8 bytes).
    Removing modbus_link.o(.ARM.exidx), (8 bytes).
    Removing modbus_link.o(.ARM.exidx), (8 bytes).
    Removing modbus_link.o(.ARM.exidx), (8 bytes).
    Removing modbus_link.o(.ARM.exidx), (8 bytes).
    Removing modbus_link.o(.ARM.exidx), (8 bytes).
    Removing dev_handlers.o(.rev16_text), (4 bytes).
    Removing dev_handlers.o(.revsh_text), (4 bytes).
    Removing dev_handlers.o(.rrx_text), (6 bytes).
    Removing dev_handlers.o(i._ZN12TDevHandlers20read_position_ctr_hiEj), (32 bytes).
    Removing dev_handlers.o(i._ZN12TDevHandlers20read_position_ctr_loEj), (32 bytes).
    Removing dev_handlers.o(.ARM.exidx), (8 bytes).
    Removing dev_handlers.o(.ARM.exidx), (8 bytes).
    Removing dev_handlers.o(.ARM.exidx), (8 bytes).
    Removing dev_handlers.o(.ARM.exidx), (8 bytes).
    Removing dev_handlers.o(.ARM.exidx), (8 bytes).
    Removing dev_handlers.o(.ARM.exidx), (8 bytes).
    Removing dev_handlers.o(.ARM.exidx), (8 bytes).
    Removing dev_handlers.o(.ARM.exidx), (8 bytes).
    Removing dev_handlers.o(.ARM.exidx), (8 bytes).
    Removing dev_handlers.o(.ARM.exidx), (8 bytes).
    Removing dev_handlers.o(.ARM.exidx), (8 bytes).
    Removing dev_handlers.o(.ARM.exidx), (8 bytes).
    Removing dev_handlers.o(.ARM.exidx), (8 bytes).
    Removing dev_handlers.o(.ARM.exidx), (8 bytes).
    Removing dev_handlers.o(.ARM.exidx), (8 bytes).
    Removing dev_handlers.o(.ARM.exidx), (8 bytes).
    Removing dev_handlers.o(.ARM.exidx), (8 bytes).
    Removing dev_handlers.o(.ARM.exidx), (8 bytes).
    Removing dev_handlers.o(.ARM.exidx), (8 bytes).
    Removing dev_handlers.o(.ARM.exidx), (8 bytes).
    Removing dev_handlers.o(.ARM.exidx), (8 bytes).
    Removing dev_handlers.o(.ARM.exidx), (8 bytes).
    Removing dev_handlers.o(.ARM.exidx), (8 bytes).
    Removing dev_handlers.o(.ARM.exidx), (8 bytes).
    Removing dev_handlers.o(.ARM.exidx), (8 bytes).
    Removing dev_handlers.o(.ARM.exidx), (8 bytes).
    Removing dev_handlers.o(.ARM.exidx), (8 bytes).
    Removing dev_handlers.o(.ARM.exidx), (8 bytes).
    Removing dev_handlers.o(.ARM.exidx), (8 bytes).
    Removing dev_handlers.o(.ARM.exidx), (8 bytes).
    Removing dev_handlers.o(.ARM.exidx), (8 bytes).
    Removing dev_handlers.o(.ARM.exidx), (8 bytes).
    Removing dev_handlers.o(.ARM.exidx), (8 bytes).
    Removing dev_handlers.o(.ARM.exidx), (8 bytes).
    Removing dev_handlers.o(.ARM.exidx), (8 bytes).
    Removing dev_handlers.o(.ARM.exidx), (8 bytes).
    Removing dev_handlers.o(.ARM.exidx), (8 bytes).
    Removing dev_handlers.o(.ARM.exidx), (8 bytes).
    Removing dev_handlers.o(.ARM.exidx), (8 bytes).
    Removing dev_handlers.o(.ARM.exidx), (8 bytes).
    Removing dev_handlers.o(.ARM.exidx), (8 bytes).
    Removing dev_handlers.o(.ARM.exidx), (8 bytes).
    Removing dev_handlers.o(.ARM.exidx), (8 bytes).
    Removing dev_handlers.o(.ARM.exidx), (8 bytes).
    Removing dev_handlers.o(.ARM.exidx), (8 bytes).
    Removing dev_handlers.o(.ARM.exidx), (8 bytes).
    Removing dev_handlers.o(.ARM.exidx), (8 bytes).
    Removing dev_handlers.o(.ARM.exidx), (8 bytes).
    Removing dev_handlers.o(.ARM.exidx), (8 bytes).
    Removing dev_handlers.o(.ARM.exidx), (8 bytes).
    Removing dev_handlers.o(.ARM.exidx), (8 bytes).
    Removing dev_handlers.o(.ARM.exidx), (8 bytes).
    Removing dev_handlers.o(.ARM.exidx), (8 bytes).
    Removing dev_handlers.o(.ARM.exidx), (8 bytes).
    Removing dev_handlers.o(.ARM.exidx), (8 bytes).
    Removing dev_handlers.o(.ARM.exidx), (8 bytes).
    Removing dev_handlers.o(.ARM.exidx), (8 bytes).
    Removing dev_handlers.o(.ARM.exidx), (8 bytes).
    Removing dev_handlers.o(.ARM.exidx), (8 bytes).
    Removing dev_handlers.o(.ARM.exidx), (8 bytes).
    Removing dev_handlers.o(.ARM.exidx), (8 bytes).
    Removing dev_handlers.o(.ARM.exidx), (8 bytes).
    Removing dev_handlers.o(.ARM.exidx), (8 bytes).
    Removing dev_handlers.o(.ARM.exidx), (8 bytes).
    Removing dev_handlers.o(.ARM.exidx), (8 bytes).
    Removing dev_handlers.o(.ARM.exidx), (8 bytes).
    Removing dev_handlers.o(.ARM.exidx), (8 bytes).
    Removing dev_handlers.o(.ARM.exidx), (8 bytes).
    Removing dev_handlers.o(.ARM.exidx), (8 bytes).
    Removing dev_handlers.o(.ARM.exidx), (8 bytes).
    Removing dev_handlers.o(.ARM.exidx), (8 bytes).
    Removing dev_handlers.o(.ARM.exidx), (8 bytes).
    Removing dev_handlers.o(.ARM.exidx), (8 bytes).
    Removing dev_handlers.o(.ARM.exidx), (8 bytes).
    Removing dev_handlers.o(.ARM.exidx), (8 bytes).
    Removing dev_handlers.o(.ARM.exidx), (8 bytes).
    Removing dev_handlers.o(.ARM.exidx), (8 bytes).
    Removing dev_handlers.o(.ARM.exidx), (8 bytes).
    Removing dev_handlers.o(.ARM.exidx), (8 bytes).
    Removing coding_switch.o(.rev16_text), (4 bytes).
    Removing coding_switch.o(.revsh_text), (4 bytes).
    Removing coding_switch.o(.rrx_text), (6 bytes).
    Removing coding_switch.o(.ARM.exidx), (8 bytes).
    Removing coding_switch.o(.ARM.exidx), (8 bytes).
    Removing coding_switch.o(.ARM.exidx), (8 bytes).
    Removing coding_switch.o(.ARM.exidx), (8 bytes).
    Removing coding_switch.o(.ARM.exidx), (8 bytes).
    Removing coding_switch.o(.ARM.exidx), (8 bytes).
    Removing coding_switch.o(.ARM.exidx), (8 bytes).
    Removing coding_switch.o(.ARM.exidx), (8 bytes).
    Removing coding_switch.o(.ARM.exidx), (8 bytes).
    Removing discrete_out.o(.rev16_text), (4 bytes).
    Removing discrete_out.o(.revsh_text), (4 bytes).
    Removing discrete_out.o(.rrx_text), (6 bytes).
    Removing discrete_out.o(i._Z10test_calibh), (44 bytes).
    Removing discrete_out.o(i._ZN12TDiscreteOut11uncalib_accEv), (168 bytes).
    Removing discrete_out.o(i._ZN12TDiscreteOut6toggleEv), (14 bytes).
    Removing discrete_out.o(.ARM.exidx), (8 bytes).
    Removing discrete_out.o(.ARM.exidx), (8 bytes).
    Removing discrete_out.o(.ARM.exidx), (8 bytes).
    Removing discrete_out.o(.ARM.exidx), (8 bytes).
    Removing discrete_out.o(.ARM.exidx), (8 bytes).
    Removing discrete_out.o(.ARM.exidx), (8 bytes).
    Removing discrete_out.o(.ARM.exidx), (8 bytes).
    Removing discrete_out.o(.ARM.exidx), (8 bytes).
    Removing discrete_out.o(.ARM.exidx), (8 bytes).
    Removing discrete_out.o(.ARM.exidx), (8 bytes).
    Removing discrete_out.o(.ARM.exidx), (8 bytes).
    Removing discrete_out.o(.ARM.exidx), (8 bytes).
    Removing discrete_out.o(.constdata), (56 bytes).
    Removing mems.o(.rev16_text), (4 bytes).
    Removing mems.o(.revsh_text), (4 bytes).
    Removing mems.o(.rrx_text), (6 bytes).
    Removing mems.o(i._ZN5TMems10chk_sampleERKN9TSettings10TAccelDataEN6TModel11TMemsOrientE), (188 bytes).
    Removing mems.o(i._ZN5TMems14chk_mems_stateEv), (68 bytes).
    Removing mems.o(i._ZN5TMems8cnt_dampERU8__packedfff), (30 bytes).
    Removing mems.o(i._ZN5TMems8wait_semEPKN6TModel4TSemES3_PS3_), (78 bytes).
    Removing mems.o(i._ZN5TMems9acc_calibEv), (558 bytes).
    Removing mems.o(.ARM.exidx), (8 bytes).
    Removing mems.o(.ARM.exidx), (8 bytes).
    Removing mems.o(.ARM.exidx), (8 bytes).
    Removing mems.o(.ARM.exidx), (8 bytes).
    Removing mems.o(.ARM.exidx), (8 bytes).
    Removing mems.o(.ARM.exidx), (8 bytes).
    Removing mems.o(.ARM.exidx), (8 bytes).
    Removing mems.o(.ARM.exidx), (8 bytes).
    Removing mems.o(.ARM.exidx), (8 bytes).
    Removing mems.o(.ARM.exidx), (8 bytes).
    Removing mems.o(.ARM.exidx), (8 bytes).
    Removing mems.o(.ARM.exidx), (8 bytes).
    Removing mems.o(.ARM.exidx), (8 bytes).
    Removing mems.o(.constdata), (144 bytes).
    Removing settings.o(.rev16_text), (4 bytes).
    Removing settings.o(.revsh_text), (4 bytes).
    Removing settings.o(.rrx_text), (6 bytes).
    Removing settings.o(i._ZN9TSettings7chk_devER10MySettings), (224 bytes).
    Removing settings.o(.ARM.exidx), (8 bytes).
    Removing settings.o(.ARM.exidx), (8 bytes).
    Removing settings.o(.ARM.exidx), (8 bytes).
    Removing settings.o(.ARM.exidx), (8 bytes).
    Removing settings.o(.ARM.exidx), (8 bytes).
    Removing settings.o(.ARM.exidx), (8 bytes).
    Removing settings.o(.ARM.exidx), (8 bytes).
    Removing settings.o(.ARM.exidx), (8 bytes).
    Removing settings.o(.ARM.exidx), (8 bytes).
    Removing settings.o(.ARM.exidx), (8 bytes).
    Removing settings.o(.ARM.exidx), (8 bytes).
    Removing settings.o(.ARM.exidx), (8 bytes).
    Removing settings.o(.ARM.exidx), (8 bytes).
    Removing settings.o(.ARM.exidx), (8 bytes).
    Removing settings.o(.ARM.exidx), (8 bytes).
    Removing base_to_pc.o(.rev16_text), (4 bytes).
    Removing base_to_pc.o(.revsh_text), (4 bytes).
    Removing base_to_pc.o(.rrx_text), (6 bytes).
    Removing base_to_pc.o(i._ZN36_INTERNAL_14_base_to_pc_cpp_BaseToPc11addr_determEv), (48 bytes).
    Removing base_to_pc.o(.ARM.exidx), (8 bytes).
    Removing base_to_pc.o(.ARM.exidx), (8 bytes).
    Removing base_to_pc.o(.ARM.exidx), (8 bytes).
    Removing base_to_sens.o(.rev16_text), (4 bytes).
    Removing base_to_sens.o(.revsh_text), (4 bytes).
    Removing base_to_sens.o(.rrx_text), (6 bytes).
    Removing base_to_sens.o(.ARM.exidx), (8 bytes).
    Removing base_to_sens.o(.ARM.exidx), (8 bytes).
    Removing base_to_sens.o(.ARM.exidx), (8 bytes).
    Removing base_to_sens.o(.ARM.exidx), (8 bytes).
    Removing base_to_sens.o(.ARM.exidx), (8 bytes).
    Removing base_to_sens.o(.ARM.exidx), (8 bytes).
    Removing base_to_sens.o(.ARM.exidx), (8 bytes).
    Removing dev_ctrl.o(.rev16_text), (4 bytes).
    Removing dev_ctrl.o(.revsh_text), (4 bytes).
    Removing dev_ctrl.o(.rrx_text), (6 bytes).
    Removing dev_ctrl.o(.ARM.exidx), (8 bytes).
    Removing dev_ctrl.o(.ARM.exidx), (8 bytes).
    Removing dev_ctrl.o(.ARM.exidx), (8 bytes).
    Removing dev_ctrl.o(.ARM.exidx), (8 bytes).
    Removing dev_ctrl.o(.ARM.exidx), (8 bytes).
    Removing dev_ctrl.o(.ARM.exidx), (8 bytes).
    Removing dev_ctrl.o(.ARM.exidx), (8 bytes).
    Removing dev_ctrl.o(.ARM.exidx), (8 bytes).
    Removing dev_ctrl.o(.ARM.exidx), (8 bytes).
    Removing dev_ctrl.o(.ARM.exidx), (8 bytes).
    Removing dev_ctrl.o(.ARM.exidx), (8 bytes).
    Removing dev_ctrl.o(.ARM.exidx), (8 bytes).
    Removing sens_to_master.o(.rev16_text), (4 bytes).
    Removing sens_to_master.o(.revsh_text), (4 bytes).
    Removing sens_to_master.o(.rrx_text), (6 bytes).
    Removing sens_to_master.o(.ARM.exidx), (8 bytes).
    Removing sens_to_master.o(.ARM.exidx), (8 bytes).
    Removing sens_to_master.o(.ARM.exidx), (8 bytes).
    Removing logger_ctrl.o(.rev16_text), (4 bytes).
    Removing logger_ctrl.o(.revsh_text), (4 bytes).
    Removing logger_ctrl.o(.rrx_text), (6 bytes).
    Removing logger_ctrl.o(.ARM.exidx), (8 bytes).
    Removing logger_ctrl.o(.ARM.exidx), (8 bytes).
    Removing logger_ctrl.o(.ARM.exidx), (8 bytes).
    Removing led_ctrl.o(.rev16_text), (4 bytes).
    Removing led_ctrl.o(.revsh_text), (4 bytes).
    Removing led_ctrl.o(.rrx_text), (6 bytes).
    Removing led_ctrl.o(.ARM.exidx), (8 bytes).
    Removing button_poll.o(.rev16_text), (4 bytes).
    Removing button_poll.o(.revsh_text), (4 bytes).
    Removing button_poll.o(.rrx_text), (6 bytes).
    Removing button_poll.o(.ARM.exidx), (8 bytes).
    Removing button_poll.o(.ARM.exidx), (8 bytes).
    Removing errproc.o(.rev16_text), (4 bytes).
    Removing errproc.o(.revsh_text), (4 bytes).
    Removing errproc.o(.rrx_text), (6 bytes).
    Removing errproc.o(i.ErrProc), (72 bytes).
    Removing errproc.o(i.SetErr), (44 bytes).
    Removing errproc.o(.bss), (64 bytes).
    Removing errproc.o(.constdata), (56 bytes).
    Removing line_wrapper_spl_to_ll.o(.rev16_text), (4 bytes).
    Removing line_wrapper_spl_to_ll.o(.revsh_text), (4 bytes).
    Removing line_wrapper_spl_to_ll.o(.rrx_text), (6 bytes).
    Removing line_wrapper_spl_to_ll.o(i.EXTI_Init), (108 bytes).
    Removing line_wrapper_spl_to_ll.o(i.GPIO_Init), (78 bytes).
    Removing line_wrapper_spl_to_ll.o(i.GPIO_ResetBits), (16 bytes).
    Removing line_wrapper_spl_to_ll.o(i.GPIO_WriteBit), (40 bytes).
    Removing line_wrapper_spl_to_ll.o(i.RCC_APB1PeriphClockCmd), (88 bytes).
    Removing line_wrapper_spl_to_ll.o(i.RCC_GetClocksFreq), (76 bytes).
    Removing line_wrapper_spl_to_ll.o(i.SYSCFG_EXTILineConfig), (76 bytes).
    Removing line_wrapper_spl_to_ll.o(i.TIM_Cmd), (68 bytes).
    Removing line_wrapper_spl_to_ll.o(i.TIM_DeInit), (12 bytes).
    Removing line_wrapper_spl_to_ll.o(i.TIM_GetCounter), (8 bytes).
    Removing line_wrapper_spl_to_ll.o(i.TIM_GetITStatus), (30 bytes).
    Removing line_wrapper_spl_to_ll.o(i.TIM_InternalClockConfig), (20 bytes).
    Removing line_wrapper_spl_to_ll.o(i.TIM_OC1Init), (64 bytes).
    Removing line_wrapper_spl_to_ll.o(i.TIM_OC2Init), (64 bytes).
    Removing line_wrapper_spl_to_ll.o(i.TIM_OC3Init), (74 bytes).
    Removing line_wrapper_spl_to_ll.o(i.TIM_TimeBaseInit), (28 bytes).
    Removing line_wrapper_spl_to_ll.o(i.TIM_TimeBaseStructInit), (18 bytes).
    Removing line_wrapper_spl_to_ll.o(i._ZN48_INTERNAL_26_Line_wrapper_SPL_to_LL_cpp_34a2820717LL_TIM_OC_SetModeEP11TIM_TypeDefjj), (132 bytes).
    Removing line_wrapper_spl_to_ll.o(i._ZN48_INTERNAL_26_Line_wrapper_SPL_to_LL_cpp_34a2820721LL_TIM_OC_SetPolarityEP11TIM_TypeDefjj), (108 bytes).
    Removing line_wrapper_spl_to_ll.o(i._ZN48_INTERNAL_26_Line_wrapper_SPL_to_LL_cpp_34a2820722LL_GPIO_ResetOutputPinEP12GPIO_TypeDefj), (4 bytes).
    Removing line_wrapper_spl_to_ll.o(i._ZN48_INTERNAL_26_Line_wrapper_SPL_to_LL_cpp_34a2820723LL_TIM_IsEnabledCounterEP11TIM_TypeDef), (10 bytes).
    Removing line_wrapper_spl_to_ll.o(i._ZN48_INTERNAL_26_Line_wrapper_SPL_to_LL_cpp_34a2820723LL_TIM_OC_SetCompareCH1EP11TIM_TypeDefj), (4 bytes).
    Removing line_wrapper_spl_to_ll.o(i._ZN48_INTERNAL_26_Line_wrapper_SPL_to_LL_cpp_34a2820724LL_TIM_CC_DisableChannelEP11TIM_TypeDefj), (8 bytes).
    Removing line_wrapper_spl_to_ll.o(i._ZN48_INTERNAL_26_Line_wrapper_SPL_to_LL_cpp_34a2820724LL_TIM_IC_SetActiveInputEP11TIM_TypeDefjj), (128 bytes).
    Removing line_wrapper_spl_to_ll.o(i._ZN48_INTERNAL_26_Line_wrapper_SPL_to_LL_cpp_34a2820727LL_APB1_GRP1_IsEnabledClockEj), (24 bytes).
    Removing line_wrapper_spl_to_ll.o(.ARM.exidx), (8 bytes).
    Removing line_wrapper_spl_to_ll.o(.ARM.exidx), (8 bytes).
    Removing line_wrapper_spl_to_ll.o(.ARM.exidx), (8 bytes).
    Removing line_wrapper_spl_to_ll.o(.ARM.exidx), (8 bytes).
    Removing line_wrapper_spl_to_ll.o(.ARM.exidx), (8 bytes).
    Removing line_wrapper_spl_to_ll.o(.ARM.exidx), (8 bytes).
    Removing line_wrapper_spl_to_ll.o(.ARM.exidx), (8 bytes).
    Removing line_wrapper_spl_to_ll.o(.ARM.exidx), (8 bytes).
    Removing line_wrapper_spl_to_ll.o(.ARM.exidx), (8 bytes).
    Removing line_wrapper_spl_to_ll.o(.ARM.exidx), (8 bytes).
    Removing line_wrapper_spl_to_ll.o(.ARM.exidx), (8 bytes).
    Removing line_wrapper_spl_to_ll.o(.ARM.exidx), (8 bytes).
    Removing line_wrapper_spl_to_ll.o(.ARM.exidx), (8 bytes).
    Removing line_wrapper_spl_to_ll.o(.ARM.exidx), (8 bytes).
    Removing line_wrapper_spl_to_ll.o(.ARM.exidx), (8 bytes).
    Removing line_wrapper_spl_to_ll.o(.ARM.exidx), (8 bytes).
    Removing line_wrapper_spl_to_ll.o(.ARM.exidx), (8 bytes).
    Removing line_wrapper_spl_to_ll.o(.ARM.exidx), (8 bytes).
    Removing line_wrapper_spl_to_ll.o(.ARM.exidx), (8 bytes).
    Removing line_wrapper_spl_to_ll.o(.ARM.exidx), (8 bytes).
    Removing line_wrapper_spl_to_ll.o(.ARM.exidx), (8 bytes).
    Removing line_wrapper_spl_to_ll.o(.ARM.exidx), (8 bytes).
    Removing line_wrapper_spl_to_ll.o(.ARM.exidx), (8 bytes).
    Removing line_wrapper_spl_to_ll.o(.ARM.exidx), (8 bytes).
    Removing line_wrapper_spl_to_ll.o(.ARM.exidx), (8 bytes).
    Removing line_wrapper_spl_to_ll.o(.ARM.exidx), (8 bytes).
    Removing line_wrapper_spl_to_ll.o(.ARM.exidx), (8 bytes).
    Removing line_wrapper_spl_to_ll.o(.ARM.exidx), (8 bytes).
    Removing line_wrapper_spl_to_ll.o(.ARM.exidx), (8 bytes).
    Removing line_wrapper_spl_to_ll.o(.ARM.exidx), (8 bytes).
    Removing line_wrapper_spl_to_ll.o(.ARM.exidx), (8 bytes).
    Removing line_wrapper_spl_to_ll.o(.ARM.exidx), (8 bytes).
    Removing line_wrapper_spl_to_ll.o(.ARM.exidx), (8 bytes).
    Removing line_wrapper_spl_to_ll.o(.ARM.exidx), (8 bytes).
    Removing line_wrapper_spl_to_ll.o(.ARM.exidx), (8 bytes).
    Removing line_wrapper_spl_to_ll.o(.ARM.exidx), (8 bytes).
    Removing line_wrapper_spl_to_ll.o(.ARM.exidx), (8 bytes).
    Removing line_wrapper_spl_to_ll.o(.ARM.exidx), (8 bytes).
    Removing sens_types.o(.rev16_text), (4 bytes).
    Removing sens_types.o(.revsh_text), (4 bytes).
    Removing sens_types.o(.rrx_text), (6 bytes).
    Removing sens_types.o(i.SetMainFlag), (32 bytes).
    Removing sens_types.o(.bss), (68 bytes).
    Removing sens_types.o(.data), (8 bytes).
    Removing sensline.o(.rev16_text), (4 bytes).
    Removing sensline.o(.revsh_text), (4 bytes).
    Removing sensline.o(.rrx_text), (6 bytes).
    Removing sensline.o(i.BlockST), (36 bytes).
    Removing sensline.o(i.CheckBSTr), (24 bytes).
    Removing sensline.o(i.CheckZZZ), (60 bytes).
    Removing sensline.o(i.ConfigSENS), (376 bytes).
    Removing sensline.o(i.DisableTIM), (14 bytes).
    Removing sensline.o(i.EnableTIM), (22 bytes).
    Removing sensline.o(i.GetBSBuf), (60 bytes).
    Removing sensline.o(i.GetInput), (12 bytes).
    Removing sensline.o(i.GetLstTime), (8 bytes).
    Removing sensline.o(i.GetNC), (40 bytes).
    Removing sensline.o(i.NextBit), (292 bytes).
    Removing sensline.o(i.RemovePkg), (168 bytes).
    Removing sensline.o(i.SensGetPkg), (124 bytes).
    Removing sensline.o(i.SensSendPkg), (252 bytes).
    Removing sensline.o(i.SetBSBuf), (12 bytes).
    Removing sensline.o(i.SetOut), (26 bytes).
    Removing sensline.o(i.StopSENS), (58 bytes).
    Removing sensline.o(i.TIM3_IRQHandler), (1376 bytes).
    Removing sensline.o(i.UnblockST), (92 bytes).
    Removing sensline.o(i.getssec), (16 bytes).
    Removing sensline.o(i.tdlt), (28 bytes).
    Removing sensline.o(i.zgetssec), (20 bytes).
    Removing sensline.o(.constdata), (52 bytes).
    Removing sensproc.o(.rev16_text), (4 bytes).
    Removing sensproc.o(.revsh_text), (4 bytes).
    Removing sensproc.o(.rrx_text), (6 bytes).
    Removing sensproc.o(i.CheckPSWD), (164 bytes).
    Removing sensproc.o(i.FindParam), (32 bytes).
    Removing sensproc.o(i.FloatToS3B), (36 bytes).
    Removing sensproc.o(i.GetAccessMode), (12 bytes).
    Removing sensproc.o(i.GetReadOnly), (4 bytes).
    Removing sensproc.o(i.ReadInt16), (28 bytes).
    Removing sensproc.o(i.ResetAccess), (20 bytes).
    Removing sensproc.o(i.S3BToFloat), (56 bytes).
    Removing sensproc.o(i.SensAnswerPkg), (2086 bytes).
    Removing sensproc.o(i.SetSaveData), (20 bytes).
    Removing sensproc.o(i.WriteInt16), (18 bytes).
    Removing sensproc.o(i.iserr), (26 bytes).
    Removing sensproc.o(i.isok), (34 bytes).
    Removing sensproc.o(i.theerr), (20 bytes).
    Removing sensproc.o(.constdata), (52 bytes).
    Removing sensproc.o(.data), (20 bytes).
    Removing system_stm32l4xx.o(.rev16_text), (4 bytes).
    Removing system_stm32l4xx.o(.revsh_text), (4 bytes).
    Removing system_stm32l4xx.o(.rrx_text), (6 bytes).
    Removing system_stm32l4xx.o(i.SystemCoreClockUpdate), (236 bytes).
    Removing stm32l4xx_ll_dma.o(.rev16_text), (4 bytes).
    Removing stm32l4xx_ll_dma.o(.revsh_text), (4 bytes).
    Removing stm32l4xx_ll_dma.o(.rrx_text), (6 bytes).
    Removing stm32l4xx_ll_dma.o(i.LL_AHB1_GRP1_ForceReset), (16 bytes).
    Removing stm32l4xx_ll_dma.o(i.LL_AHB1_GRP1_ReleaseReset), (16 bytes).
    Removing stm32l4xx_ll_dma.o(i.LL_DMA_DeInit), (440 bytes).
    Removing stm32l4xx_ll_dma.o(i.LL_DMA_StructInit), (26 bytes).
    Removing stm32l4xx_ll_exti.o(.rev16_text), (4 bytes).
    Removing stm32l4xx_ll_exti.o(.revsh_text), (4 bytes).
    Removing stm32l4xx_ll_exti.o(.rrx_text), (6 bytes).
    Removing stm32l4xx_ll_exti.o(i.LL_EXTI_DeInit), (76 bytes).
    Removing stm32l4xx_ll_exti.o(i.LL_EXTI_StructInit), (16 bytes).
    Removing stm32l4xx_ll_gpio.o(.rev16_text), (4 bytes).
    Removing stm32l4xx_ll_gpio.o(.revsh_text), (4 bytes).
    Removing stm32l4xx_ll_gpio.o(.rrx_text), (6 bytes).
    Removing stm32l4xx_ll_gpio.o(i.LL_AHB2_GRP1_ForceReset), (16 bytes).
    Removing stm32l4xx_ll_gpio.o(i.LL_AHB2_GRP1_ReleaseReset), (16 bytes).
    Removing stm32l4xx_ll_gpio.o(i.LL_GPIO_DeInit), (152 bytes).
    Removing stm32l4xx_ll_gpio.o(i.LL_GPIO_StructInit), (22 bytes).
    Removing stm32l4xx_ll_i2c.o(.rev16_text), (4 bytes).
    Removing stm32l4xx_ll_i2c.o(.revsh_text), (4 bytes).
    Removing stm32l4xx_ll_i2c.o(.rrx_text), (6 bytes).
    Removing stm32l4xx_ll_i2c.o(i.LL_APB1_GRP1_ForceReset), (16 bytes).
    Removing stm32l4xx_ll_i2c.o(i.LL_APB1_GRP1_ReleaseReset), (16 bytes).
    Removing stm32l4xx_ll_i2c.o(i.LL_I2C_DeInit), (96 bytes).
    Removing stm32l4xx_ll_i2c.o(i.LL_I2C_StructInit), (24 bytes).
    Removing stm32l4xx_ll_rcc.o(.rev16_text), (4 bytes).
    Removing stm32l4xx_ll_rcc.o(.revsh_text), (4 bytes).
    Removing stm32l4xx_ll_rcc.o(.rrx_text), (6 bytes).
    Removing stm32l4xx_ll_rcc.o(i.LL_RCC_DeInit), (188 bytes).
    Removing stm32l4xx_ll_rcc.o(i.LL_RCC_GetADCClockFreq), (72 bytes).
    Removing stm32l4xx_ll_rcc.o(i.LL_RCC_GetI2CClockFreq), (252 bytes).
    Removing stm32l4xx_ll_rcc.o(i.LL_RCC_GetI2CClockSource), (36 bytes).
    Removing stm32l4xx_ll_rcc.o(i.LL_RCC_GetLPTIMClockFreq), (208 bytes).
    Removing stm32l4xx_ll_rcc.o(i.LL_RCC_GetLPTIMClockSource), (20 bytes).
    Removing stm32l4xx_ll_rcc.o(i.LL_RCC_GetLPUARTClockFreq), (108 bytes).
    Removing stm32l4xx_ll_rcc.o(i.LL_RCC_GetRNGClockFreq), (168 bytes).
    Removing stm32l4xx_ll_rcc.o(i.LL_RCC_GetSAIClockFreq), (92 bytes).
    Removing stm32l4xx_ll_rcc.o(i.LL_RCC_GetSDMMCClockFreq), (168 bytes).
