; generated by Component: ARM Compiler 5.06 update 4 (build 422) Tool: ArmCC [4d3604]
; commandline ArmCC [--cpp11 --list --split_sections --debug -c --asm --interleave -o.\objects\mpu-9250_acc_gyro_mag_driver_ll.o --asm_dir=.\Listings\ --list_dir=.\Listings\ --depend=.\objects\mpu-9250_acc_gyro_mag_driver_ll.d --cpu=Cortex-M4.fp --apcs=interwork -O0 --diag_suppress=9931 -I".\STM32L4 Low Layer drivers\inc" -I"..\Lib\CRC Modbus\inc" -I.\Source\Core\inc -I.\Source\Protocols\inc -I.\Source\Ext_Dev\inc -I.\Source\Ext_Dev\inc\LSM6DS3 -I.\Source\Ext_Dev\inc\LSM303DLHC -I.\Source\Ext_Dev\inc\MPU-9250 -I.\Source\Line\inc -I.\Source\Main\inc -I.\Source\MCU_Drivers\inc -I.\Source\MCU_Drivers\inc -I.\Source\MotionTL\inc -I.\Source\RTOS\inc -I.\Source\Tasks\inc -I..\Lib\Objects -I.\Source\Ext_Dev\inc\AT45 -I.\RTE\_DEBUG -IC:\Keil_v5\ARM\PACK\Keil\STM32L4xx_DFP\2.2.0\Drivers\CMSIS\Device\ST\STM32L4xx\Include -IC:\Keil_v5\ARM\CMSIS\Include -D__MICROLIB -D__UVISION_VERSION=523 -DSTM32L431xx -DHSE_VALUE=8000000 -DUSE_FULL_LL_DRIVER -DSTM32L431xx -DDEBUG --omf_browse=.\objects\mpu-9250_acc_gyro_mag_driver_ll.crf Source\Ext_Dev\src\MPU-9250_acc_gyro_mag_driver_ll.cpp]
                          THUMB

                          AREA ||i._ZN8MPU_925020TAccGyroMagDriver_LL10cycle_ctrlEPhNS_9VSetResetE||, CODE, READONLY, ALIGN=1

                  _ZN8MPU_925020TAccGyroMagDriver_LL10cycle_ctrlEPhNS_9VSetResetE PROC ; MPU_9250::TAccGyroMagDriver_LL::cycle_ctrl(unsigned char*, MPU_9250::VSetReset)
;;;1241     
;;;1242     uint8_t TAccGyroMagDriver_LL::cycle_ctrl(uint8_t *const Byte, VSetReset CYCLE)
000000  b530              PUSH     {r4,r5,lr}
;;;1243     {
000002  4604              MOV      r4,r0
;;;1244       TCycleCtrl Reg;
;;;1245       operate(Byte, CYCLE, Reg);
000004  4608              MOV      r0,r1
000006  4613              MOV      r3,r2
000008  b118              CBZ      r0,|L1.18|
00000a  7805              LDRB     r5,[r0,#0]
00000c  f3631545          BFI      r5,r3,#5,#1
000010  7005              STRB     r5,[r0,#0]
                  |L1.18|
000012  bf00              NOP      
;;;1246       return reg_gyro_acc::PWR_MGMT_1;
000014  206b              MOVS     r0,#0x6b
;;;1247     }
000016  bd30              POP      {r4,r5,pc}
;;;1248     
                          ENDP


                          AREA ||i._ZN8MPU_925020TAccGyroMagDriver_LL10sleep_ctrlEPhNS_9VSetResetE||, CODE, READONLY, ALIGN=1

                  _ZN8MPU_925020TAccGyroMagDriver_LL10sleep_ctrlEPhNS_9VSetResetE PROC ; MPU_9250::TAccGyroMagDriver_LL::sleep_ctrl(unsigned char*, MPU_9250::VSetReset)
;;;1234     
;;;1235     uint8_t TAccGyroMagDriver_LL::sleep_ctrl(uint8_t *const Byte, VSetReset SLEEP)
000000  b530              PUSH     {r4,r5,lr}
;;;1236     {
000002  4604              MOV      r4,r0
;;;1237       TSleepCtrl Reg;
;;;1238       operate(Byte, SLEEP, Reg);
000004  4608              MOV      r0,r1
000006  4613              MOV      r3,r2
000008  b118              CBZ      r0,|L2.18|
00000a  7805              LDRB     r5,[r0,#0]
00000c  f3631586          BFI      r5,r3,#6,#1
000010  7005              STRB     r5,[r0,#0]
                  |L2.18|
000012  bf00              NOP      
;;;1239       return reg_gyro_acc::PWR_MGMT_1;
000014  206b              MOVS     r0,#0x6b
;;;1240     }
000016  bd30              POP      {r4,r5,pc}
;;;1241     
                          ENDP


                          AREA ||i._ZN8MPU_925020TAccGyroMagDriver_LL11gyro_x_ctrlEPhNS_6VEnDisE||, CODE, READONLY, ALIGN=1

                  _ZN8MPU_925020TAccGyroMagDriver_LL11gyro_x_ctrlEPhNS_6VEnDisE PROC ; MPU_9250::TAccGyroMagDriver_LL::gyro_x_ctrl(unsigned char*, MPU_9250::VEnDis)
;;;1292     
;;;1293     uint8_t TAccGyroMagDriver_LL::gyro_x_ctrl(uint8_t *const Byte, VEnDis DISABLE_XG)
000000  b530              PUSH     {r4,r5,lr}
;;;1294     {
000002  4604              MOV      r4,r0
;;;1295       TGyroXCtrl Reg;
;;;1296       operate(Byte, DISABLE_XG, Reg);
000004  4608              MOV      r0,r1
000006  4613              MOV      r3,r2
000008  b118              CBZ      r0,|L3.18|
00000a  7805              LDRB     r5,[r0,#0]
00000c  f3630582          BFI      r5,r3,#2,#1
000010  7005              STRB     r5,[r0,#0]
                  |L3.18|
000012  bf00              NOP      
;;;1297       return reg_gyro_acc::PWR_MGMT_2;
000014  206c              MOVS     r0,#0x6c
;;;1298     }
000016  bd30              POP      {r4,r5,pc}
;;;1299     
                          ENDP


                          AREA ||i._ZN8MPU_925020TAccGyroMagDriver_LL11gyro_y_ctrlEPhNS_6VEnDisE||, CODE, READONLY, ALIGN=1

                  _ZN8MPU_925020TAccGyroMagDriver_LL11gyro_y_ctrlEPhNS_6VEnDisE PROC ; MPU_9250::TAccGyroMagDriver_LL::gyro_y_ctrl(unsigned char*, MPU_9250::VEnDis)
;;;1299     
;;;1300     uint8_t TAccGyroMagDriver_LL::gyro_y_ctrl(uint8_t *const Byte, VEnDis DISABLE_YG)
000000  b530              PUSH     {r4,r5,lr}
;;;1301     {
000002  4604              MOV      r4,r0
;;;1302       TGyroYCtrl Reg;
;;;1303       operate(Byte, DISABLE_YG, Reg);
000004  4608              MOV      r0,r1
000006  4613              MOV      r3,r2
000008  b118              CBZ      r0,|L4.18|
00000a  7805              LDRB     r5,[r0,#0]
00000c  f3630541          BFI      r5,r3,#1,#1
000010  7005              STRB     r5,[r0,#0]
                  |L4.18|
000012  bf00              NOP      
;;;1304       return reg_gyro_acc::PWR_MGMT_2;
000014  206c              MOVS     r0,#0x6c
;;;1305     }
000016  bd30              POP      {r4,r5,pc}
;;;1306     
                          ENDP


                          AREA ||i._ZN8MPU_925020TAccGyroMagDriver_LL11gyro_z_ctrlEPhNS_6VEnDisE||, CODE, READONLY, ALIGN=1

                  _ZN8MPU_925020TAccGyroMagDriver_LL11gyro_z_ctrlEPhNS_6VEnDisE PROC ; MPU_9250::TAccGyroMagDriver_LL::gyro_z_ctrl(unsigned char*, MPU_9250::VEnDis)
;;;1306     
;;;1307     uint8_t TAccGyroMagDriver_LL::gyro_z_ctrl(uint8_t *const Byte, VEnDis DISABLE_ZG)
000000  b530              PUSH     {r4,r5,lr}
;;;1308     {
000002  4604              MOV      r4,r0
;;;1309       TGyroZCtrl Reg;
;;;1310       operate(Byte, DISABLE_ZG, Reg);
000004  4608              MOV      r0,r1
000006  4613              MOV      r3,r2
000008  b118              CBZ      r0,|L5.18|
00000a  7805              LDRB     r5,[r0,#0]
00000c  f3630500          BFI      r5,r3,#0,#1
000010  7005              STRB     r5,[r0,#0]
                  |L5.18|
000012  bf00              NOP      
;;;1311       return reg_gyro_acc::PWR_MGMT_2;
000014  206c              MOVS     r0,#0x6c
;;;1312     }
000016  bd30              POP      {r4,r5,pc}
;;;1313     
                          ENDP


                          AREA ||i._ZN8MPU_925020TAccGyroMagDriver_LL11slv0_enableEPhNS_6VEnDisE||, CODE, READONLY, ALIGN=1

                  _ZN8MPU_925020TAccGyroMagDriver_LL11slv0_enableEPhNS_6VEnDisE PROC ; MPU_9250::TAccGyroMagDriver_LL::slv0_enable(unsigned char*, MPU_9250::VEnDis)
;;;393      
;;;394      uint8_t TAccGyroMagDriver_LL::slv0_enable(uint8_t *const Byte, VEnDis I2C_SLV0_EN)
000000  b530              PUSH     {r4,r5,lr}
;;;395      {
000002  4604              MOV      r4,r0
;;;396        TSlv0Enable Reg;
;;;397    	 operate(Byte, I2C_SLV0_EN, Reg);
000004  4608              MOV      r0,r1
000006  4613              MOV      r3,r2
000008  b118              CBZ      r0,|L6.18|
00000a  7805              LDRB     r5,[r0,#0]
00000c  f36315c7          BFI      r5,r3,#7,#1
000010  7005              STRB     r5,[r0,#0]
                  |L6.18|
000012  bf00              NOP      
;;;398        return reg_gyro_acc::I2C_SLV0_CTRL;
000014  2027              MOVS     r0,#0x27
;;;399      }
000016  bd30              POP      {r4,r5,pc}
;;;400      
                          ENDP


                          AREA ||i._ZN8MPU_925020TAccGyroMagDriver_LL12accel_x_ctrlEPhNS_6VEnDisE||, CODE, READONLY, ALIGN=1

                  _ZN8MPU_925020TAccGyroMagDriver_LL12accel_x_ctrlEPhNS_6VEnDisE PROC ; MPU_9250::TAccGyroMagDriver_LL::accel_x_ctrl(unsigned char*, MPU_9250::VEnDis)
;;;1271     
;;;1272     uint8_t TAccGyroMagDriver_LL::accel_x_ctrl(uint8_t *const Byte, VEnDis DISABLE_XA)
000000  b530              PUSH     {r4,r5,lr}
;;;1273     {
000002  4604              MOV      r4,r0
;;;1274       TAccelXCtrl Reg;
;;;1275       operate(Byte, DISABLE_XA, Reg);
000004  4608              MOV      r0,r1
000006  4613              MOV      r3,r2
000008  b118              CBZ      r0,|L7.18|
00000a  7805              LDRB     r5,[r0,#0]
00000c  f3631545          BFI      r5,r3,#5,#1
000010  7005              STRB     r5,[r0,#0]
                  |L7.18|
000012  bf00              NOP      
;;;1276       return reg_gyro_acc::PWR_MGMT_2;
000014  206c              MOVS     r0,#0x6c
;;;1277     }
000016  bd30              POP      {r4,r5,pc}
;;;1278     
                          ENDP


                          AREA ||i._ZN8MPU_925020TAccGyroMagDriver_LL12accel_y_ctrlEPhNS_6VEnDisE||, CODE, READONLY, ALIGN=1

                  _ZN8MPU_925020TAccGyroMagDriver_LL12accel_y_ctrlEPhNS_6VEnDisE PROC ; MPU_9250::TAccGyroMagDriver_LL::accel_y_ctrl(unsigned char*, MPU_9250::VEnDis)
;;;1278     
;;;1279     uint8_t TAccGyroMagDriver_LL::accel_y_ctrl(uint8_t *const Byte, VEnDis DISABLE_YA)
000000  b530              PUSH     {r4,r5,lr}
;;;1280     {
000002  4604              MOV      r4,r0
;;;1281       TAccelYCtrl Reg;
;;;1282       operate(Byte, DISABLE_YA, Reg);
000004  4608              MOV      r0,r1
000006  4613              MOV      r3,r2
000008  b118              CBZ      r0,|L8.18|
00000a  7805              LDRB     r5,[r0,#0]
00000c  f3631504          BFI      r5,r3,#4,#1
000010  7005              STRB     r5,[r0,#0]
                  |L8.18|
000012  bf00              NOP      
;;;1283       return reg_gyro_acc::PWR_MGMT_2;
000014  206c              MOVS     r0,#0x6c
;;;1284     }
000016  bd30              POP      {r4,r5,pc}
;;;1285     
                          ENDP


                          AREA ||i._ZN8MPU_925020TAccGyroMagDriver_LL12accel_z_ctrlEPhNS_6VEnDisE||, CODE, READONLY, ALIGN=1

                  _ZN8MPU_925020TAccGyroMagDriver_LL12accel_z_ctrlEPhNS_6VEnDisE PROC ; MPU_9250::TAccGyroMagDriver_LL::accel_z_ctrl(unsigned char*, MPU_9250::VEnDis)
;;;1285     
;;;1286     uint8_t TAccGyroMagDriver_LL::accel_z_ctrl(uint8_t *const Byte, VEnDis DISABLE_ZA)
000000  b530              PUSH     {r4,r5,lr}
;;;1287     {
000002  4604              MOV      r4,r0
;;;1288       TAccelZCtrl Reg;
;;;1289       operate(Byte, DISABLE_ZA, Reg);
000004  4608              MOV      r0,r1
000006  4613              MOV      r3,r2
000008  b118              CBZ      r0,|L9.18|
00000a  7805              LDRB     r5,[r0,#0]
00000c  f36305c3          BFI      r5,r3,#3,#1
000010  7005              STRB     r5,[r0,#0]
                  |L9.18|
000012  bf00              NOP      
;;;1290       return reg_gyro_acc::PWR_MGMT_2;
000014  206c              MOVS     r0,#0x6c
;;;1291     }
000016  bd30              POP      {r4,r5,pc}
;;;1292     
                          ENDP


                          AREA ||i._ZN8MPU_925020TAccGyroMagDriver_LL12fsync_enableEPhNS_6VEnDisE||, CODE, READONLY, ALIGN=1

                  _ZN8MPU_925020TAccGyroMagDriver_LL12fsync_enableEPhNS_6VEnDisE PROC ; MPU_9250::TAccGyroMagDriver_LL::fsync_enable(unsigned char*, MPU_9250::VEnDis)
;;;749      
;;;750      uint8_t TAccGyroMagDriver_LL::fsync_enable(uint8_t *const Byte, VEnDis FSYNC_INT_MODE_EN)
000000  b530              PUSH     {r4,r5,lr}
;;;751      {
000002  4604              MOV      r4,r0
;;;752        TFsyncEnable Reg;
;;;753        operate(Byte, FSYNC_INT_MODE_EN, Reg);
000004  4608              MOV      r0,r1
000006  4613              MOV      r3,r2
000008  b118              CBZ      r0,|L10.18|
00000a  7805              LDRB     r5,[r0,#0]
00000c  f3630582          BFI      r5,r3,#2,#1
000010  7005              STRB     r5,[r0,#0]
                  |L10.18|
000012  bf00              NOP      
;;;754        return reg_gyro_acc::INT_PIN_CFG;
000014  2037              MOVS     r0,#0x37
;;;755      }
000016  bd30              POP      {r4,r5,pc}
;;;756      
                          ENDP


                          AREA ||i._ZN8MPU_925020TAccGyroMagDriver_LL12mag_overflowEhPNS_11VStatusFlagE||, CODE, READONLY, ALIGN=1

                  _ZN8MPU_925020TAccGyroMagDriver_LL12mag_overflowEhPNS_11VStatusFlagE PROC ; MPU_9250::TAccGyroMagDriver_LL::mag_overflow(unsigned char, MPU_9250::VStatusFlag*)
;;;1457     
;;;1458     uint8_t TAccGyroMagDriver_LL::mag_overflow(const uint8_t Byte, VStatusFlag *HOFL)
000000  b518              PUSH     {r3,r4,lr}
;;;1459     {
000002  4603              MOV      r3,r0
;;;1460   	 TMagSensorOvrf Reg;
;;;1461   	 read(Byte, HOFL, Reg);
000004  4610              MOV      r0,r2
000006  9100              STR      r1,[sp,#0]
000008  b120              CBZ      r0,|L11.20|
00000a  f89d4000          LDRB     r4,[sp,#0]
00000e  f3c404c0          UBFX     r4,r4,#3,#1
000012  7004              STRB     r4,[r0,#0]
                  |L11.20|
000014  bf00              NOP      
;;;1462       return reg_mag::ST2;
000016  2009              MOVS     r0,#9
;;;1463     }
000018  bd18              POP      {r3,r4,pc}
;;;1464     
                          ENDP


                          AREA ||i._ZN8MPU_925020TAccGyroMagDriver_LL12slv0_rx_nackEhPNS_11VStatusFlagE||, CODE, READONLY, ALIGN=1

                  _ZN8MPU_925020TAccGyroMagDriver_LL12slv0_rx_nackEhPNS_11VStatusFlagE PROC ; MPU_9250::TAccGyroMagDriver_LL::slv0_rx_nack(unsigned char, MPU_9250::VStatusFlag*)
;;;705      
;;;706      uint8_t TAccGyroMagDriver_LL::slv0_rx_nack(const uint8_t Byte, VStatusFlag *I2C_SLV0_NACK)
000000  b518              PUSH     {r3,r4,lr}
;;;707      {
000002  4603              MOV      r3,r0
;;;708        TSlv0RxNack Reg;
;;;709        read(Byte, I2C_SLV0_NACK, Reg);
000004  4610              MOV      r0,r2
000006  9100              STR      r1,[sp,#0]
000008  b120              CBZ      r0,|L12.20|
00000a  f89d4000          LDRB     r4,[sp,#0]
00000e  f0040401          AND      r4,r4,#1
000012  7004              STRB     r4,[r0,#0]
                  |L12.20|
000014  bf00              NOP      
;;;710        return reg_gyro_acc::I2C_MST_STATUS;
000016  2036              MOVS     r0,#0x36
;;;711      }
000018  bd18              POP      {r3,r4,pc}
;;;712      
                          ENDP


                          AREA ||i._ZN8MPU_925020TAccGyroMagDriver_LL12slv1_rx_nackEhPNS_11VStatusFlagE||, CODE, READONLY, ALIGN=1

                  _ZN8MPU_925020TAccGyroMagDriver_LL12slv1_rx_nackEhPNS_11VStatusFlagE PROC ; MPU_9250::TAccGyroMagDriver_LL::slv1_rx_nack(unsigned char, MPU_9250::VStatusFlag*)
;;;698      
;;;699      uint8_t TAccGyroMagDriver_LL::slv1_rx_nack(const uint8_t Byte, VStatusFlag *I2C_SLV1_NACK)
000000  b518              PUSH     {r3,r4,lr}
;;;700      {
000002  4603              MOV      r3,r0
;;;701        TSlv1RxNack Reg;
;;;702        read(Byte, I2C_SLV1_NACK, Reg);
000004  4610              MOV      r0,r2
000006  9100              STR      r1,[sp,#0]
000008  b120              CBZ      r0,|L13.20|
00000a  f89d4000          LDRB     r4,[sp,#0]
00000e  f3c40440          UBFX     r4,r4,#1,#1
000012  7004              STRB     r4,[r0,#0]
                  |L13.20|
000014  bf00              NOP      
;;;703        return reg_gyro_acc::I2C_MST_STATUS;
000016  2036              MOVS     r0,#0x36
;;;704      }
000018  bd18              POP      {r3,r4,pc}
;;;705      
                          ENDP


                          AREA ||i._ZN8MPU_925020TAccGyroMagDriver_LL12slv2_rx_nackEhPNS_11VStatusFlagE||, CODE, READONLY, ALIGN=1

                  _ZN8MPU_925020TAccGyroMagDriver_LL12slv2_rx_nackEhPNS_11VStatusFlagE PROC ; MPU_9250::TAccGyroMagDriver_LL::slv2_rx_nack(unsigned char, MPU_9250::VStatusFlag*)
;;;691      
;;;692      uint8_t TAccGyroMagDriver_LL::slv2_rx_nack(const uint8_t Byte, VStatusFlag *I2C_SLV2_NACK)
000000  b518              PUSH     {r3,r4,lr}
;;;693      {
000002  4603              MOV      r3,r0
;;;694        TSlv2RxNack Reg;
;;;695        read(Byte, I2C_SLV2_NACK, Reg);
000004  4610              MOV      r0,r2
000006  9100              STR      r1,[sp,#0]
000008  b120              CBZ      r0,|L14.20|
00000a  f89d4000          LDRB     r4,[sp,#0]
00000e  f3c40480          UBFX     r4,r4,#2,#1
000012  7004              STRB     r4,[r0,#0]
                  |L14.20|
000014  bf00              NOP      
;;;696        return reg_gyro_acc::I2C_MST_STATUS;
000016  2036              MOVS     r0,#0x36
;;;697      }
000018  bd18              POP      {r3,r4,pc}
;;;698      
                          ENDP


                          AREA ||i._ZN8MPU_925020TAccGyroMagDriver_LL12slv3_rx_nackEhPNS_11VStatusFlagE||, CODE, READONLY, ALIGN=1

                  _ZN8MPU_925020TAccGyroMagDriver_LL12slv3_rx_nackEhPNS_11VStatusFlagE PROC ; MPU_9250::TAccGyroMagDriver_LL::slv3_rx_nack(unsigned char, MPU_9250::VStatusFlag*)
;;;684      
;;;685      uint8_t TAccGyroMagDriver_LL::slv3_rx_nack(const uint8_t Byte, VStatusFlag *I2C_SLV3_NACK)
000000  b518              PUSH     {r3,r4,lr}
;;;686      {
000002  4603              MOV      r3,r0
;;;687        TSlv3RxNack Reg;
;;;688        read(Byte, I2C_SLV3_NACK, Reg);
000004  4610              MOV      r0,r2
000006  9100              STR      r1,[sp,#0]
000008  b120              CBZ      r0,|L15.20|
00000a  f89d4000          LDRB     r4,[sp,#0]
00000e  f3c404c0          UBFX     r4,r4,#3,#1
000012  7004              STRB     r4,[r0,#0]
                  |L15.20|
000014  bf00              NOP      
;;;689        return reg_gyro_acc::I2C_MST_STATUS;
000016  2036              MOVS     r0,#0x36
;;;690      }
000018  bd18              POP      {r3,r4,pc}
;;;691      
                          ENDP


                          AREA ||i._ZN8MPU_925020TAccGyroMagDriver_LL12slv4_rx_nackEhPNS_11VStatusFlagE||, CODE, READONLY, ALIGN=1

                  _ZN8MPU_925020TAccGyroMagDriver_LL12slv4_rx_nackEhPNS_11VStatusFlagE PROC ; MPU_9250::TAccGyroMagDriver_LL::slv4_rx_nack(unsigned char, MPU_9250::VStatusFlag*)
;;;677      
;;;678      uint8_t TAccGyroMagDriver_LL::slv4_rx_nack(const uint8_t Byte, VStatusFlag *I2C_SLV4_NACK)
000000  b518              PUSH     {r3,r4,lr}
;;;679      {
000002  4603              MOV      r3,r0
;;;680        TSlv4RxNack Reg;
;;;681        read(Byte, I2C_SLV4_NACK, Reg);
000004  4610              MOV      r0,r2
000006  9100              STR      r1,[sp,#0]
000008  b120              CBZ      r0,|L16.20|
00000a  f89d4000          LDRB     r4,[sp,#0]
00000e  f3c41400          UBFX     r4,r4,#4,#1
000012  7004              STRB     r4,[r0,#0]
                  |L16.20|
000014  bf00              NOP      
;;;682        return reg_gyro_acc::I2C_MST_STATUS;
000016  2036              MOVS     r0,#0x36
;;;683      }
000018  bd18              POP      {r3,r4,pc}
;;;684      
                          ENDP


                          AREA ||i._ZN8MPU_925020TAccGyroMagDriver_LL14fifo_mode_ctrlEPhNS_6VEnDisE||, CODE, READONLY, ALIGN=1

                  _ZN8MPU_925020TAccGyroMagDriver_LL14fifo_mode_ctrlEPhNS_6VEnDisE PROC ; MPU_9250::TAccGyroMagDriver_LL::fifo_mode_ctrl(unsigned char*, MPU_9250::VEnDis)
;;;1183     
;;;1184     uint8_t TAccGyroMagDriver_LL::fifo_mode_ctrl(uint8_t *const Byte, VEnDis FIFO_EN)
000000  b530              PUSH     {r4,r5,lr}
;;;1185     {
000002  4604              MOV      r4,r0
;;;1186       TFifoModeCtrl Reg;
;;;1187       operate(Byte, FIFO_EN, Reg);
000004  4608              MOV      r0,r1
000006  4613              MOV      r3,r2
000008  b118              CBZ      r0,|L17.18|
00000a  7805              LDRB     r5,[r0,#0]
00000c  f3631586          BFI      r5,r3,#6,#1
000010  7005              STRB     r5,[r0,#0]
                  |L17.18|
000012  bf00              NOP      
;;;1188       return reg_gyro_acc::USER_CTRL;
000014  206a              MOVS     r0,#0x6a
;;;1189     }
000016  bd30              POP      {r4,r5,pc}
;;;1190     
                          ENDP


                          AREA ||i._ZN8MPU_925020TAccGyroMagDriver_LL14fsync_int_ctrlEPhNS_6VEnDisE||, CODE, READONLY, ALIGN=1

                  _ZN8MPU_925020TAccGyroMagDriver_LL14fsync_int_ctrlEPhNS_6VEnDisE PROC ; MPU_9250::TAccGyroMagDriver_LL::fsync_int_ctrl(unsigned char*, MPU_9250::VEnDis)
;;;786      
;;;787      uint8_t TAccGyroMagDriver_LL::fsync_int_ctrl(uint8_t *const Byte, VEnDis FSYNC_INT_EN)
000000  b530              PUSH     {r4,r5,lr}
;;;788      {
000002  4604              MOV      r4,r0
;;;789        TFsyncIntCtrl Reg;
;;;790        operate(Byte, FSYNC_INT_EN, Reg);
000004  4608              MOV      r0,r1
000006  4613              MOV      r3,r2
000008  b118              CBZ      r0,|L18.18|
00000a  7805              LDRB     r5,[r0,#0]
00000c  f36305c3          BFI      r5,r3,#3,#1
000010  7005              STRB     r5,[r0,#0]
                  |L18.18|
000012  bf00              NOP      
;;;791        return reg_gyro_acc::INT_ENABLE;
000014  2038              MOVS     r0,#0x38
;;;792      }
000016  bd30              POP      {r4,r5,pc}
;;;793      
                          ENDP


                          AREA ||i._ZN8MPU_925020TAccGyroMagDriver_LL14int_latch_ctrlEPhNS_9VLatchINTE||, CODE, READONLY, ALIGN=1

                  _ZN8MPU_925020TAccGyroMagDriver_LL14int_latch_ctrlEPhNS_9VLatchINTE PROC ; MPU_9250::TAccGyroMagDriver_LL::int_latch_ctrl(unsigned char*, MPU_9250::VLatchINT)
;;;728      
;;;729      uint8_t TAccGyroMagDriver_LL::int_latch_ctrl(uint8_t *const Byte, VLatchINT LATCH_INT_EN)
000000  b530              PUSH     {r4,r5,lr}
;;;730      {
000002  4604              MOV      r4,r0
;;;731        TIntLatchCtrl Reg;
;;;732        operate(Byte, LATCH_INT_EN, Reg);
000004  4608              MOV      r0,r1
000006  4613              MOV      r3,r2
000008  b118              CBZ      r0,|L19.18|
00000a  7805              LDRB     r5,[r0,#0]
00000c  f3631545          BFI      r5,r3,#5,#1
000010  7005              STRB     r5,[r0,#0]
                  |L19.18|
000012  bf00              NOP      
;;;733        return reg_gyro_acc::INT_PIN_CFG;
000014  2037              MOVS     r0,#0x37
;;;734      }
000016  bd30              POP      {r4,r5,pc}
;;;735      
                          ENDP


                          AREA ||i._ZN8MPU_925020TAccGyroMagDriver_LL14int_pin_configEPhNS_13VPinConfigINTE||, CODE, READONLY, ALIGN=1

                  _ZN8MPU_925020TAccGyroMagDriver_LL14int_pin_configEPhNS_13VPinConfigINTE PROC ; MPU_9250::TAccGyroMagDriver_LL::int_pin_config(unsigned char*, MPU_9250::VPinConfigINT)
;;;721      
;;;722      uint8_t TAccGyroMagDriver_LL::int_pin_config(uint8_t *const Byte, VPinConfigINT OPEN)
000000  b530              PUSH     {r4,r5,lr}
;;;723      {
000002  4604              MOV      r4,r0
;;;724        TIntPinConfig Reg;
;;;725        operate(Byte, OPEN, Reg);
000004  4608              MOV      r0,r1
000006  4613              MOV      r3,r2
000008  b118              CBZ      r0,|L20.18|
00000a  7805              LDRB     r5,[r0,#0]
00000c  f3631586          BFI      r5,r3,#6,#1
000010  7005              STRB     r5,[r0,#0]
                  |L20.18|
000012  bf00              NOP      
;;;726        return reg_gyro_acc::INT_PIN_CFG;
000014  2037              MOVS     r0,#0x37
;;;727      }
000016  bd30              POP      {r4,r5,pc}
;;;728      
                          ENDP


                          AREA ||i._ZN8MPU_925020TAccGyroMagDriver_LL14mag_data_readyEhPNS_11VStatusFlagE||, CODE, READONLY, ALIGN=1

                  _ZN8MPU_925020TAccGyroMagDriver_LL14mag_data_readyEhPNS_11VStatusFlagE PROC ; MPU_9250::TAccGyroMagDriver_LL::mag_data_ready(unsigned char, MPU_9250::VStatusFlag*)
;;;1403     
;;;1404     uint8_t TAccGyroMagDriver_LL::mag_data_ready(const uint8_t Byte, VStatusFlag *DOR)
000000  b518              PUSH     {r3,r4,lr}
;;;1405     {
000002  4603              MOV      r3,r0
;;;1406       TDataReady Reg;
;;;1407   	 read(Byte, DOR, Reg);
000004  4610              MOV      r0,r2
000006  9100              STR      r1,[sp,#0]
000008  b120              CBZ      r0,|L21.20|
00000a  f89d4000          LDRB     r4,[sp,#0]
00000e  f0040401          AND      r4,r4,#1
000012  7004              STRB     r4,[r0,#0]
                  |L21.20|
000014  bf00              NOP      
;;;1408       return reg_mag::ST1;
000016  2002              MOVS     r0,#2
;;;1409     }
000018  bd18              POP      {r3,r4,pc}
;;;1410     
                          ENDP


                          AREA ||i._ZN8MPU_925020TAccGyroMagDriver_LL15int_logic_levelEPhNS_14VLogicLevelINTE||, CODE, READONLY, ALIGN=1

                  _ZN8MPU_925020TAccGyroMagDriver_LL15int_logic_levelEPhNS_14VLogicLevelINTE PROC ; MPU_9250::TAccGyroMagDriver_LL::int_logic_level(unsigned char*, MPU_9250::VLogicLevelINT)
;;;714      
;;;715      uint8_t TAccGyroMagDriver_LL::int_logic_level(uint8_t *const Byte, VLogicLevelINT ACTL)
000000  b530              PUSH     {r4,r5,lr}
;;;716      {
000002  4604              MOV      r4,r0
;;;717        TIntLogicLevel Reg;
;;;718        operate(Byte, ACTL, Reg);
000004  4608              MOV      r0,r1
000006  4613              MOV      r3,r2
000008  b118              CBZ      r0,|L22.18|
00000a  7805              LDRB     r5,[r0,#0]
00000c  f36315c7          BFI      r5,r3,#7,#1
000010  7005              STRB     r5,[r0,#0]
                  |L22.18|
000012  bf00              NOP      
;;;719        return reg_gyro_acc::INT_PIN_CFG;
000014  2037              MOVS     r0,#0x37
;;;720      }
000016  bd30              POP      {r4,r5,pc}
;;;721      
                          ENDP


                          AREA ||i._ZN8MPU_925020TAccGyroMagDriver_LL15int_status_ctrlEPhNS_6VEnDisE||, CODE, READONLY, ALIGN=1

                  _ZN8MPU_925020TAccGyroMagDriver_LL15int_status_ctrlEPhNS_6VEnDisE PROC ; MPU_9250::TAccGyroMagDriver_LL::int_status_ctrl(unsigned char*, MPU_9250::VEnDis)
;;;735      
;;;736      uint8_t TAccGyroMagDriver_LL::int_status_ctrl(uint8_t *const Byte, VEnDis INT_ANYRD_2CLEAR)
000000  b530              PUSH     {r4,r5,lr}
;;;737      {
000002  4604              MOV      r4,r0
;;;738        TIntStatusCtrl Reg;
;;;739        operate(Byte, INT_ANYRD_2CLEAR, Reg);
000004  4608              MOV      r0,r1
000006  4613              MOV      r3,r2
000008  b118              CBZ      r0,|L23.18|
00000a  7805              LDRB     r5,[r0,#0]
00000c  f3631504          BFI      r5,r3,#4,#1
000010  7005              STRB     r5,[r0,#0]
                  |L23.18|
000012  bf00              NOP      
;;;740        return reg_gyro_acc::INT_PIN_CFG;
000014  2037              MOVS     r0,#0x37
;;;741      }
000016  bd30              POP      {r4,r5,pc}
;;;742      
                          ENDP


                          AREA ||i._ZN8MPU_925020TAccGyroMagDriver_LL15mag_i2c_disableEPh||, CODE, READONLY, ALIGN=1

                  _ZN8MPU_925020TAccGyroMagDriver_LL15mag_i2c_disableEPh PROC ; MPU_9250::TAccGyroMagDriver_LL::mag_i2c_disable(unsigned char*)
;;;1521     
;;;1522     uint8_t TAccGyroMagDriver_LL::mag_i2c_disable(uint8_t *const Byte)
000000  4602              MOV      r2,r0
;;;1523     {	 
;;;1524       *Byte = 0x1B;
000002  201b              MOVS     r0,#0x1b
000004  7008              STRB     r0,[r1,#0]
;;;1525       return reg_mag::I2CDIS;
000006  200f              MOVS     r0,#0xf
;;;1526     }
000008  4770              BX       lr
;;;1527     
                          ENDP


                          AREA ||i._ZN8MPU_925020TAccGyroMagDriver_LL15slv0_group_dataEPhNS_6VEnDisE||, CODE, READONLY, ALIGN=1

                  _ZN8MPU_925020TAccGyroMagDriver_LL15slv0_group_dataEPhNS_6VEnDisE PROC ; MPU_9250::TAccGyroMagDriver_LL::slv0_group_data(unsigned char*, MPU_9250::VEnDis)
;;;414      
;;;415      uint8_t TAccGyroMagDriver_LL::slv0_group_data(uint8_t *const Byte, VEnDis I2C_SLV0_GRP)
000000  b530              PUSH     {r4,r5,lr}
;;;416      {
000002  4604              MOV      r4,r0
;;;417        TSlv0GroupData Reg;
;;;418    	 operate(Byte, I2C_SLV0_GRP, Reg);
000004  4608              MOV      r0,r1
000006  4613              MOV      r3,r2
000008  b118              CBZ      r0,|L25.18|
00000a  7805              LDRB     r5,[r0,#0]
00000c  f3631504          BFI      r5,r3,#4,#1
000010  7005              STRB     r5,[r0,#0]
                  |L25.18|
000012  bf00              NOP      
;;;419        return reg_gyro_acc::I2C_SLV0_CTRL;
000014  2027              MOVS     r0,#0x27
;;;420      }
000016  bd30              POP      {r4,r5,pc}
;;;421      
                          ENDP


                          AREA ||i._ZN8MPU_925020TAccGyroMagDriver_LL15slv0_swap_bytesEPhNS_6VEnDisE||, CODE, READONLY, ALIGN=1

                  _ZN8MPU_925020TAccGyroMagDriver_LL15slv0_swap_bytesEPhNS_6VEnDisE PROC ; MPU_9250::TAccGyroMagDriver_LL::slv0_swap_bytes(unsigned char*, MPU_9250::VEnDis)
;;;400      
;;;401      uint8_t TAccGyroMagDriver_LL::slv0_swap_bytes(uint8_t *const Byte, VEnDis I2C_SLV0_BYTE_SW)
000000  b530              PUSH     {r4,r5,lr}
;;;402      {
000002  4604              MOV      r4,r0
;;;403        TSlv0SwapBytes Reg;
;;;404    	 operate(Byte, I2C_SLV0_BYTE_SW, Reg);
000004  4608              MOV      r0,r1
000006  4613              MOV      r3,r2
000008  b118              CBZ      r0,|L26.18|
00000a  7805              LDRB     r5,[r0,#0]
00000c  f3631586          BFI      r5,r3,#6,#1
000010  7005              STRB     r5,[r0,#0]
                  |L26.18|
000012  bf00              NOP      
;;;405        return reg_gyro_acc::I2C_SLV0_CTRL;
000014  2027              MOVS     r0,#0x27
;;;406      }
000016  bd30              POP      {r4,r5,pc}
;;;407      
                          ENDP


                          AREA ||i._ZN8MPU_925020TAccGyroMagDriver_LL16clock_src_choiseEPhNS_15VClockSrcChoiseE||, CODE, READONLY, ALIGN=1

                  _ZN8MPU_925020TAccGyroMagDriver_LL16clock_src_choiseEPhNS_15VClockSrcChoiseE PROC ; MPU_9250::TAccGyroMagDriver_LL::clock_src_choise(unsigned char*, MPU_9250::VClockSrcChoise)
;;;1262     
;;;1263     uint8_t TAccGyroMagDriver_LL::clock_src_choise(uint8_t *const Byte, VClockSrcChoise CLKSEL)
000000  b530              PUSH     {r4,r5,lr}
;;;1264     {
000002  4604              MOV      r4,r0
;;;1265       TClockSrcChoise Reg;
;;;1266       operate(Byte, CLKSEL, Reg);
000004  4608              MOV      r0,r1
000006  4613              MOV      r3,r2
000008  b118              CBZ      r0,|L27.18|
00000a  7805              LDRB     r5,[r0,#0]
00000c  f3630502          BFI      r5,r3,#0,#3
000010  7005              STRB     r5,[r0,#0]
                  |L27.18|
000012  bf00              NOP      
;;;1267       return reg_gyro_acc::PWR_MGMT_1;
000014  206b              MOVS     r0,#0x6b
;;;1268     }
000016  bd30              POP      {r4,r5,pc}
;;;1269     
                          ENDP


                          AREA ||i._ZN8MPU_925020TAccGyroMagDriver_LL16fifo_mode_configEPhNS_15VFifoModeConfigE||, CODE, READONLY, ALIGN=1

                  _ZN8MPU_925020TAccGyroMagDriver_LL16fifo_mode_configEPhNS_15VFifoModeConfigE PROC ; MPU_9250::TAccGyroMagDriver_LL::fifo_mode_config(unsigned char*, MPU_9250::VFifoModeConfig)
;;;130      
;;;131      uint8_t TAccGyroMagDriver_LL::fifo_mode_config(uint8_t *const Byte, VFifoModeConfig FIFO_MODE)
000000  b530              PUSH     {r4,r5,lr}
;;;132      {
000002  4604              MOV      r4,r0
;;;133        TFifoModeConfig Reg;
;;;134    	  operate(Byte, FIFO_MODE, Reg);
000004  4608              MOV      r0,r1
000006  4613              MOV      r3,r2
000008  b118              CBZ      r0,|L28.18|
00000a  7805              LDRB     r5,[r0,#0]
00000c  f3631586          BFI      r5,r3,#6,#1
000010  7005              STRB     r5,[r0,#0]
                  |L28.18|
000012  bf00              NOP      
;;;135        return reg_gyro_acc::CONFIG;
000014  201a              MOVS     r0,#0x1a
;;;136      }
000016  bd30              POP      {r4,r5,pc}
;;;137      
                          ENDP


                          AREA ||i._ZN8MPU_925020TAccGyroMagDriver_LL16fsync_int_statusEhPNS_11VStatusFlagE||, CODE, READONLY, ALIGN=1

                  _ZN8MPU_925020TAccGyroMagDriver_LL16fsync_int_statusEhPNS_11VStatusFlagE PROC ; MPU_9250::TAccGyroMagDriver_LL::fsync_int_status(unsigned char, MPU_9250::VStatusFlag*)
;;;816      
;;;817      uint8_t TAccGyroMagDriver_LL::fsync_int_status(const uint8_t Byte, VStatusFlag *FSYNC_INT)
000000  b518              PUSH     {r3,r4,lr}
;;;818      {
000002  4603              MOV      r3,r0
;;;819        TFsyncIntStatus Reg;
;;;820        read(Byte, FSYNC_INT, Reg);
000004  4610              MOV      r0,r2
000006  9100              STR      r1,[sp,#0]
000008  b120              CBZ      r0,|L29.20|
00000a  f89d4000          LDRB     r4,[sp,#0]
00000e  f3c404c0          UBFX     r4,r4,#3,#1
000012  7004              STRB     r4,[r0,#0]
                  |L29.20|
000014  bf00              NOP      
;;;821        return reg_gyro_acc::INT_STATUS;
000016  203a              MOVS     r0,#0x3a
;;;822      }
000018  bd18              POP      {r3,r4,pc}
;;;823      
                          ENDP


                          AREA ||i._ZN8MPU_925020TAccGyroMagDriver_LL16fsync_level_ctrlEPhNS_6VEnDisE||, CODE, READONLY, ALIGN=1

                  _ZN8MPU_925020TAccGyroMagDriver_LL16fsync_level_ctrlEPhNS_6VEnDisE PROC ; MPU_9250::TAccGyroMagDriver_LL::fsync_level_ctrl(unsigned char*, MPU_9250::VEnDis)
;;;742      
;;;743      uint8_t TAccGyroMagDriver_LL::fsync_level_ctrl(uint8_t *const Byte, VEnDis ACTL_FSYNC)
000000  b530              PUSH     {r4,r5,lr}
;;;744      {
000002  4604              MOV      r4,r0
;;;745        TFsyncLevelCtrl Reg;
;;;746        operate(Byte, ACTL_FSYNC, Reg);
000004  4608              MOV      r0,r1
000006  4613              MOV      r3,r2
000008  b118              CBZ      r0,|L30.18|
00000a  7805              LDRB     r5,[r0,#0]
00000c  f36305c3          BFI      r5,r3,#3,#1
000010  7005              STRB     r5,[r0,#0]
                  |L30.18|
000012  bf00              NOP      
;;;747        return reg_gyro_acc::INT_PIN_CFG;
000014  2037              MOVS     r0,#0x37
;;;748      }
000016  bd30              POP      {r4,r5,pc}
;;;749      
                          ENDP


                          AREA ||i._ZN8MPU_925020TAccGyroMagDriver_LL16fsync_pin_configEPhNS_15VFsyncPinConfigE||, CODE, READONLY, ALIGN=1

                  _ZN8MPU_925020TAccGyroMagDriver_LL16fsync_pin_configEPhNS_15VFsyncPinConfigE PROC ; MPU_9250::TAccGyroMagDriver_LL::fsync_pin_config(unsigned char*, MPU_9250::VFsyncPinConfig)
;;;137      
;;;138      uint8_t TAccGyroMagDriver_LL::fsync_pin_config(uint8_t *const Byte, VFsyncPinConfig EXT_SYNC_SET)
000000  b530              PUSH     {r4,r5,lr}
;;;139      {
000002  4604              MOV      r4,r0
;;;140        TFsyncPinConfig Reg;
;;;141    	  operate(Byte, EXT_SYNC_SET, Reg);
000004  4608              MOV      r0,r1
000006  4613              MOV      r3,r2
000008  b118              CBZ      r0,|L31.18|
00000a  7805              LDRB     r5,[r0,#0]
00000c  f36305c5          BFI      r5,r3,#3,#3
000010  7005              STRB     r5,[r0,#0]
                  |L31.18|
000012  bf00              NOP      
;;;142        return reg_gyro_acc::CONFIG;
000014  201a              MOVS     r0,#0x1a
;;;143      }
000016  bd30              POP      {r4,r5,pc}
;;;144      
                          ENDP


                          AREA ||i._ZN8MPU_925020TAccGyroMagDriver_LL16mag_data_overrunEhPNS_11VStatusFlagE||, CODE, READONLY, ALIGN=1

                  _ZN8MPU_925020TAccGyroMagDriver_LL16mag_data_overrunEhPNS_11VStatusFlagE PROC ; MPU_9250::TAccGyroMagDriver_LL::mag_data_overrun(unsigned char, MPU_9250::VStatusFlag*)
;;;1410     
;;;1411     uint8_t TAccGyroMagDriver_LL::mag_data_overrun(const uint8_t Byte, VStatusFlag *DRDY)
000000  b518              PUSH     {r3,r4,lr}
;;;1412     {
000002  4603              MOV      r3,r0
;;;1413       TDataOverrun Reg;
;;;1414       read(Byte, DRDY, Reg);
000004  4610              MOV      r0,r2
000006  9100              STR      r1,[sp,#0]
000008  b120              CBZ      r0,|L32.20|
00000a  f89d4000          LDRB     r4,[sp,#0]
00000e  f3c40440          UBFX     r4,r4,#1,#1
000012  7004              STRB     r4,[r0,#0]
                  |L32.20|
000014  bf00              NOP      
;;;1415       return reg_mag::ST1;
000016  2002              MOVS     r0,#2
;;;1416     }
000018  bd18              POP      {r3,r4,pc}
;;;1417     
                          ENDP


                          AREA ||i._ZN8MPU_925020TAccGyroMagDriver_LL16set_accel_filterEPhNS_15VSetAccelFilterE||, CODE, READONLY, ALIGN=1

                  _ZN8MPU_925020TAccGyroMagDriver_LL16set_accel_filterEPhNS_15VSetAccelFilterE PROC ; MPU_9250::TAccGyroMagDriver_LL::set_accel_filter(unsigned char*, MPU_9250::VSetAccelFilter)
;;;241      
;;;242      uint8_t TAccGyroMagDriver_LL::set_accel_filter(uint8_t *const Byte, VSetAccelFilter A_DLPFCFG)
000000  b530              PUSH     {r4,r5,lr}
;;;243      {
000002  4604              MOV      r4,r0
;;;244        TSetAccelFilter Reg;
;;;245    	 operate(Byte, A_DLPFCFG, Reg);
000004  4608              MOV      r0,r1
000006  4613              MOV      r3,r2
000008  b118              CBZ      r0,|L33.18|
00000a  7805              LDRB     r5,[r0,#0]
00000c  f3630502          BFI      r5,r3,#0,#3
000010  7005              STRB     r5,[r0,#0]
                  |L33.18|
000012  bf00              NOP      
;;;246        return reg_gyro_acc::ACCEL_CONFIG_2;
000014  201d              MOVS     r0,#0x1d
;;;247      }
000016  bd30              POP      {r4,r5,pc}
;;;248      
                          ENDP


                          AREA ||i._ZN8MPU_925020TAccGyroMagDriver_LL16slv0_phy_addressEPhh||, CODE, READONLY, ALIGN=1

                  _ZN8MPU_925020TAccGyroMagDriver_LL16slv0_phy_addressEPhh PROC ; MPU_9250::TAccGyroMagDriver_LL::slv0_phy_address(unsigned char*, unsigned char)
;;;376      
;;;377      uint8_t TAccGyroMagDriver_LL::slv0_phy_address(uint8_t *const Byte, const uint8_t Addr_7Bit)
000000  b530              PUSH     {r4,r5,lr}
;;;378      {
000002  4604              MOV      r4,r0
;;;379        TSlv0PhyAddress Reg;
;;;380    	 operate(Byte, Addr_7Bit, Reg);
000004  4608              MOV      r0,r1
000006  4613              MOV      r3,r2
000008  b118              CBZ      r0,|L34.18|
00000a  7805              LDRB     r5,[r0,#0]
00000c  f3630506          BFI      r5,r3,#0,#7
000010  7005              STRB     r5,[r0,#0]
                  |L34.18|
000012  bf00              NOP      
;;;381        return reg_gyro_acc::I2C_SLV0_ADDR;
000014  2025              MOVS     r0,#0x25
;;;382      }
000016  bd30              POP      {r4,r5,pc}
;;;383      
                          ENDP


                          AREA ||i._ZN8MPU_925020TAccGyroMagDriver_LL17accel_filter_readEhPNS_15VSetAccelFilterE||, CODE, READONLY, ALIGN=1

                  _ZN8MPU_925020TAccGyroMagDriver_LL17accel_filter_readEhPNS_15VSetAccelFilterE PROC ; MPU_9250::TAccGyroMagDriver_LL::accel_filter_read(unsigned char, MPU_9250::VSetAccelFilter*)
;;;248      
;;;249      uint8_t TAccGyroMagDriver_LL::accel_filter_read(uint8_t Byte, VSetAccelFilter *A_DLPFCFG)
000000  b518              PUSH     {r3,r4,lr}
;;;250      {
000002  4603              MOV      r3,r0
;;;251        TSetAccelFilter Reg;
;;;252    	 read(Byte, A_DLPFCFG, Reg);
000004  4610              MOV      r0,r2
000006  9100              STR      r1,[sp,#0]
000008  b120              CBZ      r0,|L35.20|
00000a  f89d4000          LDRB     r4,[sp,#0]
00000e  f0040407          AND      r4,r4,#7
000012  7004              STRB     r4,[r0,#0]
                  |L35.20|
000014  bf00              NOP      
;;;253        return reg_gyro_acc::ACCEL_CONFIG_2;
000016  201d              MOVS     r0,#0x1d
;;;254      }
000018  bd18              POP      {r3,r4,pc}
;;;255       
                          ENDP


                          AREA ||i._ZN8MPU_925020TAccGyroMagDriver_LL17gyro_standby_ctrlEPhNS_9VSetResetE||, CODE, READONLY, ALIGN=1

                  _ZN8MPU_925020TAccGyroMagDriver_LL17gyro_standby_ctrlEPhNS_9VSetResetE PROC ; MPU_9250::TAccGyroMagDriver_LL::gyro_standby_ctrl(unsigned char*, MPU_9250::VSetReset)
;;;1248     
;;;1249     uint8_t TAccGyroMagDriver_LL::gyro_standby_ctrl(uint8_t *const Byte, VSetReset GYRO_STANDBY)
000000  b530              PUSH     {r4,r5,lr}
;;;1250     {
000002  4604              MOV      r4,r0
;;;1251       TGyroStandbyCtrl Reg;
;;;1252       operate(Byte, GYRO_STANDBY, Reg);
000004  4608              MOV      r0,r1
000006  4613              MOV      r3,r2
000008  b118              CBZ      r0,|L36.18|
00000a  7805              LDRB     r5,[r0,#0]
00000c  f3631504          BFI      r5,r3,#4,#1
000010  7005              STRB     r5,[r0,#0]
                  |L36.18|
000012  bf00              NOP      
;;;1253       return reg_gyro_acc::PWR_MGMT_1;
000014  206b              MOVS     r0,#0x6b
;;;1254     }
000016  bd30              POP      {r4,r5,pc}
;;;1255     
                          ENDP


                          AREA ||i._ZN8MPU_925020TAccGyroMagDriver_LL17reset_fifo_moduleEPhNS_6VEnDisE||, CODE, READONLY, ALIGN=1

                  _ZN8MPU_925020TAccGyroMagDriver_LL17reset_fifo_moduleEPhNS_6VEnDisE PROC ; MPU_9250::TAccGyroMagDriver_LL::reset_fifo_module(unsigned char*, MPU_9250::VEnDis)
;;;1204     
;;;1205     uint8_t TAccGyroMagDriver_LL::reset_fifo_module(uint8_t *const Byte, VEnDis FIFO_RST)
000000  b530              PUSH     {r4,r5,lr}
;;;1206     {
000002  4604              MOV      r4,r0
;;;1207       TResetFifoModule Reg;
;;;1208       operate(Byte, FIFO_RST, Reg);
000004  4608              MOV      r0,r1
000006  4613              MOV      r3,r2
000008  b118              CBZ      r0,|L37.18|
00000a  7805              LDRB     r5,[r0,#0]
00000c  f3630582          BFI      r5,r3,#2,#1
000010  7005              STRB     r5,[r0,#0]
                  |L37.18|
000012  bf00              NOP      
;;;1209       return reg_gyro_acc::USER_CTRL;
000014  206a              MOVS     r0,#0x6a
;;;1210     }
000016  bd30              POP      {r4,r5,pc}
;;;1211     
                          ENDP


                          AREA ||i._ZN8MPU_925020TAccGyroMagDriver_LL18fifo_ovrf_int_ctrlEPhNS_6VEnDisE||, CODE, READONLY, ALIGN=1

                  _ZN8MPU_925020TAccGyroMagDriver_LL18fifo_ovrf_int_ctrlEPhNS_6VEnDisE PROC ; MPU_9250::TAccGyroMagDriver_LL::fifo_ovrf_int_ctrl(unsigned char*, MPU_9250::VEnDis)
;;;779      
;;;780      uint8_t TAccGyroMagDriver_LL::fifo_ovrf_int_ctrl(uint8_t *const Byte, VEnDis FIFO_OVERFLOW_EN)
000000  b530              PUSH     {r4,r5,lr}
;;;781      {
000002  4604              MOV      r4,r0
;;;782        TFifoOvrfIntCtrl Reg;
;;;783        operate(Byte, FIFO_OVERFLOW_EN, Reg);
000004  4608              MOV      r0,r1
000006  4613              MOV      r3,r2
000008  b118              CBZ      r0,|L38.18|
00000a  7805              LDRB     r5,[r0,#0]
00000c  f3631504          BFI      r5,r3,#4,#1
000010  7005              STRB     r5,[r0,#0]
                  |L38.18|
000012  bf00              NOP      
;;;784        return reg_gyro_acc::INT_ENABLE;
000014  2038              MOVS     r0,#0x38
;;;785      }
000016  bd30              POP      {r4,r5,pc}
;;;786      
                          ENDP


                          AREA ||i._ZN8MPU_925020TAccGyroMagDriver_LL18gyro_filter_choiseEPhNS_17VGyroFilterChoiseE||, CODE, READONLY, ALIGN=1

                  _ZN8MPU_925020TAccGyroMagDriver_LL18gyro_filter_choiseEPhNS_17VGyroFilterChoiseE PROC ; MPU_9250::TAccGyroMagDriver_LL::gyro_filter_choise(unsigned char*, MPU_9250::VGyroFilterChoise)
;;;195      
;;;196      uint8_t TAccGyroMagDriver_LL::gyro_filter_choise(uint8_t *const Byte, VGyroFilterChoise Fchoice_b)
000000  b530              PUSH     {r4,r5,lr}
;;;197      {
000002  4604              MOV      r4,r0
;;;198        TGyroFilterChoise Reg;
;;;199    	 operate(Byte, Fchoice_b, Reg);
000004  4608              MOV      r0,r1
000006  4613              MOV      r3,r2
000008  b118              CBZ      r0,|L39.18|
00000a  7805              LDRB     r5,[r0,#0]
00000c  f3630501          BFI      r5,r3,#0,#2
000010  7005              STRB     r5,[r0,#0]
                  |L39.18|
000012  bf00              NOP      
;;;200        return reg_gyro_acc::GYRO_CONFIG;
000014  201b              MOVS     r0,#0x1b
;;;201      }
000016  bd30              POP      {r4,r5,pc}
;;;202      
                          ENDP


                          AREA ||i._ZN8MPU_925020TAccGyroMagDriver_LL18mag_output_bit_setEPhNS_16VMagOutputBitSetE||, CODE, READONLY, ALIGN=1

                  _ZN8MPU_925020TAccGyroMagDriver_LL18mag_output_bit_setEPhNS_16VMagOutputBitSetE PROC ; MPU_9250::TAccGyroMagDriver_LL::mag_output_bit_set(unsigned char*, MPU_9250::VMagOutputBitSet)
;;;1487     
;;;1488     uint8_t TAccGyroMagDriver_LL::mag_output_bit_set(uint8_t *const Byte, VMagOutputBitSet BIT)
000000  b530              PUSH     {r4,r5,lr}
;;;1489     {
000002  4604              MOV      r4,r0
;;;1490       TMagBit Reg;
;;;1491       operate(Byte, BIT, Reg);
000004  4608              MOV      r0,r1
000006  4613              MOV      r3,r2
000008  b118              CBZ      r0,|L40.18|
00000a  7805              LDRB     r5,[r0,#0]
00000c  f3631504          BFI      r5,r3,#4,#1
000010  7005              STRB     r5,[r0,#0]
                  |L40.18|
000012  bf00              NOP      
;;;1492       return reg_mag::CNTL1;
000014  200a              MOVS     r0,#0xa
;;;1493     }
000016  bd30              POP      {r4,r5,pc}
;;;1494     
                          ENDP


                          AREA ||i._ZN8MPU_925020TAccGyroMagDriver_LL18mag_self_test_ctrlEPhNS_16VMagSelfTestCtrlE||, CODE, READONLY, ALIGN=1

                  _ZN8MPU_925020TAccGyroMagDriver_LL18mag_self_test_ctrlEPhNS_16VMagSelfTestCtrlE PROC ; MPU_9250::TAccGyroMagDriver_LL::mag_self_test_ctrl(unsigned char*, MPU_9250::VMagSelfTestCtrl)
;;;1512     
;;;1513     uint8_t TAccGyroMagDriver_LL::mag_self_test_ctrl(uint8_t *const Byte, VMagSelfTestCtrl SELF)
000000  b530              PUSH     {r4,r5,lr}
;;;1514     {
000002  4604              MOV      r4,r0
;;;1515       TSelfTestControl Reg;
;;;1516       operate(Byte, SELF, Reg);
000004  4608              MOV      r0,r1
000006  4613              MOV      r3,r2
000008  b118              CBZ      r0,|L41.18|
00000a  7805              LDRB     r5,[r0,#0]
00000c  f3631586          BFI      r5,r3,#6,#1
000010  7005              STRB     r5,[r0,#0]
                  |L41.18|
000012  bf00              NOP      
;;;1517       return reg_mag::ASTC;
000014  200c              MOVS     r0,#0xc
;;;1518     }
000016  bd30              POP      {r4,r5,pc}
;;;1519     
                          ENDP


                          AREA ||i._ZN8MPU_925020TAccGyroMagDriver_LL18write_temp_to_fifoEPhNS_6VEnDisE||, CODE, READONLY, ALIGN=1

                  _ZN8MPU_925020TAccGyroMagDriver_LL18write_temp_to_fifoEPhNS_6VEnDisE PROC ; MPU_9250::TAccGyroMagDriver_LL::write_temp_to_fifo(unsigned char*, MPU_9250::VEnDis)
;;;274      
;;;275      uint8_t TAccGyroMagDriver_LL::write_temp_to_fifo(uint8_t *const Byte, VEnDis TEMP_OUT)
000000  b530              PUSH     {r4,r5,lr}
;;;276      {
000002  4604              MOV      r4,r0
;;;277        TWrTempToFifo Reg;
;;;278    	 operate(Byte, TEMP_OUT, Reg);
000004  4608              MOV      r0,r1
000006  4613              MOV      r3,r2
000008  b118              CBZ      r0,|L42.18|
00000a  7805              LDRB     r5,[r0,#0]
00000c  f36315c7          BFI      r5,r3,#7,#1
000010  7005              STRB     r5,[r0,#0]
                  |L42.18|
000012  bf00              NOP      
;;;279        return reg_gyro_acc::FIFO_EN;
000014  2023              MOVS     r0,#0x23
;;;280      }
000016  bd30              POP      {r4,r5,pc}
;;;281      
                          ENDP


                          AREA ||i._ZN8MPU_925020TAccGyroMagDriver_LL19accel_filter_choiseEPhNS_18VAccelFilterChoiseE||, CODE, READONLY, ALIGN=1

                  _ZN8MPU_925020TAccGyroMagDriver_LL19accel_filter_choiseEPhNS_18VAccelFilterChoiseE PROC ; MPU_9250::TAccGyroMagDriver_LL::accel_filter_choise(unsigned char*, MPU_9250::VAccelFilterChoise)
;;;234      
;;;235      uint8_t TAccGyroMagDriver_LL::accel_filter_choise(uint8_t *const Byte, VAccelFilterChoise accel_fchoice_b)
000000  b530              PUSH     {r4,r5,lr}
;;;236      {
000002  4604              MOV      r4,r0
;;;237        TAcceFilterChoise Reg;
;;;238    	 operate(Byte, accel_fchoice_b, Reg);
000004  4608              MOV      r0,r1
000006  4613              MOV      r3,r2
000008  b118              CBZ      r0,|L43.18|
00000a  7805              LDRB     r5,[r0,#0]
00000c  f36305c3          BFI      r5,r3,#3,#1
000010  7005              STRB     r5,[r0,#0]
                  |L43.18|
000012  bf00              NOP      
;;;239        return reg_gyro_acc::ACCEL_CONFIG_2;
000014  201d              MOVS     r0,#0x1d
;;;240      }
000016  bd30              POP      {r4,r5,pc}
;;;241      
                          ENDP


                          AREA ||i._ZN8MPU_925020TAccGyroMagDriver_LL19config_internal_clkEPhNS_18VConfigInternalClkE||, CODE, READONLY, ALIGN=1

                  _ZN8MPU_925020TAccGyroMagDriver_LL19config_internal_clkEPhNS_18VConfigInternalClkE PROC ; MPU_9250::TAccGyroMagDriver_LL::config_internal_clk(unsigned char*, MPU_9250::VConfigInternalClk)
;;;360      
;;;361      uint8_t TAccGyroMagDriver_LL::config_internal_clk(uint8_t *const Byte, VConfigInternalClk I2C_MST_CLK)
000000  b530              PUSH     {r4,r5,lr}
;;;362      {
000002  4604              MOV      r4,r0
;;;363        TCfgInternalClk Reg;
;;;364        operate(Byte, I2C_MST_CLK, Reg);
000004  4608              MOV      r0,r1
000006  4613              MOV      r3,r2
000008  b118              CBZ      r0,|L44.18|
00000a  7805              LDRB     r5,[r0,#0]
00000c  f3630503          BFI      r5,r3,#0,#4
000010  7005              STRB     r5,[r0,#0]
                  |L44.18|
000012  bf00              NOP      
;;;365        return reg_gyro_acc::I2C_MST_CTRL;
000014  2024              MOVS     r0,#0x24
;;;366      }
000016  bd30              POP      {r4,r5,pc}
;;;367      
                          ENDP


                          AREA ||i._ZN8MPU_925020TAccGyroMagDriver_LL19interface_mode_ctrlEPhNS_6VEnDisE||, CODE, READONLY, ALIGN=1

                  _ZN8MPU_925020TAccGyroMagDriver_LL19interface_mode_ctrlEPhNS_6VEnDisE PROC ; MPU_9250::TAccGyroMagDriver_LL::interface_mode_ctrl(unsigned char*, MPU_9250::VEnDis)
;;;1197     
;;;1198     uint8_t TAccGyroMagDriver_LL::interface_mode_ctrl(uint8_t *const Byte, VEnDis I2C_IF_DIS)
000000  b530              PUSH     {r4,r5,lr}
;;;1199     {
000002  4604              MOV      r4,r0
;;;1200       TInterfaceModeCtrl Reg;
;;;1201       operate(Byte, I2C_IF_DIS, Reg);
000004  4608              MOV      r0,r1
000006  4613              MOV      r3,r2
000008  b118              CBZ      r0,|L45.18|
00000a  7805              LDRB     r5,[r0,#0]
00000c  f3631504          BFI      r5,r3,#4,#1
000010  7005              STRB     r5,[r0,#0]
                  |L45.18|
000012  bf00              NOP      
;;;1202       return reg_gyro_acc::USER_CTRL;
000014  206a              MOVS     r0,#0x6a
;;;1203     }
000016  bd30              POP      {r4,r5,pc}
;;;1204     
                          ENDP


                          AREA ||i._ZN8MPU_925020TAccGyroMagDriver_LL19mag_mirror_data_bitEhPNS_11VStatusFlagE||, CODE, READONLY, ALIGN=1

                  _ZN8MPU_925020TAccGyroMagDriver_LL19mag_mirror_data_bitEhPNS_11VStatusFlagE PROC ; MPU_9250::TAccGyroMagDriver_LL::mag_mirror_data_bit(unsigned char, MPU_9250::VStatusFlag*)
;;;1464     
;;;1465     uint8_t TAccGyroMagDriver_LL::mag_mirror_data_bit(const uint8_t Byte, VStatusFlag *BITM)
000000  b518              PUSH     {r3,r4,lr}
;;;1466     {
000002  4603              MOV      r3,r0
;;;1467       TOutBitSetting Reg;
;;;1468   	 read(Byte, BITM, Reg);
000004  4610              MOV      r0,r2
000006  9100              STR      r1,[sp,#0]
000008  b120              CBZ      r0,|L46.20|
00000a  f89d4000          LDRB     r4,[sp,#0]
00000e  f3c41400          UBFX     r4,r4,#4,#1
000012  7004              STRB     r4,[r0,#0]
                  |L46.20|
000014  bf00              NOP      
;;;1469       return reg_mag::ST2;
000016  2009              MOVS     r0,#9
;;;1470     }
000018  bd18              POP      {r3,r4,pc}
;;;1471     
                          ENDP


                          AREA ||i._ZN8MPU_925020TAccGyroMagDriver_LL19mag_output_bit_readEhPNS_16VMagOutputBitSetE||, CODE, READONLY, ALIGN=1

                  _ZN8MPU_925020TAccGyroMagDriver_LL19mag_output_bit_readEhPNS_16VMagOutputBitSetE PROC ; MPU_9250::TAccGyroMagDriver_LL::mag_output_bit_read(unsigned char, MPU_9250::VMagOutputBitSet*)
;;;1494     
;;;1495     uint8_t TAccGyroMagDriver_LL::mag_output_bit_read(const uint8_t Byte, VMagOutputBitSet *BIT)
000000  b518              PUSH     {r3,r4,lr}
;;;1496     {
000002  4603              MOV      r3,r0
;;;1497       TMagBit Reg;
;;;1498       read(Byte, BIT, Reg);
000004  4610              MOV      r0,r2
000006  9100              STR      r1,[sp,#0]
000008  b120              CBZ      r0,|L47.20|
00000a  f89d4000          LDRB     r4,[sp,#0]
00000e  f3c41400          UBFX     r4,r4,#4,#1
000012  7004              STRB     r4,[r0,#0]
                  |L47.20|
000014  bf00              NOP      
;;;1499       return reg_mag::CNTL1;
000016  200a              MOVS     r0,#0xa
;;;1500     }
000018  bd18              POP      {r3,r4,pc}
;;;1501     
                          ENDP


                          AREA ||i._ZN8MPU_925020TAccGyroMagDriver_LL19mag_soft_reset_ctrlEPhNS_17VMagSoftResetCtrlE||, CODE, READONLY, ALIGN=1

                  _ZN8MPU_925020TAccGyroMagDriver_LL19mag_soft_reset_ctrlEPhNS_17VMagSoftResetCtrlE PROC ; MPU_9250::TAccGyroMagDriver_LL::mag_soft_reset_ctrl(unsigned char*, MPU_9250::VMagSoftResetCtrl)
;;;1503     
;;;1504     uint8_t TAccGyroMagDriver_LL::mag_soft_reset_ctrl(uint8_t *const Byte, VMagSoftResetCtrl SRST)
000000  b530              PUSH     {r4,r5,lr}
;;;1505     {
000002  4604              MOV      r4,r0
;;;1506       TSoftReset Reg;
;;;1507       operate(Byte, SRST, Reg);
000004  4608              MOV      r0,r1
000006  4613              MOV      r3,r2
000008  b118              CBZ      r0,|L48.18|
00000a  7805              LDRB     r5,[r0,#0]
00000c  f3630500          BFI      r5,r3,#0,#1
000010  7005              STRB     r5,[r0,#0]
                  |L48.18|
000012  bf00              NOP      
;;;1508       return reg_mag::CNTL2;
000014  200b              MOVS     r0,#0xb
;;;1509     }
000016  bd30              POP      {r4,r5,pc}
;;;1510     
                          ENDP


                          AREA ||i._ZN8MPU_925020TAccGyroMagDriver_LL19multi_master_enableEPhNS_6VEnDisE||, CODE, READONLY, ALIGN=1

                  _ZN8MPU_925020TAccGyroMagDriver_LL19multi_master_enableEPhNS_6VEnDisE PROC ; MPU_9250::TAccGyroMagDriver_LL::multi_master_enable(unsigned char*, MPU_9250::VEnDis)
;;;332      
;;;333      uint8_t TAccGyroMagDriver_LL::multi_master_enable(uint8_t *const Byte, VEnDis MULT_MST_EN)
000000  b530              PUSH     {r4,r5,lr}
;;;334      {
000002  4604              MOV      r4,r0
;;;335        TMultiMasterEnable Reg;
;;;336    	 operate(Byte, MULT_MST_EN, Reg);
000004  4608              MOV      r0,r1
000006  4613              MOV      r3,r2
000008  b118              CBZ      r0,|L49.18|
00000a  7805              LDRB     r5,[r0,#0]
00000c  f36315c7          BFI      r5,r3,#7,#1
000010  7005              STRB     r5,[r0,#0]
                  |L49.18|
000012  bf00              NOP      
;;;337        return reg_gyro_acc::I2C_MST_CTRL;
000014  2024              MOVS     r0,#0x24
;;;338      }
000016  bd30              POP      {r4,r5,pc}
;;;339      
                          ENDP


                          AREA ||i._ZN8MPU_925020TAccGyroMagDriver_LL19slv0_num_bytes_readEPhNS_16VSlvNumBytesReadE||, CODE, READONLY, ALIGN=1

                  _ZN8MPU_925020TAccGyroMagDriver_LL19slv0_num_bytes_readEPhNS_16VSlvNumBytesReadE PROC ; MPU_9250::TAccGyroMagDriver_LL::slv0_num_bytes_read(unsigned char*, MPU_9250::VSlvNumBytesRead)
;;;421      
;;;422      uint8_t TAccGyroMagDriver_LL::slv0_num_bytes_read(uint8_t *const Byte, VSlvNumBytesRead I2C_SLV0_LENG)
000000  b530              PUSH     {r4,r5,lr}
;;;423      {
000002  4604              MOV      r4,r0
;;;424        TSlv0NumBytesRead Reg;
;;;425    	 operate(Byte, I2C_SLV0_LENG, Reg);
000004  4608              MOV      r0,r1
000006  4613              MOV      r3,r2
000008  b118              CBZ      r0,|L50.18|
00000a  7805              LDRB     r5,[r0,#0]
00000c  f3630503          BFI      r5,r3,#0,#4
000010  7005              STRB     r5,[r0,#0]
                  |L50.18|
000012  bf00              NOP      
;;;426        return reg_gyro_acc::I2C_SLV1_CTRL;
000014  202a              MOVS     r0,#0x2a
;;;427      }
000016  bd30              POP      {r4,r5,pc}
;;;428    //  
                          ENDP


                          AREA ||i._ZN8MPU_925020TAccGyroMagDriver_LL19write_accel_to_fifoEPhNS_6VEnDisE||, CODE, READONLY, ALIGN=1

                  _ZN8MPU_925020TAccGyroMagDriver_LL19write_accel_to_fifoEPhNS_6VEnDisE PROC ; MPU_9250::TAccGyroMagDriver_LL::write_accel_to_fifo(unsigned char*, MPU_9250::VEnDis)
;;;302      
;;;303      uint8_t TAccGyroMagDriver_LL::write_accel_to_fifo(uint8_t *const Byte, VEnDis ACCEL)
000000  b530              PUSH     {r4,r5,lr}
;;;304      {
000002  4604              MOV      r4,r0
;;;305        TWrAccelToFifo Reg;
;;;306    	 operate(Byte, ACCEL, Reg);
000004  4608              MOV      r0,r1
000006  4613              MOV      r3,r2
000008  b118              CBZ      r0,|L51.18|
00000a  7805              LDRB     r5,[r0,#0]
00000c  f36305c3          BFI      r5,r3,#3,#1
000010  7005              STRB     r5,[r0,#0]
                  |L51.18|
000012  bf00              NOP      
;;;307        return reg_gyro_acc::FIFO_EN;
000014  2023              MOVS     r0,#0x23
;;;308      }
000016  bd30              POP      {r4,r5,pc}
;;;309      
                          ENDP


                          AREA ||i._ZN8MPU_925020TAccGyroMagDriver_LL20delay_data_ready_intEPhNS_6VEnDisE||, CODE, READONLY, ALIGN=1

                  _ZN8MPU_925020TAccGyroMagDriver_LL20delay_data_ready_intEPhNS_6VEnDisE PROC ; MPU_9250::TAccGyroMagDriver_LL::delay_data_ready_int(unsigned char*, MPU_9250::VEnDis)
;;;339      
;;;340      uint8_t TAccGyroMagDriver_LL::delay_data_ready_int(uint8_t *const Byte, VEnDis WAIT_FOR_ES)
000000  b530              PUSH     {r4,r5,lr}
;;;341      {
000002  4604              MOV      r4,r0
;;;342        TDelayDataReadyInt Reg;
;;;343    	 operate(Byte, WAIT_FOR_ES, Reg);
000004  4608              MOV      r0,r1
000006  4613              MOV      r3,r2
000008  b118              CBZ      r0,|L52.18|
00000a  7805              LDRB     r5,[r0,#0]
00000c  f3631586          BFI      r5,r3,#6,#1
000010  7005              STRB     r5,[r0,#0]
                  |L52.18|
000012  bf00              NOP      
;;;344        return reg_gyro_acc::I2C_MST_CTRL;
000014  2024              MOVS     r0,#0x24
;;;345      }
000016  bd30              POP      {r4,r5,pc}
;;;346      
                          ENDP


                          AREA ||i._ZN8MPU_925020TAccGyroMagDriver_LL20fifo_high_bits_countEPhh||, CODE, READONLY, ALIGN=1

                  _ZN8MPU_925020TAccGyroMagDriver_LL20fifo_high_bits_countEPhh PROC ; MPU_9250::TAccGyroMagDriver_LL::fifo_high_bits_count(unsigned char*, unsigned char)
;;;1315     
;;;1316     uint8_t TAccGyroMagDriver_LL::fifo_high_bits_count(uint8_t *const Byte, uint8_t FIFO_CNT)
000000  b530              PUSH     {r4,r5,lr}
;;;1317     {
000002  4604              MOV      r4,r0
;;;1318       TFifoHighBits Reg;
;;;1319       operate(Byte, FIFO_CNT, Reg);
000004  4608              MOV      r0,r1
000006  4613              MOV      r3,r2
000008  b118              CBZ      r0,|L53.18|
00000a  7805              LDRB     r5,[r0,#0]
00000c  f3630504          BFI      r5,r3,#0,#5
000010  7005              STRB     r5,[r0,#0]
                  |L53.18|
000012  bf00              NOP      
;;;1320       return reg_gyro_acc::FIFO_COUNTH;
000014  2072              MOVS     r0,#0x72
;;;1321     }
000016  bd30              POP      {r4,r5,pc}
;;;1322     
                          ENDP


                          AREA ||i._ZN8MPU_925020TAccGyroMagDriver_LL20fifo_ovrf_int_statusEhPNS_11VStatusFlagE||, CODE, READONLY, ALIGN=1

                  _ZN8MPU_925020TAccGyroMagDriver_LL20fifo_ovrf_int_statusEhPNS_11VStatusFlagE PROC ; MPU_9250::TAccGyroMagDriver_LL::fifo_ovrf_int_status(unsigned char, MPU_9250::VStatusFlag*)
;;;809      
;;;810      uint8_t TAccGyroMagDriver_LL::fifo_ovrf_int_status(const uint8_t Byte, VStatusFlag *FIFO_OVERFLOW_INT)
000000  b518              PUSH     {r3,r4,lr}
;;;811      {
000002  4603              MOV      r3,r0
;;;812        TFifoOvrfIntStatus Reg;
;;;813        read(Byte, FIFO_OVERFLOW_INT, Reg);
000004  4610              MOV      r0,r2
000006  9100              STR      r1,[sp,#0]
000008  b120              CBZ      r0,|L54.20|
00000a  f89d4000          LDRB     r4,[sp,#0]
00000e  f3c41400          UBFX     r4,r4,#4,#1
000012  7004              STRB     r4,[r0,#0]
                  |L54.20|
000014  bf00              NOP      
;;;814        return reg_gyro_acc::INT_STATUS;
000016  203a              MOVS     r0,#0x3a
;;;815      }
000018  bd18              POP      {r3,r4,pc}
;;;816      
                          ENDP


                          AREA ||i._ZN8MPU_925020TAccGyroMagDriver_LL20gyro_full_scale_readEhPNS_20VGyroFullScaleSelectE||, CODE, READONLY, ALIGN=1

                  _ZN8MPU_925020TAccGyroMagDriver_LL20gyro_full_scale_readEhPNS_20VGyroFullScaleSelectE PROC ; MPU_9250::TAccGyroMagDriver_LL::gyro_full_scale_read(unsigned char, MPU_9250::VGyroFullScaleSelect*)
;;;188        
;;;189      uint8_t TAccGyroMagDriver_LL::gyro_full_scale_read(const uint8_t Byte, VGyroFullScaleSelect *GYRO_FS_SEL)
000000  b518              PUSH     {r3,r4,lr}
;;;190      {
000002  4603              MOV      r3,r0
;;;191        TGyroFullScaleSelect Reg;
;;;192        read(Byte, GYRO_FS_SEL, Reg);
000004  4610              MOV      r0,r2
000006  9100              STR      r1,[sp,#0]
000008  b120              CBZ      r0,|L55.20|
00000a  f89d4000          LDRB     r4,[sp,#0]
00000e  f3c404c1          UBFX     r4,r4,#3,#2
000012  7004              STRB     r4,[r0,#0]
                  |L55.20|
000014  bf00              NOP      
;;;193        return reg_gyro_acc::I2C_MST_STATUS;
000016  2036              MOVS     r0,#0x36
;;;194      }
000018  bd18              POP      {r3,r4,pc}
;;;195      
                          ENDP


                          AREA ||i._ZN8MPU_925020TAccGyroMagDriver_LL20i2c_master_pins_ctrlEPhNS_6VEnDisE||, CODE, READONLY, ALIGN=1

                  _ZN8MPU_925020TAccGyroMagDriver_LL20i2c_master_pins_ctrlEPhNS_6VEnDisE PROC ; MPU_9250::TAccGyroMagDriver_LL::i2c_master_pins_ctrl(unsigned char*, MPU_9250::VEnDis)
;;;756      
;;;757      uint8_t TAccGyroMagDriver_LL::i2c_master_pins_ctrl(uint8_t *const Byte, VEnDis BYPASS_EN)
000000  b530              PUSH     {r4,r5,lr}
;;;758      {
000002  4604              MOV      r4,r0
;;;759        TI2CMasterPinsCtrl Reg;
;;;760        operate(Byte, BYPASS_EN, Reg);
000004  4608              MOV      r0,r1
000006  4613              MOV      r3,r2
000008  b118              CBZ      r0,|L56.18|
00000a  7805              LDRB     r5,[r0,#0]
00000c  f3630541          BFI      r5,r3,#1,#1
000010  7005              STRB     r5,[r0,#0]
                  |L56.18|
000012  bf00              NOP      
;;;761        return reg_gyro_acc::INT_PIN_CFG;
000014  2037              MOVS     r0,#0x37
;;;762      }
000016  bd30              POP      {r4,r5,pc}
;;;763      
                          ENDP


                          AREA ||i._ZN8MPU_925020TAccGyroMagDriver_LL20i2c_master_pins_readEhPNS_6VEnDisE||, CODE, READONLY, ALIGN=1

                  _ZN8MPU_925020TAccGyroMagDriver_LL20i2c_master_pins_readEhPNS_6VEnDisE PROC ; MPU_9250::TAccGyroMagDriver_LL::i2c_master_pins_read(unsigned char, MPU_9250::VEnDis*)
;;;763      
;;;764      uint8_t TAccGyroMagDriver_LL::i2c_master_pins_read(const uint8_t Byte, VEnDis *BYPASS_EN)
000000  b518              PUSH     {r3,r4,lr}
;;;765      {
000002  4603              MOV      r3,r0
;;;766        TI2CMasterPinsCtrl Reg;
;;;767        read(Byte, BYPASS_EN, Reg);
000004  4610              MOV      r0,r2
000006  9100              STR      r1,[sp,#0]
000008  b120              CBZ      r0,|L57.20|
00000a  f89d4000          LDRB     r4,[sp,#0]
00000e  f3c40440          UBFX     r4,r4,#1,#1
000012  7004              STRB     r4,[r0,#0]
                  |L57.20|
000014  bf00              NOP      
;;;768        return reg_gyro_acc::INT_PIN_CFG;
000016  2037              MOVS     r0,#0x37
;;;769      }
000018  bd18              POP      {r3,r4,pc}
;;;770      
                          ENDP


                          AREA ||i._ZN8MPU_925020TAccGyroMagDriver_LL20slv0_direct_transferEPhNS_16VI2CTransferTypeE||, CODE, READONLY, ALIGN=1

                  _ZN8MPU_925020TAccGyroMagDriver_LL20slv0_direct_transferEPhNS_16VI2CTransferTypeE PROC ; MPU_9250::TAccGyroMagDriver_LL::slv0_direct_transfer(unsigned char*, MPU_9250::VI2CTransferType)
;;;369      
;;;370      uint8_t TAccGyroMagDriver_LL::slv0_direct_transfer(uint8_t *const Byte, VI2CTransferType I2C_SLV0_RNW)
000000  b530              PUSH     {r4,r5,lr}
;;;371      {
000002  4604              MOV      r4,r0
;;;372        TSlv0DirectTransfer Reg;
;;;373    	 operate(Byte, I2C_SLV0_RNW, Reg);
000004  4608              MOV      r0,r1
000006  4613              MOV      r3,r2
000008  b118              CBZ      r0,|L58.18|
00000a  7805              LDRB     r5,[r0,#0]
00000c  f36315c7          BFI      r5,r3,#7,#1
000010  7005              STRB     r5,[r0,#0]
                  |L58.18|
000012  bf00              NOP      
;;;374        return reg_gyro_acc::I2C_SLV0_ADDR;
000014  2025              MOVS     r0,#0x25
;;;375      }
000016  bd30              POP      {r4,r5,pc}
;;;376      
                          ENDP


                          AREA ||i._ZN8MPU_925020TAccGyroMagDriver_LL20slv0_dly_access_ctrlEPhNS_6VEnDisE||, CODE, READONLY, ALIGN=1

                  _ZN8MPU_925020TAccGyroMagDriver_LL20slv0_dly_access_ctrlEPhNS_6VEnDisE PROC ; MPU_9250::TAccGyroMagDriver_LL::slv0_dly_access_ctrl(unsigned char*, MPU_9250::VEnDis)
;;;1135     
;;;1136     uint8_t TAccGyroMagDriver_LL::slv0_dly_access_ctrl(uint8_t *const Byte, VEnDis I2C_SLV0_DLY_EN)
000000  b530              PUSH     {r4,r5,lr}
;;;1137     {
000002  4604              MOV      r4,r0
;;;1138       TSlv0DlyAccessCtrl Reg;
;;;1139       operate(Byte, I2C_SLV0_DLY_EN, Reg);
000004  4608              MOV      r0,r1
000006  4613              MOV      r3,r2
000008  b118              CBZ      r0,|L59.18|
00000a  7805              LDRB     r5,[r0,#0]
00000c  f3630500          BFI      r5,r3,#0,#1
000010  7005              STRB     r5,[r0,#0]
                  |L59.18|
000012  bf00              NOP      
;;;1140       return reg_gyro_acc::I2C_MST_DELAY_CTRL;
000014  2067              MOVS     r0,#0x67
;;;1141     }
000016  bd30              POP      {r4,r5,pc}
;;;1142     
                          ENDP


                          AREA ||i._ZN8MPU_925020TAccGyroMagDriver_LL20slv1_dly_access_ctrlEPhNS_6VEnDisE||, CODE, READONLY, ALIGN=1

                  _ZN8MPU_925020TAccGyroMagDriver_LL20slv1_dly_access_ctrlEPhNS_6VEnDisE PROC ; MPU_9250::TAccGyroMagDriver_LL::slv1_dly_access_ctrl(unsigned char*, MPU_9250::VEnDis)
;;;1128     
;;;1129     uint8_t TAccGyroMagDriver_LL::slv1_dly_access_ctrl(uint8_t *const Byte, VEnDis I2C_SLV1_DLY_EN)
000000  b530              PUSH     {r4,r5,lr}
;;;1130     {
000002  4604              MOV      r4,r0
;;;1131       TSlv1DlyAccessCtrl Reg;
;;;1132       operate(Byte, I2C_SLV1_DLY_EN, Reg);
000004  4608              MOV      r0,r1
000006  4613              MOV      r3,r2
000008  b118              CBZ      r0,|L60.18|
00000a  7805              LDRB     r5,[r0,#0]
00000c  f3630541          BFI      r5,r3,#1,#1
000010  7005              STRB     r5,[r0,#0]
                  |L60.18|
000012  bf00              NOP      
;;;1133       return reg_gyro_acc::I2C_MST_DELAY_CTRL;
000014  2067              MOVS     r0,#0x67
;;;1134     }
000016  bd30              POP      {r4,r5,pc}
;;;1135     
                          ENDP


                          AREA ||i._ZN8MPU_925020TAccGyroMagDriver_LL20slv2_dly_access_ctrlEPhNS_6VEnDisE||, CODE, READONLY, ALIGN=1

                  _ZN8MPU_925020TAccGyroMagDriver_LL20slv2_dly_access_ctrlEPhNS_6VEnDisE PROC ; MPU_9250::TAccGyroMagDriver_LL::slv2_dly_access_ctrl(unsigned char*, MPU_9250::VEnDis)
;;;1121     
;;;1122     uint8_t TAccGyroMagDriver_LL::slv2_dly_access_ctrl(uint8_t *const Byte, VEnDis I2C_SLV2_DLY_EN)
000000  b530              PUSH     {r4,r5,lr}
;;;1123     {
000002  4604              MOV      r4,r0
;;;1124       TSlv2DlyAccessCtrl Reg;
;;;1125       operate(Byte, I2C_SLV2_DLY_EN, Reg);
000004  4608              MOV      r0,r1
000006  4613              MOV      r3,r2
000008  b118              CBZ      r0,|L61.18|
00000a  7805              LDRB     r5,[r0,#0]
00000c  f3630582          BFI      r5,r3,#2,#1
000010  7005              STRB     r5,[r0,#0]
                  |L61.18|
000012  bf00              NOP      
;;;1126       return reg_gyro_acc::I2C_MST_DELAY_CTRL;
000014  2067              MOVS     r0,#0x67
;;;1127     }
000016  bd30              POP      {r4,r5,pc}
;;;1128     
                          ENDP


                          AREA ||i._ZN8MPU_925020TAccGyroMagDriver_LL20slv3_dly_access_ctrlEPhNS_6VEnDisE||, CODE, READONLY, ALIGN=1

                  _ZN8MPU_925020TAccGyroMagDriver_LL20slv3_dly_access_ctrlEPhNS_6VEnDisE PROC ; MPU_9250::TAccGyroMagDriver_LL::slv3_dly_access_ctrl(unsigned char*, MPU_9250::VEnDis)
;;;1114     
;;;1115     uint8_t TAccGyroMagDriver_LL::slv3_dly_access_ctrl(uint8_t *const Byte, VEnDis I2C_SLV3_DLY_EN)
000000  b530              PUSH     {r4,r5,lr}
;;;1116     {
000002  4604              MOV      r4,r0
;;;1117       TSlv3DlyAccessCtrl Reg;
;;;1118       operate(Byte, I2C_SLV3_DLY_EN, Reg);
000004  4608              MOV      r0,r1
000006  4613              MOV      r3,r2
000008  b118              CBZ      r0,|L62.18|
00000a  7805              LDRB     r5,[r0,#0]
00000c  f36305c3          BFI      r5,r3,#3,#1
000010  7005              STRB     r5,[r0,#0]
                  |L62.18|
000012  bf00              NOP      
;;;1119       return reg_gyro_acc::I2C_MST_DELAY_CTRL;
000014  2067              MOVS     r0,#0x67
;;;1120     }
000016  bd30              POP      {r4,r5,pc}
;;;1121     
                          ENDP


                          AREA ||i._ZN8MPU_925020TAccGyroMagDriver_LL20slv4_dly_access_ctrlEPhNS_6VEnDisE||, CODE, READONLY, ALIGN=1

                  _ZN8MPU_925020TAccGyroMagDriver_LL20slv4_dly_access_ctrlEPhNS_6VEnDisE PROC ; MPU_9250::TAccGyroMagDriver_LL::slv4_dly_access_ctrl(unsigned char*, MPU_9250::VEnDis)
;;;1107     
;;;1108     uint8_t TAccGyroMagDriver_LL::slv4_dly_access_ctrl(uint8_t *const Byte, VEnDis I2C_SLV4_DLY_EN)
000000  b530              PUSH     {r4,r5,lr}
;;;1109     {
000002  4604              MOV      r4,r0
;;;1110       TSlv4DlyAccessCtrl Reg;
;;;1111       operate(Byte, I2C_SLV4_DLY_EN, Reg);
000004  4608              MOV      r0,r1
000006  4613              MOV      r3,r2
000008  b118              CBZ      r0,|L63.18|
00000a  7805              LDRB     r5,[r0,#0]
00000c  f3631504          BFI      r5,r3,#4,#1
000010  7005              STRB     r5,[r0,#0]
                  |L63.18|
000012  bf00              NOP      
;;;1112       return reg_gyro_acc::I2C_MST_DELAY_CTRL;
000014  2067              MOVS     r0,#0x67
;;;1113     }
000016  bd30              POP      {r4,r5,pc}
;;;1114     
                          ENDP


                          AREA ||i._ZN8MPU_925020TAccGyroMagDriver_LL20slv_lost_arbitrationEhPNS_11VStatusFlagE||, CODE, READONLY, ALIGN=1

                  _ZN8MPU_925020TAccGyroMagDriver_LL20slv_lost_arbitrationEhPNS_11VStatusFlagE PROC ; MPU_9250::TAccGyroMagDriver_LL::slv_lost_arbitration(unsigned char, MPU_9250::VStatusFlag*)
;;;670      
;;;671      uint8_t TAccGyroMagDriver_LL::slv_lost_arbitration(const uint8_t Byte, VStatusFlag *I2C_LOST_ARB)
000000  b518              PUSH     {r3,r4,lr}
;;;672      {
000002  4603              MOV      r3,r0
;;;673        TSlvLostArbitration Reg;
;;;674        read(Byte, I2C_LOST_ARB, Reg);
000004  4610              MOV      r0,r2
000006  9100              STR      r1,[sp,#0]
000008  b120              CBZ      r0,|L64.20|
00000a  f89d4000          LDRB     r4,[sp,#0]
00000e  f3c41440          UBFX     r4,r4,#5,#1
000012  7004              STRB     r4,[r0,#0]
                  |L64.20|
000014  bf00              NOP      
;;;675        return reg_gyro_acc::I2C_MST_STATUS;
000016  2036              MOVS     r0,#0x36
;;;676      }
000018  bd18              POP      {r3,r4,pc}
;;;677      
                          ENDP


                          AREA ||i._ZN8MPU_925020TAccGyroMagDriver_LL20write_gyro_x_to_fifoEPhNS_6VEnDisE||, CODE, READONLY, ALIGN=1

                  _ZN8MPU_925020TAccGyroMagDriver_LL20write_gyro_x_to_fifoEPhNS_6VEnDisE PROC ; MPU_9250::TAccGyroMagDriver_LL::write_gyro_x_to_fifo(unsigned char*, MPU_9250::VEnDis)
;;;281      
;;;282      uint8_t TAccGyroMagDriver_LL::write_gyro_x_to_fifo(uint8_t *const Byte, VEnDis GYRO_XOUT)
000000  b530              PUSH     {r4,r5,lr}
;;;283      {
000002  4604              MOV      r4,r0
;;;284        TWrGyroXToFifo Reg;
;;;285    	 operate(Byte, GYRO_XOUT, Reg);
000004  4608              MOV      r0,r1
000006  4613              MOV      r3,r2
000008  b118              CBZ      r0,|L65.18|
00000a  7805              LDRB     r5,[r0,#0]
00000c  f3631586          BFI      r5,r3,#6,#1
000010  7005              STRB     r5,[r0,#0]
                  |L65.18|
000012  bf00              NOP      
;;;286        return reg_gyro_acc::FIFO_EN;
000014  2023              MOVS     r0,#0x23
;;;287      }
000016  bd30              POP      {r4,r5,pc}
;;;288      
                          ENDP


                          AREA ||i._ZN8MPU_925020TAccGyroMagDriver_LL20write_gyro_y_to_fifoEPhNS_6VEnDisE||, CODE, READONLY, ALIGN=1

                  _ZN8MPU_925020TAccGyroMagDriver_LL20write_gyro_y_to_fifoEPhNS_6VEnDisE PROC ; MPU_9250::TAccGyroMagDriver_LL::write_gyro_y_to_fifo(unsigned char*, MPU_9250::VEnDis)
;;;288      
;;;289      uint8_t TAccGyroMagDriver_LL::write_gyro_y_to_fifo(uint8_t *const Byte, VEnDis GYRO_YOUT)
000000  b530              PUSH     {r4,r5,lr}
;;;290      {
000002  4604              MOV      r4,r0
;;;291        TWrGyroYToFifo Reg;
;;;292    	 operate(Byte, GYRO_YOUT, Reg);
000004  4608              MOV      r0,r1
000006  4613              MOV      r3,r2
000008  b118              CBZ      r0,|L66.18|
00000a  7805              LDRB     r5,[r0,#0]
00000c  f3631545          BFI      r5,r3,#5,#1
000010  7005              STRB     r5,[r0,#0]
                  |L66.18|
000012  bf00              NOP      
;;;293        return reg_gyro_acc::FIFO_EN;
000014  2023              MOVS     r0,#0x23
;;;294      }
000016  bd30              POP      {r4,r5,pc}
;;;295      
                          ENDP


                          AREA ||i._ZN8MPU_925020TAccGyroMagDriver_LL20write_gyro_z_to_fifoEPhNS_6VEnDisE||, CODE, READONLY, ALIGN=1

                  _ZN8MPU_925020TAccGyroMagDriver_LL20write_gyro_z_to_fifoEPhNS_6VEnDisE PROC ; MPU_9250::TAccGyroMagDriver_LL::write_gyro_z_to_fifo(unsigned char*, MPU_9250::VEnDis)
;;;295      
;;;296      uint8_t TAccGyroMagDriver_LL::write_gyro_z_to_fifo(uint8_t *const Byte, VEnDis GYRO_ZOUT)
000000  b530              PUSH     {r4,r5,lr}
;;;297      {
000002  4604              MOV      r4,r0
;;;298        TWrGyroZToFifo Reg;
;;;299    	 operate(Byte, GYRO_ZOUT, Reg);
000004  4608              MOV      r0,r1
000006  4613              MOV      r3,r2
000008  b118              CBZ      r0,|L67.18|
00000a  7805              LDRB     r5,[r0,#0]
00000c  f3631504          BFI      r5,r3,#4,#1
000010  7005              STRB     r5,[r0,#0]
                  |L67.18|
000012  bf00              NOP      
;;;300        return reg_gyro_acc::FIFO_EN;
000014  2023              MOVS     r0,#0x23
;;;301      }
000016  bd30              POP      {r4,r5,pc}
;;;302      
                          ENDP


                          AREA ||i._ZN8MPU_925020TAccGyroMagDriver_LL20write_slave0_to_fifoEPhNS_6VEnDisE||, CODE, READONLY, ALIGN=1

                  _ZN8MPU_925020TAccGyroMagDriver_LL20write_slave0_to_fifoEPhNS_6VEnDisE PROC ; MPU_9250::TAccGyroMagDriver_LL::write_slave0_to_fifo(unsigned char*, MPU_9250::VEnDis)
;;;323      
;;;324      uint8_t TAccGyroMagDriver_LL::write_slave0_to_fifo(uint8_t *const Byte, VEnDis SLV_0)
000000  b530              PUSH     {r4,r5,lr}
;;;325      {
000002  4604              MOV      r4,r0
;;;326        TWrSlave0ToFifo Reg;
;;;327    	 operate(Byte, SLV_0, Reg);
000004  4608              MOV      r0,r1
000006  4613              MOV      r3,r2
000008  b118              CBZ      r0,|L68.18|
00000a  7805              LDRB     r5,[r0,#0]
00000c  f3630500          BFI      r5,r3,#0,#1
000010  7005              STRB     r5,[r0,#0]
                  |L68.18|
000012  bf00              NOP      
;;;328        return reg_gyro_acc::FIFO_EN;
000014  2023              MOVS     r0,#0x23
;;;329      }
000016  bd30              POP      {r4,r5,pc}
;;;330      
                          ENDP


                          AREA ||i._ZN8MPU_925020TAccGyroMagDriver_LL20write_slave1_to_fifoEPhNS_6VEnDisE||, CODE, READONLY, ALIGN=1

                  _ZN8MPU_925020TAccGyroMagDriver_LL20write_slave1_to_fifoEPhNS_6VEnDisE PROC ; MPU_9250::TAccGyroMagDriver_LL::write_slave1_to_fifo(unsigned char*, MPU_9250::VEnDis)
;;;316      
;;;317      uint8_t TAccGyroMagDriver_LL::write_slave1_to_fifo(uint8_t *const Byte, VEnDis SLV_1)
000000  b530              PUSH     {r4,r5,lr}
;;;318      {
000002  4604              MOV      r4,r0
;;;319        TWrSlave1ToFifo Reg;
;;;320    	 operate(Byte, SLV_1, Reg);
000004  4608              MOV      r0,r1
000006  4613              MOV      r3,r2
000008  b118              CBZ      r0,|L69.18|
00000a  7805              LDRB     r5,[r0,#0]
00000c  f3630541          BFI      r5,r3,#1,#1
000010  7005              STRB     r5,[r0,#0]
                  |L69.18|
000012  bf00              NOP      
;;;321        return reg_gyro_acc::FIFO_EN;
000014  2023              MOVS     r0,#0x23
;;;322      }
000016  bd30              POP      {r4,r5,pc}
;;;323      
                          ENDP


                          AREA ||i._ZN8MPU_925020TAccGyroMagDriver_LL20write_slave2_to_fifoEPhNS_6VEnDisE||, CODE, READONLY, ALIGN=1

                  _ZN8MPU_925020TAccGyroMagDriver_LL20write_slave2_to_fifoEPhNS_6VEnDisE PROC ; MPU_9250::TAccGyroMagDriver_LL::write_slave2_to_fifo(unsigned char*, MPU_9250::VEnDis)
;;;309      
;;;310      uint8_t TAccGyroMagDriver_LL::write_slave2_to_fifo(uint8_t *const Byte, VEnDis SLV_2)
000000  b530              PUSH     {r4,r5,lr}
;;;311      {
000002  4604              MOV      r4,r0
;;;312        TWrSlave2ToFifo Reg;
;;;313    	 operate(Byte, SLV_2, Reg);
000004  4608              MOV      r0,r1
000006  4613              MOV      r3,r2
000008  b118              CBZ      r0,|L70.18|
00000a  7805              LDRB     r5,[r0,#0]
00000c  f3630582          BFI      r5,r3,#2,#1
000010  7005              STRB     r5,[r0,#0]
                  |L70.18|
000012  bf00              NOP      
;;;314        return reg_gyro_acc::FIFO_EN;
000014  2023              MOVS     r0,#0x23
;;;315      }
000016  bd30              POP      {r4,r5,pc}
;;;316      
                          ENDP


                          AREA ||i._ZN8MPU_925020TAccGyroMagDriver_LL21filter_gyro_temp_readEhPNS_21VFilterGyroTempConfigE||, CODE, READONLY, ALIGN=1

                  _ZN8MPU_925020TAccGyroMagDriver_LL21filter_gyro_temp_readEhPNS_21VFilterGyroTempConfigE PROC ; MPU_9250::TAccGyroMagDriver_LL::filter_gyro_temp_read(unsigned char, MPU_9250::VFilterGyroTempConfig*)
;;;151      
;;;152      uint8_t TAccGyroMagDriver_LL::filter_gyro_temp_read(uint8_t Byte, VFilterGyroTempConfig *DLPF_CFG)
000000  b518              PUSH     {r3,r4,lr}
;;;153      {
000002  4603              MOV      r3,r0
;;;154        TFilterGyroTempConfig Reg;
;;;155        read(Byte, DLPF_CFG, Reg);
000004  4610              MOV      r0,r2
000006  9100              STR      r1,[sp,#0]
000008  b120              CBZ      r0,|L71.20|
00000a  f89d4000          LDRB     r4,[sp,#0]
00000e  f0040407          AND      r4,r4,#7
000012  7004              STRB     r4,[r0,#0]
                  |L71.20|
000014  bf00              NOP      
;;;156        return reg_gyro_acc::CONFIG;
000016  201a              MOVS     r0,#0x1a
;;;157      }
000018  bd18              POP      {r3,r4,pc}
;;;158      
                          ENDP


                          AREA ||i._ZN8MPU_925020TAccGyroMagDriver_LL21reset_all_signal_pathEPhNS_6VEnDisE||, CODE, READONLY, ALIGN=1

                  _ZN8MPU_925020TAccGyroMagDriver_LL21reset_all_signal_pathEPhNS_6VEnDisE PROC ; MPU_9250::TAccGyroMagDriver_LL::reset_all_signal_path(unsigned char*, MPU_9250::VEnDis)
;;;1218     
;;;1219     uint8_t TAccGyroMagDriver_LL::reset_all_signal_path(uint8_t *const Byte, VEnDis SIG_COND_RST)
000000  b530              PUSH     {r4,r5,lr}
;;;1220     {
000002  4604              MOV      r4,r0
;;;1221       TResetAllSignalPath Reg;
;;;1222       operate(Byte, SIG_COND_RST, Reg);
000004  4608              MOV      r0,r1
000006  4613              MOV      r3,r2
000008  b118              CBZ      r0,|L72.18|
00000a  7805              LDRB     r5,[r0,#0]
00000c  f3630500          BFI      r5,r3,#0,#1
000010  7005              STRB     r5,[r0,#0]
                  |L72.18|
000012  bf00              NOP      
;;;1223       return reg_gyro_acc::USER_CTRL;
000014  206a              MOVS     r0,#0x6a
;;;1224     }
000016  bd30              POP      {r4,r5,pc}
;;;1225     
                          ENDP


                          AREA ||i._ZN8MPU_925020TAccGyroMagDriver_LL21set_accel_wakeup_freqEPhNS_19VSetAccelWakeupFreqE||, CODE, READONLY, ALIGN=1

                  _ZN8MPU_925020TAccGyroMagDriver_LL21set_accel_wakeup_freqEPhNS_19VSetAccelWakeupFreqE PROC ; MPU_9250::TAccGyroMagDriver_LL::set_accel_wakeup_freq(unsigned char*, MPU_9250::VSetAccelWakeupFreq)
;;;257      
;;;258      uint8_t TAccGyroMagDriver_LL::set_accel_wakeup_freq(uint8_t *const Byte, VSetAccelWakeupFreq lposc_clksel)
000000  b530              PUSH     {r4,r5,lr}
;;;259      {
000002  4604              MOV      r4,r0
;;;260        TSetAccelWakeupFreq Reg;
;;;261    	 operate(Byte, lposc_clksel, Reg);
000004  4608              MOV      r0,r1
000006  4613              MOV      r3,r2
000008  b118              CBZ      r0,|L73.18|
00000a  7805              LDRB     r5,[r0,#0]
00000c  f3630503          BFI      r5,r3,#0,#4
000010  7005              STRB     r5,[r0,#0]
                  |L73.18|
000012  bf00              NOP      
;;;262        return reg_gyro_acc::LP_ACCEL_ODR;
000014  201e              MOVS     r0,#0x1e
;;;263      }
000016  bd30              POP      {r4,r5,pc}
;;;264      
                          ENDP


                          AREA ||i._ZN8MPU_925020TAccGyroMagDriver_LL21slv0_write_reg_enableEPhNS_6VEnDisE||, CODE, READONLY, ALIGN=1

                  _ZN8MPU_925020TAccGyroMagDriver_LL21slv0_write_reg_enableEPhNS_6VEnDisE PROC ; MPU_9250::TAccGyroMagDriver_LL::slv0_write_reg_enable(unsigned char*, MPU_9250::VEnDis)
;;;407      
;;;408      uint8_t TAccGyroMagDriver_LL::slv0_write_reg_enable(uint8_t *const Byte, VEnDis I2C_SLV0_REG_DIS)
000000  b530              PUSH     {r4,r5,lr}
;;;409      {
000002  4604              MOV      r4,r0
;;;410        TSlv0WriteReg Reg;
;;;411    	 operate(Byte, I2C_SLV0_REG_DIS, Reg);
000004  4608              MOV      r0,r1
000006  4613              MOV      r3,r2
000008  b118              CBZ      r0,|L74.18|
00000a  7805              LDRB     r5,[r0,#0]
00000c  f3631545          BFI      r5,r3,#5,#1
000010  7005              STRB     r5,[r0,#0]
                  |L74.18|
000012  bf00              NOP      
;;;412        return reg_gyro_acc::I2C_SLV0_CTRL;
000014  2027              MOVS     r0,#0x27
;;;413      }
000016  bd30              POP      {r4,r5,pc}
;;;414      
                          ENDP


                          AREA ||i._ZN8MPU_925020TAccGyroMagDriver_LL22gyro_full_scale_selectEPhNS_20VGyroFullScaleSelectE||, CODE, READONLY, ALIGN=1

                  _ZN8MPU_925020TAccGyroMagDriver_LL22gyro_full_scale_selectEPhNS_20VGyroFullScaleSelectE PROC ; MPU_9250::TAccGyroMagDriver_LL::gyro_full_scale_select(unsigned char*, MPU_9250::VGyroFullScaleSelect)
;;;181      
;;;182      uint8_t TAccGyroMagDriver_LL::gyro_full_scale_select(uint8_t *const Byte, VGyroFullScaleSelect GYRO_FS_SEL)
000000  b530              PUSH     {r4,r5,lr}
;;;183      {
000002  4604              MOV      r4,r0
;;;184        TGyroFullScaleSelect Reg;
;;;185    	 operate(Byte, GYRO_FS_SEL, Reg);
000004  4608              MOV      r0,r1
000006  4613              MOV      r3,r2
000008  b118              CBZ      r0,|L75.18|
00000a  7805              LDRB     r5,[r0,#0]
00000c  f36305c4          BFI      r5,r3,#3,#2
000010  7005              STRB     r5,[r0,#0]
                  |L75.18|
000012  bf00              NOP      
;;;186        return reg_gyro_acc::GYRO_CONFIG;
000014  201b              MOVS     r0,#0x1b
;;;187      }
000016  bd30              POP      {r4,r5,pc}
;;;188        
                          ENDP


                          AREA ||i._ZN8MPU_925020TAccGyroMagDriver_LL22mag_operation_mode_setEPhNS_20VMagOperationModeSetE||, CODE, READONLY, ALIGN=1

                  _ZN8MPU_925020TAccGyroMagDriver_LL22mag_operation_mode_setEPhNS_20VMagOperationModeSetE PROC ; MPU_9250::TAccGyroMagDriver_LL::mag_operation_mode_set(unsigned char*, MPU_9250::VMagOperationModeSet)
;;;1473     
;;;1474     uint8_t TAccGyroMagDriver_LL::mag_operation_mode_set(uint8_t *const Byte, VMagOperationModeSet MODE)
000000  b530              PUSH     {r4,r5,lr}
;;;1475     {
000002  4604              MOV      r4,r0
;;;1476       TMagMode Reg;
;;;1477       operate(Byte, MODE, Reg);
000004  4608              MOV      r0,r1
000006  4613              MOV      r3,r2
000008  b118              CBZ      r0,|L76.18|
00000a  7805              LDRB     r5,[r0,#0]
00000c  f3630503          BFI      r5,r3,#0,#4
000010  7005              STRB     r5,[r0,#0]
                  |L76.18|
000012  bf00              NOP      
;;;1478       return reg_mag::CNTL1;
000014  200a              MOVS     r0,#0xa
;;;1479     }
000016  bd30              POP      {r4,r5,pc}
;;;1480     
                          ENDP


                          AREA ||i._ZN8MPU_925020TAccGyroMagDriver_LL22reset_gyro_signal_pathEPhNS_6VEnDisE||, CODE, READONLY, ALIGN=1

                  _ZN8MPU_925020TAccGyroMagDriver_LL22reset_gyro_signal_pathEPhNS_6VEnDisE PROC ; MPU_9250::TAccGyroMagDriver_LL::reset_gyro_signal_path(unsigned char*, MPU_9250::VEnDis)
;;;1144     
;;;1145     uint8_t TAccGyroMagDriver_LL::reset_gyro_signal_path(uint8_t *const Byte, VEnDis GYRO_RST)
000000  b530              PUSH     {r4,r5,lr}
;;;1146     {
000002  4604              MOV      r4,r0
;;;1147       TResetGyroSignalPath Reg;
;;;1148       operate(Byte, GYRO_RST, Reg);
000004  4608              MOV      r0,r1
000006  4613              MOV      r3,r2
000008  b118              CBZ      r0,|L77.18|
00000a  7805              LDRB     r5,[r0,#0]
00000c  f3630582          BFI      r5,r3,#2,#1
000010  7005              STRB     r5,[r0,#0]
                  |L77.18|
000012  bf00              NOP      
;;;1149       return reg_gyro_acc::SIGNAL_PATH_RESET;
000014  2068              MOVS     r0,#0x68
;;;1150     }
000016  bd30              POP      {r4,r5,pc}
;;;1151     
                          ENDP


                          AREA ||i._ZN8MPU_925020TAccGyroMagDriver_LL22reset_temp_signal_pathEPhNS_6VEnDisE||, CODE, READONLY, ALIGN=1

                  _ZN8MPU_925020TAccGyroMagDriver_LL22reset_temp_signal_pathEPhNS_6VEnDisE PROC ; MPU_9250::TAccGyroMagDriver_LL::reset_temp_signal_path(unsigned char*, MPU_9250::VEnDis)
;;;1158     
;;;1159     uint8_t TAccGyroMagDriver_LL::reset_temp_signal_path(uint8_t *const Byte, VEnDis TEMP_RST)
000000  b530              PUSH     {r4,r5,lr}
;;;1160     {
000002  4604              MOV      r4,r0
;;;1161       TResetTempSignalPath Reg;
;;;1162       operate(Byte, TEMP_RST, Reg);
000004  4608              MOV      r0,r1
000006  4613              MOV      r3,r2
000008  b118              CBZ      r0,|L78.18|
00000a  7805              LDRB     r5,[r0,#0]
00000c  f3630500          BFI      r5,r3,#0,#1
000010  7005              STRB     r5,[r0,#0]
                  |L78.18|
000012  bf00              NOP      
;;;1163       return reg_gyro_acc::SIGNAL_PATH_RESET;
000014  2068              MOVS     r0,#0x68
;;;1164     }
000016  bd30              POP      {r4,r5,pc}
;;;1165     
                          ENDP


                          AREA ||i._ZN8MPU_925020TAccGyroMagDriver_LL22slv4_transfer_completeEhPNS_11VStatusFlagE||, CODE, READONLY, ALIGN=1

                  _ZN8MPU_925020TAccGyroMagDriver_LL22slv4_transfer_completeEhPNS_11VStatusFlagE PROC ; MPU_9250::TAccGyroMagDriver_LL::slv4_transfer_complete(unsigned char, MPU_9250::VStatusFlag*)
;;;663      
;;;664      uint8_t TAccGyroMagDriver_LL::slv4_transfer_complete(const uint8_t Byte, VStatusFlag *I2C_SLV4_DONE)
000000  b518              PUSH     {r3,r4,lr}
;;;665      {
000002  4603              MOV      r3,r0
;;;666        TSlv4TransferComplete Reg;
;;;667        read(Byte, I2C_SLV4_DONE, Reg);
000004  4610              MOV      r0,r2
000006  9100              STR      r1,[sp,#0]
000008  b120              CBZ      r0,|L79.20|
00000a  f89d4000          LDRB     r4,[sp,#0]
00000e  f3c41480          UBFX     r4,r4,#6,#1
000012  7004              STRB     r4,[r0,#0]
                  |L79.20|
000014  bf00              NOP      
;;;668        return reg_gyro_acc::I2C_MST_STATUS;
000016  2036              MOVS     r0,#0x36
;;;669      }
000018  bd18              POP      {r3,r4,pc}
;;;670      
                          ENDP


                          AREA ||i._ZN8MPU_925020TAccGyroMagDriver_LL22status_fsync_interruptEhPNS_11VStatusFlagE||, CODE, READONLY, ALIGN=1

                  _ZN8MPU_925020TAccGyroMagDriver_LL22status_fsync_interruptEhPNS_11VStatusFlagE PROC ; MPU_9250::TAccGyroMagDriver_LL::status_fsync_interrupt(unsigned char, MPU_9250::VStatusFlag*)
;;;656      
;;;657      uint8_t TAccGyroMagDriver_LL::status_fsync_interrupt(const uint8_t Byte, VStatusFlag *PASS_THROUGH)
000000  b518              PUSH     {r3,r4,lr}
;;;658      {
000002  4603              MOV      r3,r0
;;;659        TStatusFsyncInterrupt Reg;
;;;660        read(Byte, PASS_THROUGH, Reg);
000004  4610              MOV      r0,r2
000006  9100              STR      r1,[sp,#0]
000008  b118              CBZ      r0,|L80.18|
00000a  f89d4000          LDRB     r4,[sp,#0]
00000e  09e4              LSRS     r4,r4,#7
000010  7004              STRB     r4,[r0,#0]
                  |L80.18|
000012  bf00              NOP      
;;;661        return reg_gyro_acc::I2C_MST_STATUS;
000014  2036              MOVS     r0,#0x36
;;;662      }
000016  bd18              POP      {r3,r4,pc}
;;;663      
                          ENDP


                          AREA ||i._ZN8MPU_925020TAccGyroMagDriver_LL22voltage_generator_ctrlEPhNS_9VSetResetE||, CODE, READONLY, ALIGN=1

                  _ZN8MPU_925020TAccGyroMagDriver_LL22voltage_generator_ctrlEPhNS_9VSetResetE PROC ; MPU_9250::TAccGyroMagDriver_LL::voltage_generator_ctrl(unsigned char*, MPU_9250::VSetReset)
;;;1255     
;;;1256     uint8_t TAccGyroMagDriver_LL::voltage_generator_ctrl(uint8_t *const Byte, VSetReset PD_PTAT)
000000  b530              PUSH     {r4,r5,lr}
;;;1257     {
000002  4604              MOV      r4,r0
;;;1258       TVoltageGeneratorCtrl Reg;
;;;1259       operate(Byte, PD_PTAT, Reg);
000004  4608              MOV      r0,r1
000006  4613              MOV      r3,r2
000008  b118              CBZ      r0,|L81.18|
00000a  7805              LDRB     r5,[r0,#0]
00000c  f36305c3          BFI      r5,r3,#3,#1
000010  7005              STRB     r5,[r0,#0]
                  |L81.18|
000012  bf00              NOP      
;;;1260       return reg_gyro_acc::PWR_MGMT_1;
000014  206b              MOVS     r0,#0x6b
;;;1261     }
000016  bd30              POP      {r4,r5,pc}
;;;1262     
                          ENDP


                          AREA ||i._ZN8MPU_925020TAccGyroMagDriver_LL23accel_full_scale_selectEPhNS_21VAccelFullScaleSelectE||, CODE, READONLY, ALIGN=1

                  _ZN8MPU_925020TAccGyroMagDriver_LL23accel_full_scale_selectEPhNS_21VAccelFullScaleSelectE PROC ; MPU_9250::TAccGyroMagDriver_LL::accel_full_scale_select(unsigned char*, MPU_9250::VAccelFullScaleSelect)
;;;225      
;;;226      uint8_t TAccGyroMagDriver_LL::accel_full_scale_select(uint8_t *const Byte, VAccelFullScaleSelect ACCEL_FS_SEL)
000000  b530              PUSH     {r4,r5,lr}
;;;227      {
000002  4604              MOV      r4,r0
;;;228        TAccelFullScaleSelect Reg;
;;;229    	 operate(Byte, ACCEL_FS_SEL, Reg);
000004  4608              MOV      r0,r1
000006  4613              MOV      r3,r2
000008  b118              CBZ      r0,|L82.18|
00000a  7805              LDRB     r5,[r0,#0]
00000c  f36305c4          BFI      r5,r3,#3,#2
000010  7005              STRB     r5,[r0,#0]
                  |L82.18|
000012  bf00              NOP      
;;;230        return reg_gyro_acc::ACCEL_CONFIG;
000014  201c              MOVS     r0,#0x1c
;;;231      }
000016  bd30              POP      {r4,r5,pc}
;;;232      
                          ENDP


                          AREA ||i._ZN8MPU_925020TAccGyroMagDriver_LL23enable_x_gyro_self_testEPhNS_6VEnDisE||, CODE, READONLY, ALIGN=1

                  _ZN8MPU_925020TAccGyroMagDriver_LL23enable_x_gyro_self_testEPhNS_6VEnDisE PROC ; MPU_9250::TAccGyroMagDriver_LL::enable_x_gyro_self_test(unsigned char*, MPU_9250::VEnDis)
;;;160      
;;;161      uint8_t TAccGyroMagDriver_LL::enable_x_gyro_self_test(uint8_t *const Byte, VEnDis XGYRO_Cten)
000000  b530              PUSH     {r4,r5,lr}
;;;162      {
000002  4604              MOV      r4,r0
;;;163        TEnableXGyroSelfTest Reg;
;;;164    	 operate(Byte, XGYRO_Cten, Reg);
000004  4608              MOV      r0,r1
000006  4613              MOV      r3,r2
000008  b118              CBZ      r0,|L83.18|
00000a  7805              LDRB     r5,[r0,#0]
00000c  f36315c7          BFI      r5,r3,#7,#1
000010  7005              STRB     r5,[r0,#0]
                  |L83.18|
000012  bf00              NOP      
;;;165        return reg_gyro_acc::GYRO_CONFIG;
000014  201b              MOVS     r0,#0x1b
;;;166      }
000016  bd30              POP      {r4,r5,pc}
;;;167      
                          ENDP


                          AREA ||i._ZN8MPU_925020TAccGyroMagDriver_LL23enable_y_gyro_self_testEPhNS_6VEnDisE||, CODE, READONLY, ALIGN=1

                  _ZN8MPU_925020TAccGyroMagDriver_LL23enable_y_gyro_self_testEPhNS_6VEnDisE PROC ; MPU_9250::TAccGyroMagDriver_LL::enable_y_gyro_self_test(unsigned char*, MPU_9250::VEnDis)
;;;167      
;;;168      uint8_t TAccGyroMagDriver_LL::enable_y_gyro_self_test(uint8_t *const Byte, VEnDis YGYRO_Cten)
000000  b530              PUSH     {r4,r5,lr}
;;;169      {
000002  4604              MOV      r4,r0
;;;170        TEnableYGyroSelfTest Reg;
;;;171    	 operate(Byte, YGYRO_Cten, Reg);
000004  4608              MOV      r0,r1
000006  4613              MOV      r3,r2
000008  b118              CBZ      r0,|L84.18|
00000a  7805              LDRB     r5,[r0,#0]
00000c  f3631586          BFI      r5,r3,#6,#1
000010  7005              STRB     r5,[r0,#0]
                  |L84.18|
000012  bf00              NOP      
;;;172        return reg_gyro_acc::GYRO_CONFIG;
000014  201b              MOVS     r0,#0x1b
;;;173      }
000016  bd30              POP      {r4,r5,pc}
;;;174      
                          ENDP


                          AREA ||i._ZN8MPU_925020TAccGyroMagDriver_LL23enable_z_gyro_self_testEPhNS_6VEnDisE||, CODE, READONLY, ALIGN=1

                  _ZN8MPU_925020TAccGyroMagDriver_LL23enable_z_gyro_self_testEPhNS_6VEnDisE PROC ; MPU_9250::TAccGyroMagDriver_LL::enable_z_gyro_self_test(unsigned char*, MPU_9250::VEnDis)
;;;174      
;;;175      uint8_t TAccGyroMagDriver_LL::enable_z_gyro_self_test(uint8_t *const Byte, VEnDis ZGYRO_Cten)
000000  b530              PUSH     {r4,r5,lr}
;;;176      {
000002  4604              MOV      r4,r0
;;;177        TEnableZGyroSelfTest Reg;
;;;178    	 operate(Byte, ZGYRO_Cten, Reg);
000004  4608              MOV      r0,r1
000006  4613              MOV      r3,r2
000008  b118              CBZ      r0,|L85.18|
00000a  7805              LDRB     r5,[r0,#0]
00000c  f3631545          BFI      r5,r3,#5,#1
000010  7005              STRB     r5,[r0,#0]
                  |L85.18|
000012  bf00              NOP      
;;;179        return reg_gyro_acc::GYRO_CONFIG;
000014  201b              MOVS     r0,#0x1b
;;;180      }
000016  bd30              POP      {r4,r5,pc}
;;;181      
                          ENDP


                          AREA ||i._ZN8MPU_925020TAccGyroMagDriver_LL23filter_gyro_temp_configEPhNS_21VFilterGyroTempConfigE||, CODE, READONLY, ALIGN=1

                  _ZN8MPU_925020TAccGyroMagDriver_LL23filter_gyro_temp_configEPhNS_21VFilterGyroTempConfigE PROC ; MPU_9250::TAccGyroMagDriver_LL::filter_gyro_temp_config(unsigned char*, MPU_9250::VFilterGyroTempConfig)
;;;144      
;;;145      uint8_t TAccGyroMagDriver_LL::filter_gyro_temp_config(uint8_t *const Byte, VFilterGyroTempConfig DLPF_CFG)
000000  b530              PUSH     {r4,r5,lr}
;;;146      {
000002  4604              MOV      r4,r0
;;;147        TFilterGyroTempConfig Reg;
;;;148    	  operate(Byte, DLPF_CFG, Reg);
000004  4608              MOV      r0,r1
000006  4613              MOV      r3,r2
000008  b118              CBZ      r0,|L86.18|
00000a  7805              LDRB     r5,[r0,#0]
00000c  f3630502          BFI      r5,r3,#0,#3
000010  7005              STRB     r5,[r0,#0]
                  |L86.18|
000012  bf00              NOP      
;;;149        return reg_gyro_acc::CONFIG;
000014  201a              MOVS     r0,#0x1a
;;;150      }
000016  bd30              POP      {r4,r5,pc}
;;;151      
                          ENDP


                          AREA ||i._ZN8MPU_925020TAccGyroMagDriver_LL23mag_operation_mode_readEhPNS_20VMagOperationModeSetE||, CODE, READONLY, ALIGN=1

                  _ZN8MPU_925020TAccGyroMagDriver_LL23mag_operation_mode_readEhPNS_20VMagOperationModeSetE PROC ; MPU_9250::TAccGyroMagDriver_LL::mag_operation_mode_read(unsigned char, MPU_9250::VMagOperationModeSet*)
;;;1480     
;;;1481     uint8_t TAccGyroMagDriver_LL::mag_operation_mode_read(const uint8_t Byte, VMagOperationModeSet *MODE)
000000  b518              PUSH     {r3,r4,lr}
;;;1482     {
000002  4603              MOV      r3,r0
;;;1483       TMagMode Reg;
;;;1484       read(Byte, MODE, Reg);
000004  4610              MOV      r0,r2
000006  9100              STR      r1,[sp,#0]
000008  b120              CBZ      r0,|L87.20|
00000a  f89d4000          LDRB     r4,[sp,#0]
00000e  f004040f          AND      r4,r4,#0xf
000012  7004              STRB     r4,[r0,#0]
                  |L87.20|
000014  bf00              NOP      
;;;1485       return reg_mag::CNTL1;
000016  200a              MOVS     r0,#0xa
;;;1486     }
000018  bd18              POP      {r3,r4,pc}
;;;1487     
                          ENDP


                          AREA ||i._ZN8MPU_925020TAccGyroMagDriver_LL23raw_data_ready_int_ctrlEPhNS_6VEnDisE||, CODE, READONLY, ALIGN=1

                  _ZN8MPU_925020TAccGyroMagDriver_LL23raw_data_ready_int_ctrlEPhNS_6VEnDisE PROC ; MPU_9250::TAccGyroMagDriver_LL::raw_data_ready_int_ctrl(unsigned char*, MPU_9250::VEnDis)
;;;793      
;;;794      uint8_t TAccGyroMagDriver_LL::raw_data_ready_int_ctrl(uint8_t *const Byte, VEnDis RAW_RDY_EN)
000000  b530              PUSH     {r4,r5,lr}
;;;795      {
000002  4604              MOV      r4,r0
;;;796        TRawDataReadyIntCtrl Reg;
;;;797        operate(Byte, RAW_RDY_EN, Reg);
000004  4608              MOV      r0,r1
000006  4613              MOV      r3,r2
000008  b118              CBZ      r0,|L88.18|
00000a  7805              LDRB     r5,[r0,#0]
00000c  f3630500          BFI      r5,r3,#0,#1
000010  7005              STRB     r5,[r0,#0]
                  |L88.18|
000012  bf00              NOP      
;;;798        return reg_gyro_acc::INT_ENABLE;
000014  2038              MOVS     r0,#0x38
;;;799      }
000016  bd30              POP      {r4,r5,pc}
;;;800      
                          ENDP


                          AREA ||i._ZN8MPU_925020TAccGyroMagDriver_LL23reset_accel_signal_pathEPhNS_6VEnDisE||, CODE, READONLY, ALIGN=1

                  _ZN8MPU_925020TAccGyroMagDriver_LL23reset_accel_signal_pathEPhNS_6VEnDisE PROC ; MPU_9250::TAccGyroMagDriver_LL::reset_accel_signal_path(unsigned char*, MPU_9250::VEnDis)
;;;1151     
;;;1152     uint8_t TAccGyroMagDriver_LL::reset_accel_signal_path(uint8_t *const Byte, VEnDis ACCEL_RST)
000000  b530              PUSH     {r4,r5,lr}
;;;1153     {
000002  4604              MOV      r4,r0
;;;1154       TResetAccelSignalPath Reg;
;;;1155       operate(Byte, ACCEL_RST, Reg);
000004  4608              MOV      r0,r1
000006  4613              MOV      r3,r2
000008  b118              CBZ      r0,|L89.18|
00000a  7805              LDRB     r5,[r0,#0]
00000c  f3630541          BFI      r5,r3,#1,#1
000010  7005              STRB     r5,[r0,#0]
                  |L89.18|
000012  bf00              NOP      
;;;1156       return reg_gyro_acc::SIGNAL_PATH_RESET;
000014  2068              MOVS     r0,#0x68
;;;1157     }
000016  bd30              POP      {r4,r5,pc}
;;;1158     
                          ENDP


                          AREA ||i._ZN8MPU_925020TAccGyroMagDriver_LL23reset_i2c_master_moduleEPhNS_6VEnDisE||, CODE, READONLY, ALIGN=1

                  _ZN8MPU_925020TAccGyroMagDriver_LL23reset_i2c_master_moduleEPhNS_6VEnDisE PROC ; MPU_9250::TAccGyroMagDriver_LL::reset_i2c_master_module(unsigned char*, MPU_9250::VEnDis)
;;;1211     
;;;1212     uint8_t TAccGyroMagDriver_LL::reset_i2c_master_module(uint8_t *const Byte, VEnDis I2C_MST_RST)
000000  b530              PUSH     {r4,r5,lr}
;;;1213     {
000002  4604              MOV      r4,r0
;;;1214       TResetI2CMasterModule Reg;
;;;1215       operate(Byte, I2C_MST_RST, Reg);
000004  4608              MOV      r0,r1
000006  4613              MOV      r3,r2
000008  b118              CBZ      r0,|L90.18|
00000a  7805              LDRB     r5,[r0,#0]
00000c  f3630541          BFI      r5,r3,#1,#1
000010  7005              STRB     r5,[r0,#0]
                  |L90.18|
000012  bf00              NOP      
;;;1216       return reg_gyro_acc::USER_CTRL;
000014  206a              MOVS     r0,#0x6a
;;;1217     }
000016  bd30              POP      {r4,r5,pc}
;;;1218     
                          ENDP


                          AREA ||i._ZN8MPU_925020TAccGyroMagDriver_LL23wake_on_motion_int_ctrlEPhNS_6VEnDisE||, CODE, READONLY, ALIGN=1

                  _ZN8MPU_925020TAccGyroMagDriver_LL23wake_on_motion_int_ctrlEPhNS_6VEnDisE PROC ; MPU_9250::TAccGyroMagDriver_LL::wake_on_motion_int_ctrl(unsigned char*, MPU_9250::VEnDis)
;;;772      
;;;773      uint8_t TAccGyroMagDriver_LL::wake_on_motion_int_ctrl(uint8_t *const Byte, VEnDis WOM_EN)
000000  b530              PUSH     {r4,r5,lr}
;;;774      {
000002  4604              MOV      r4,r0
;;;775        TWakeOnMotionIntCtrl Reg;
;;;776        operate(Byte, WOM_EN, Reg);
000004  4608              MOV      r0,r1
000006  4613              MOV      r3,r2
000008  b118              CBZ      r0,|L91.18|
00000a  7805              LDRB     r5,[r0,#0]
00000c  f3631586          BFI      r5,r3,#6,#1
000010  7005              STRB     r5,[r0,#0]
                  |L91.18|
000012  bf00              NOP      
;;;777        return reg_gyro_acc::INT_ENABLE;
000014  2038              MOVS     r0,#0x38
;;;778      }
000016  bd30              POP      {r4,r5,pc}
;;;779      
                          ENDP


                          AREA ||i._ZN8MPU_925020TAccGyroMagDriver_LL23write_data_slv3_to_fifoEPhNS_6VEnDisE||, CODE, READONLY, ALIGN=1

                  _ZN8MPU_925020TAccGyroMagDriver_LL23write_data_slv3_to_fifoEPhNS_6VEnDisE PROC ; MPU_9250::TAccGyroMagDriver_LL::write_data_slv3_to_fifo(unsigned char*, MPU_9250::VEnDis)
;;;346      
;;;347      uint8_t TAccGyroMagDriver_LL::write_data_slv3_to_fifo(uint8_t *const Byte, VEnDis SLV_3_FIFO_EN)
000000  b530              PUSH     {r4,r5,lr}
;;;348      {
000002  4604              MOV      r4,r0
;;;349        TWriteDataSlv3ToFifo Reg;
;;;350    	 operate(Byte, SLV_3_FIFO_EN, Reg);
000004  4608              MOV      r0,r1
000006  4613              MOV      r3,r2
000008  b118              CBZ      r0,|L92.18|
00000a  7805              LDRB     r5,[r0,#0]
00000c  f3631545          BFI      r5,r3,#5,#1
000010  7005              STRB     r5,[r0,#0]
                  |L92.18|
000012  bf00              NOP      
;;;351        return reg_gyro_acc::I2C_MST_CTRL;
000014  2024              MOVS     r0,#0x24
;;;352      }
000016  bd30              POP      {r4,r5,pc}
;;;353      
                          ENDP


                          AREA ||i._ZN8MPU_925020TAccGyroMagDriver_LL24enable_x_accel_self_testEPhNS_6VEnDisE||, CODE, READONLY, ALIGN=1

                  _ZN8MPU_925020TAccGyroMagDriver_LL24enable_x_accel_self_testEPhNS_6VEnDisE PROC ; MPU_9250::TAccGyroMagDriver_LL::enable_x_accel_self_test(unsigned char*, MPU_9250::VEnDis)
;;;204      
;;;205      uint8_t TAccGyroMagDriver_LL::enable_x_accel_self_test(uint8_t *const Byte, VEnDis ax_st_en)
000000  b530              PUSH     {r4,r5,lr}
;;;206      {
000002  4604              MOV      r4,r0
;;;207        TEnableXAccelSelfTest Reg;
;;;208    	 operate(Byte, ax_st_en, Reg);
000004  4608              MOV      r0,r1
000006  4613              MOV      r3,r2
000008  b118              CBZ      r0,|L93.18|
00000a  7805              LDRB     r5,[r0,#0]
00000c  f36315c7          BFI      r5,r3,#7,#1
000010  7005              STRB     r5,[r0,#0]
                  |L93.18|
000012  bf00              NOP      
;;;209        return reg_gyro_acc::ACCEL_CONFIG;
000014  201c              MOVS     r0,#0x1c
;;;210      }
000016  bd30              POP      {r4,r5,pc}
;;;211      
                          ENDP


                          AREA ||i._ZN8MPU_925020TAccGyroMagDriver_LL24enable_y_accel_self_testEPhNS_6VEnDisE||, CODE, READONLY, ALIGN=1

                  _ZN8MPU_925020TAccGyroMagDriver_LL24enable_y_accel_self_testEPhNS_6VEnDisE PROC ; MPU_9250::TAccGyroMagDriver_LL::enable_y_accel_self_test(unsigned char*, MPU_9250::VEnDis)
;;;211      
;;;212      uint8_t TAccGyroMagDriver_LL::enable_y_accel_self_test(uint8_t *const Byte, VEnDis ay_st_en)
000000  b530              PUSH     {r4,r5,lr}
;;;213      {
000002  4604              MOV      r4,r0
;;;214        TEnableYAccelSelfTest Reg;
;;;215    	 operate(Byte, ay_st_en, Reg);
000004  4608              MOV      r0,r1
000006  4613              MOV      r3,r2
000008  b118              CBZ      r0,|L94.18|
00000a  7805              LDRB     r5,[r0,#0]
00000c  f3631586          BFI      r5,r3,#6,#1
000010  7005              STRB     r5,[r0,#0]
                  |L94.18|
000012  bf00              NOP      
;;;216        return reg_gyro_acc::ACCEL_CONFIG;
000014  201c              MOVS     r0,#0x1c
;;;217      }
000016  bd30              POP      {r4,r5,pc}
;;;218      
                          ENDP


                          AREA ||i._ZN8MPU_925020TAccGyroMagDriver_LL24enable_z_accel_self_testEPhNS_6VEnDisE||, CODE, READONLY, ALIGN=1

                  _ZN8MPU_925020TAccGyroMagDriver_LL24enable_z_accel_self_testEPhNS_6VEnDisE PROC ; MPU_9250::TAccGyroMagDriver_LL::enable_z_accel_self_test(unsigned char*, MPU_9250::VEnDis)
;;;218      
;;;219      uint8_t TAccGyroMagDriver_LL::enable_z_accel_self_test(uint8_t *const Byte, VEnDis az_st_en)
000000  b530              PUSH     {r4,r5,lr}
;;;220      {
000002  4604              MOV      r4,r0
;;;221        TEnableZAccelSelfTest Reg;
;;;222    	 operate(Byte, az_st_en, Reg);
000004  4608              MOV      r0,r1
000006  4613              MOV      r3,r2
000008  b118              CBZ      r0,|L95.18|
00000a  7805              LDRB     r5,[r0,#0]
00000c  f3631545          BFI      r5,r3,#5,#1
000010  7005              STRB     r5,[r0,#0]
                  |L95.18|
000012  bf00              NOP      
;;;223        return reg_gyro_acc::ACCEL_CONFIG;
000014  201c              MOVS     r0,#0x1c
;;;224      }
000016  bd30              POP      {r4,r5,pc}
;;;225      
                          ENDP


                          AREA ||i._ZN8MPU_925020TAccGyroMagDriver_LL25accel_wake_on_motion_ctrlEPhNS_6VEnDisE||, CODE, READONLY, ALIGN=1

                  _ZN8MPU_925020TAccGyroMagDriver_LL25accel_wake_on_motion_ctrlEPhNS_6VEnDisE PROC ; MPU_9250::TAccGyroMagDriver_LL::accel_wake_on_motion_ctrl(unsigned char*, MPU_9250::VEnDis)
;;;1167     
;;;1168     uint8_t TAccGyroMagDriver_LL::accel_wake_on_motion_ctrl(uint8_t *const Byte, VEnDis ACCEL_INTEL_EN)
000000  b530              PUSH     {r4,r5,lr}
;;;1169     {
000002  4604              MOV      r4,r0
;;;1170       TAccelWakeOnMotionCtrl Reg;
;;;1171       operate(Byte, ACCEL_INTEL_EN, Reg);
000004  4608              MOV      r0,r1
000006  4613              MOV      r3,r2
000008  b118              CBZ      r0,|L96.18|
00000a  7805              LDRB     r5,[r0,#0]
00000c  f36315c7          BFI      r5,r3,#7,#1
000010  7005              STRB     r5,[r0,#0]
                  |L96.18|
000012  bf00              NOP      
;;;1172       return reg_gyro_acc::MOT_DETECT_CTRL;
000014  2069              MOVS     r0,#0x69
;;;1173     }
000016  bd30              POP      {r4,r5,pc}
;;;1174     
                          ENDP


                          AREA ||i._ZN8MPU_925020TAccGyroMagDriver_LL25i2c_master_if_module_ctrlEPhNS_14VI2CMasterCtrlE||, CODE, READONLY, ALIGN=1

                  _ZN8MPU_925020TAccGyroMagDriver_LL25i2c_master_if_module_ctrlEPhNS_14VI2CMasterCtrlE PROC ; MPU_9250::TAccGyroMagDriver_LL::i2c_master_if_module_ctrl(unsigned char*, MPU_9250::VI2CMasterCtrl)
;;;1190     
;;;1191     uint8_t TAccGyroMagDriver_LL::i2c_master_if_module_ctrl(uint8_t *const Byte, VI2CMasterCtrl I2C_MST_EN)
000000  b530              PUSH     {r4,r5,lr}
;;;1192     {
000002  4604              MOV      r4,r0
;;;1193       TI2CMasterIFModuleCtrl Reg;
;;;1194       operate(Byte, I2C_MST_EN, Reg);
000004  4608              MOV      r0,r1
000006  4613              MOV      r3,r2
000008  b118              CBZ      r0,|L97.18|
00000a  7805              LDRB     r5,[r0,#0]
00000c  f3631545          BFI      r5,r3,#5,#1
000010  7005              STRB     r5,[r0,#0]
                  |L97.18|
000012  bf00              NOP      
;;;1195       return reg_gyro_acc::USER_CTRL;
000014  206a              MOVS     r0,#0x6a
;;;1196     }
000016  bd30              POP      {r4,r5,pc}
;;;1197     
                          ENDP


                          AREA ||i._ZN8MPU_925020TAccGyroMagDriver_LL25raw_data_ready_int_statusEhPNS_11VStatusFlagE||, CODE, READONLY, ALIGN=1

                  _ZN8MPU_925020TAccGyroMagDriver_LL25raw_data_ready_int_statusEhPNS_11VStatusFlagE PROC ; MPU_9250::TAccGyroMagDriver_LL::raw_data_ready_int_status(unsigned char, MPU_9250::VStatusFlag*)
;;;823      
;;;824      uint8_t TAccGyroMagDriver_LL::raw_data_ready_int_status(const uint8_t Byte, VStatusFlag *RAW_DATA_RDY_INT)
000000  b518              PUSH     {r3,r4,lr}
;;;825      {
000002  4603              MOV      r3,r0
;;;826        TRawDataReadyIntStatus Reg;
;;;827        read(Byte, RAW_DATA_RDY_INT, Reg);
000004  4610              MOV      r0,r2
000006  9100              STR      r1,[sp,#0]
000008  b120              CBZ      r0,|L98.20|
00000a  f89d4000          LDRB     r4,[sp,#0]
00000e  f0040401          AND      r4,r4,#1
000012  7004              STRB     r4,[r0,#0]
                  |L98.20|
000014  bf00              NOP      
;;;828        return reg_gyro_acc::INT_STATUS;
000016  203a              MOVS     r0,#0x3a
;;;829      }
000018  bd18              POP      {r3,r4,pc}
;;;830      
                          ENDP


                          AREA ||i._ZN8MPU_925020TAccGyroMagDriver_LL25wake_on_motion_int_statusEhPNS_11VStatusFlagE||, CODE, READONLY, ALIGN=1

                  _ZN8MPU_925020TAccGyroMagDriver_LL25wake_on_motion_int_statusEhPNS_11VStatusFlagE PROC ; MPU_9250::TAccGyroMagDriver_LL::wake_on_motion_int_status(unsigned char, MPU_9250::VStatusFlag*)
;;;802      
;;;803      uint8_t TAccGyroMagDriver_LL::wake_on_motion_int_status(const uint8_t Byte, VStatusFlag *WOM_INT)
000000  b518              PUSH     {r3,r4,lr}
;;;804      {
000002  4603              MOV      r3,r0
;;;805        TWakeOnMotionIntStatus Reg;
;;;806        read(Byte, WOM_INT, Reg);
000004  4610              MOV      r0,r2
000006  9100              STR      r1,[sp,#0]
000008  b120              CBZ      r0,|L99.20|
00000a  f89d4000          LDRB     r4,[sp,#0]
00000e  f3c41480          UBFX     r4,r4,#6,#1
000012  7004              STRB     r4,[r0,#0]
                  |L99.20|
000014  bf00              NOP      
;;;807        return reg_gyro_acc::INT_STATUS;
000016  203a              MOVS     r0,#0x3a
;;;808      }
000018  bd18              POP      {r3,r4,pc}
;;;809      
                          ENDP


                          AREA ||i._ZN8MPU_925020TAccGyroMagDriver_LL26accel_compare_samples_ctrlEPhNS_6VEnDisE||, CODE, READONLY, ALIGN=1

                  _ZN8MPU_925020TAccGyroMagDriver_LL26accel_compare_samples_ctrlEPhNS_6VEnDisE PROC ; MPU_9250::TAccGyroMagDriver_LL::accel_compare_samples_ctrl(unsigned char*, MPU_9250::VEnDis)
;;;1174     
;;;1175     uint8_t TAccGyroMagDriver_LL::accel_compare_samples_ctrl(uint8_t *const Byte, VEnDis ACCEL_INTEL_MODE)
000000  b530              PUSH     {r4,r5,lr}
;;;1176     {
000002  4604              MOV      r4,r0
;;;1177       TAccelCompareSamplesCtrl Reg;
;;;1178       operate(Byte, ACCEL_INTEL_MODE, Reg);
000004  4608              MOV      r0,r1
000006  4613              MOV      r3,r2
000008  b118              CBZ      r0,|L100.18|
00000a  7805              LDRB     r5,[r0,#0]
00000c  f3631586          BFI      r5,r3,#6,#1
000010  7005              STRB     r5,[r0,#0]
                  |L100.18|
000012  bf00              NOP      
;;;1179       return reg_gyro_acc::MOT_DETECT_CTRL;
000014  2069              MOVS     r0,#0x69
;;;1180     }
000016  bd30              POP      {r4,r5,pc}
;;;1181     
                          ENDP


                          AREA ||i._ZN8MPU_925020TAccGyroMagDriver_LL26ctrl_slave_read_transitionEPhNS_6VEnDisE||, CODE, READONLY, ALIGN=1

                  _ZN8MPU_925020TAccGyroMagDriver_LL26ctrl_slave_read_transitionEPhNS_6VEnDisE PROC ; MPU_9250::TAccGyroMagDriver_LL::ctrl_slave_read_transition(unsigned char*, MPU_9250::VEnDis)
;;;353      
;;;354      uint8_t TAccGyroMagDriver_LL::ctrl_slave_read_transition(uint8_t *const Byte, VEnDis I2C_MST_P_NSR)
000000  b530              PUSH     {r4,r5,lr}
;;;355      {
000002  4604              MOV      r4,r0
;;;356        TCtrlSlaveReadTransition Reg;
;;;357    	 operate(Byte, I2C_MST_P_NSR, Reg);
000004  4608              MOV      r0,r1
000006  4613              MOV      r3,r2
000008  b118              CBZ      r0,|L101.18|
00000a  7805              LDRB     r5,[r0,#0]
00000c  f3631504          BFI      r5,r3,#4,#1
000010  7005              STRB     r5,[r0,#0]
                  |L101.18|
000012  bf00              NOP      
;;;358        return reg_gyro_acc::I2C_MST_CTRL;
000014  2024              MOVS     r0,#0x24
;;;359      }
000016  bd30              POP      {r4,r5,pc}
;;;360      
                          ENDP


                          AREA ||i._ZN8MPU_925020TAccGyroMagDriver_LL26delay_shadow_ext_sens_ctrlEPhNS_6VEnDisE||, CODE, READONLY, ALIGN=1

                  _ZN8MPU_925020TAccGyroMagDriver_LL26delay_shadow_ext_sens_ctrlEPhNS_6VEnDisE PROC ; MPU_9250::TAccGyroMagDriver_LL::delay_shadow_ext_sens_ctrl(unsigned char*, MPU_9250::VEnDis)
;;;1100     
;;;1101     uint8_t TAccGyroMagDriver_LL::delay_shadow_ext_sens_ctrl(uint8_t *const Byte, VEnDis DELAY_ES_SHADOW)
000000  b530              PUSH     {r4,r5,lr}
;;;1102     {
000002  4604              MOV      r4,r0
;;;1103       TDelayShadowExtSense Reg;
;;;1104       operate(Byte, DELAY_ES_SHADOW, Reg);
000004  4608              MOV      r0,r1
000006  4613              MOV      r3,r2
000008  b118              CBZ      r0,|L102.18|
00000a  7805              LDRB     r5,[r0,#0]
00000c  f36315c7          BFI      r5,r3,#7,#1
000010  7005              STRB     r5,[r0,#0]
                  |L102.18|
000012  bf00              NOP      
;;;1105       return reg_gyro_acc::I2C_MST_DELAY_CTRL;
000014  2067              MOVS     r0,#0x67
;;;1106     }
000016  bd30              POP      {r4,r5,pc}
;;;1107     
                          ENDP


                          AREA ||i._ZN8MPU_925020TAccGyroMagDriver_LL31reset_and_restore_internal_regsEPhNS_9VSetResetE||, CODE, READONLY, ALIGN=1

                  _ZN8MPU_925020TAccGyroMagDriver_LL31reset_and_restore_internal_regsEPhNS_9VSetResetE PROC ; MPU_9250::TAccGyroMagDriver_LL::reset_and_restore_internal_regs(unsigned char*, MPU_9250::VSetReset)
;;;1227     
;;;1228     uint8_t TAccGyroMagDriver_LL::reset_and_restore_internal_regs(uint8_t *const Byte, VSetReset H_RESET)
000000  b530              PUSH     {r4,r5,lr}
;;;1229     {
000002  4604              MOV      r4,r0
;;;1230       TResetAndRestoreInternalRegs Reg;
;;;1231       operate(Byte, H_RESET, Reg);
000004  4608              MOV      r0,r1
000006  4613              MOV      r3,r2
000008  b118              CBZ      r0,|L103.18|
00000a  7805              LDRB     r5,[r0,#0]
00000c  f36315c7          BFI      r5,r3,#7,#1
000010  7005              STRB     r5,[r0,#0]
                  |L103.18|
000012  bf00              NOP      
;;;1232       return reg_gyro_acc::PWR_MGMT_1;
000014  206b              MOVS     r0,#0x6b
;;;1233     }
000016  bd30              POP      {r4,r5,pc}
;;;1234     
                          ENDP


                          AREA ||i._ZN8MPU_925020TAccGyroMagDriver_LLC1Ev||, CODE, READONLY, ALIGN=1

                  _ZN8MPU_925020TAccGyroMagDriver_LLC2Ev                  ; Alternate entry point ; MPU_9250::TAccGyroMagDriver_LL::TAccGyroMagDriver_LL__sub_object()
                  _ZN8MPU_925020TAccGyroMagDriver_LLC1Ev PROC ; MPU_9250::TAccGyroMagDriver_LL::TAccGyroMagDriver_LL()
;;;15     
;;;16       TAccGyroMagDriver_LL::TAccGyroMagDriver_LL()
;;;17       {  	 
;;;18     //	   fill_in_vector(_ProtocolWrOne, ProtocolWrOne);
;;;19     //	   fill_in_vector(_ProtocolWrMul, ProtocolWrMul);
;;;20     //	   fill_in_vector(_ProtocolRdOne, ProtocolRdOne);
;;;21     //	   fill_in_vector(_ProtocolRdMul, ProtocolRdMul);
;;;22       }
;;;23     
000000  2148              MOVS     r1,#0x48
000002  7001              STRB     r1,[r0,#0]
000004  2171              MOVS     r1,#0x71
000006  7041              STRB     r1,[r0,#1]
000008  4770              BX       lr
                          ENDP


                          AREA ||i._ZN8MPU_925020TAccGyroMagDriver_LLD1Ev||, CODE, READONLY, ALIGN=1

                  _ZN8MPU_925020TAccGyroMagDriver_LLD2Ev                  ; Alternate entry point ; MPU_9250::TAccGyroMagDriver_LL::~TAccGyroMagDriver_LL__sub_object()
                  _ZN8MPU_925020TAccGyroMagDriver_LLD1Ev PROC ; MPU_9250::TAccGyroMagDriver_LL::~TAccGyroMagDriver_LL()
;;;23     
;;;24       TAccGyroMagDriver_LL::~TAccGyroMagDriver_LL()
;;;25       {
;;;26       
;;;27       }
;;;28     
000000  4770              BX       lr
                          ENDP


                          AREA ||i._ZNK8MPU_925020TAccGyroMagDriver_LL12get_mag_addrEv||, CODE, READONLY, ALIGN=1

                  _ZNK8MPU_925020TAccGyroMagDriver_LL12get_mag_addrEv PROC ; MPU_9250::TAccGyroMagDriver_LL::get_mag_addr() const
;;;36     
;;;37       uint8_t TAccGyroMagDriver_LL::get_mag_addr() const
000000  4601              MOV      r1,r0
;;;38       {
;;;39         return 0x0C;  //The slave address for the AK8963 is 0X0C or 12 decimal
000002  200c              MOVS     r0,#0xc
;;;40       }
000004  4770              BX       lr
;;;41     //-----------------------------------------------------------------------------------------------
                          ENDP


                          AREA ||i._ZNK8MPU_925020TAccGyroMagDriver_LL17get_acc_gyro_addrENS_14TLogicLevelAD0E||, CODE, READONLY, ALIGN=2

                  _ZNK8MPU_925020TAccGyroMagDriver_LL17get_acc_gyro_addrENS_14TLogicLevelAD0E PROC ; MPU_9250::TAccGyroMagDriver_LL::get_acc_gyro_addr(MPU_9250::TLogicLevelAD0) const
;;;28     
;;;29       uint8_t TAccGyroMagDriver_LL::get_acc_gyro_addr(TLogicLevelAD0 Level) const
000000  b508              PUSH     {r3,lr}
;;;30       {
000002  4602              MOV      r2,r0
;;;31         constexpr uint8_t Addr[] = 
000004  a002              ADR      r0,|L107.16|
000006  6800              LDR      r0,[r0,#0]
000008  9000              STR      r0,[sp,#0]
;;;32     	   {0x68, 0x69};
;;;33         
;;;34     	   return Addr[Level];
00000a  f81d0001          LDRB     r0,[sp,r1]
;;;35       }
00000e  bd08              POP      {r3,pc}
;;;36     
                          ENDP

                  |L107.16|
000010  686900            DCB      "hi",0
000013  00                DCB      0

                          AREA ||.ARM.exidx||, LINKORDER=||i._ZN8MPU_925020TAccGyroMagDriver_LLC1Ev||, DATA, READONLY, SECTYPE={SHT_ARM_EXIDX}, ALIGN=2

                          DCD      0x00000000
                          RELOC 42, ||i._ZN8MPU_925020TAccGyroMagDriver_LLC1Ev||
                          DCD      0x00000001

                          AREA ||area_number.109||, LINKORDER=||i._ZN8MPU_925020TAccGyroMagDriver_LLD1Ev||, DATA, READONLY, SECTYPE={SHT_ARM_EXIDX}, ALIGN=2

                          EXPORTAS ||area_number.109||, ||.ARM.exidx||
                          DCD      0x00000000
                          RELOC 42, ||i._ZN8MPU_925020TAccGyroMagDriver_LLD1Ev||
                          DCD      0x00000001

                          AREA ||area_number.110||, LINKORDER=||i._ZNK8MPU_925020TAccGyroMagDriver_LL17get_acc_gyro_addrENS_14TLogicLevelAD0E||, DATA, READONLY, SECTYPE={SHT_ARM_EXIDX}, ALIGN=2

                          EXPORTAS ||area_number.110||, ||.ARM.exidx||
                          DCD      0x00000000
                          RELOC 42, ||i._ZNK8MPU_925020TAccGyroMagDriver_LL17get_acc_gyro_addrENS_14TLogicLevelAD0E||
                          DCD      0x00000001

                          AREA ||area_number.111||, LINKORDER=||i._ZNK8MPU_925020TAccGyroMagDriver_LL12get_mag_addrEv||, DATA, READONLY, SECTYPE={SHT_ARM_EXIDX}, ALIGN=2

                          EXPORTAS ||area_number.111||, ||.ARM.exidx||
                          DCD      0x00000000
                          RELOC 42, ||i._ZNK8MPU_925020TAccGyroMagDriver_LL12get_mag_addrEv||
                          DCD      0x00000001

                          AREA ||area_number.112||, LINKORDER=||i._ZN8MPU_925020TAccGyroMagDriver_LL16fifo_mode_configEPhNS_15VFifoModeConfigE||, DATA, READONLY, SECTYPE={SHT_ARM_EXIDX}, ALIGN=2

                          EXPORTAS ||area_number.112||, ||.ARM.exidx||
                          DCD      0x00000000
                          RELOC 42, ||i._ZN8MPU_925020TAccGyroMagDriver_LL16fifo_mode_configEPhNS_15VFifoModeConfigE||
                          DCD      0x00000001

                          AREA ||area_number.113||, LINKORDER=||i._ZN8MPU_925020TAccGyroMagDriver_LL16fsync_pin_configEPhNS_15VFsyncPinConfigE||, DATA, READONLY, SECTYPE={SHT_ARM_EXIDX}, ALIGN=2

                          EXPORTAS ||area_number.113||, ||.ARM.exidx||
                          DCD      0x00000000
                          RELOC 42, ||i._ZN8MPU_925020TAccGyroMagDriver_LL16fsync_pin_configEPhNS_15VFsyncPinConfigE||
                          DCD      0x00000001

                          AREA ||area_number.114||, LINKORDER=||i._ZN8MPU_925020TAccGyroMagDriver_LL23filter_gyro_temp_configEPhNS_21VFilterGyroTempConfigE||, DATA, READONLY, SECTYPE={SHT_ARM_EXIDX}, ALIGN=2

                          EXPORTAS ||area_number.114||, ||.ARM.exidx||
                          DCD      0x00000000
                          RELOC 42, ||i._ZN8MPU_925020TAccGyroMagDriver_LL23filter_gyro_temp_configEPhNS_21VFilterGyroTempConfigE||
                          DCD      0x00000001

                          AREA ||area_number.115||, LINKORDER=||i._ZN8MPU_925020TAccGyroMagDriver_LL21filter_gyro_temp_readEhPNS_21VFilterGyroTempConfigE||, DATA, READONLY, SECTYPE={SHT_ARM_EXIDX}, ALIGN=2

                          EXPORTAS ||area_number.115||, ||.ARM.exidx||
                          DCD      0x00000000
                          RELOC 42, ||i._ZN8MPU_925020TAccGyroMagDriver_LL21filter_gyro_temp_readEhPNS_21VFilterGyroTempConfigE||
                          DCD      0x00000001

                          AREA ||area_number.116||, LINKORDER=||i._ZN8MPU_925020TAccGyroMagDriver_LL23enable_x_gyro_self_testEPhNS_6VEnDisE||, DATA, READONLY, SECTYPE={SHT_ARM_EXIDX}, ALIGN=2

                          EXPORTAS ||area_number.116||, ||.ARM.exidx||
                          DCD      0x00000000
                          RELOC 42, ||i._ZN8MPU_925020TAccGyroMagDriver_LL23enable_x_gyro_self_testEPhNS_6VEnDisE||
                          DCD      0x00000001

                          AREA ||area_number.117||, LINKORDER=||i._ZN8MPU_925020TAccGyroMagDriver_LL23enable_y_gyro_self_testEPhNS_6VEnDisE||, DATA, READONLY, SECTYPE={SHT_ARM_EXIDX}, ALIGN=2

                          EXPORTAS ||area_number.117||, ||.ARM.exidx||
                          DCD      0x00000000
                          RELOC 42, ||i._ZN8MPU_925020TAccGyroMagDriver_LL23enable_y_gyro_self_testEPhNS_6VEnDisE||
                          DCD      0x00000001

                          AREA ||area_number.118||, LINKORDER=||i._ZN8MPU_925020TAccGyroMagDriver_LL23enable_z_gyro_self_testEPhNS_6VEnDisE||, DATA, READONLY, SECTYPE={SHT_ARM_EXIDX}, ALIGN=2

                          EXPORTAS ||area_number.118||, ||.ARM.exidx||
                          DCD      0x00000000
                          RELOC 42, ||i._ZN8MPU_925020TAccGyroMagDriver_LL23enable_z_gyro_self_testEPhNS_6VEnDisE||
                          DCD      0x00000001

                          AREA ||area_number.119||, LINKORDER=||i._ZN8MPU_925020TAccGyroMagDriver_LL22gyro_full_scale_selectEPhNS_20VGyroFullScaleSelectE||, DATA, READONLY, SECTYPE={SHT_ARM_EXIDX}, ALIGN=2

                          EXPORTAS ||area_number.119||, ||.ARM.exidx||
                          DCD      0x00000000
                          RELOC 42, ||i._ZN8MPU_925020TAccGyroMagDriver_LL22gyro_full_scale_selectEPhNS_20VGyroFullScaleSelectE||
                          DCD      0x00000001

                          AREA ||area_number.120||, LINKORDER=||i._ZN8MPU_925020TAccGyroMagDriver_LL20gyro_full_scale_readEhPNS_20VGyroFullScaleSelectE||, DATA, READONLY, SECTYPE={SHT_ARM_EXIDX}, ALIGN=2

                          EXPORTAS ||area_number.120||, ||.ARM.exidx||
                          DCD      0x00000000
                          RELOC 42, ||i._ZN8MPU_925020TAccGyroMagDriver_LL20gyro_full_scale_readEhPNS_20VGyroFullScaleSelectE||
                          DCD      0x00000001

                          AREA ||area_number.121||, LINKORDER=||i._ZN8MPU_925020TAccGyroMagDriver_LL18gyro_filter_choiseEPhNS_17VGyroFilterChoiseE||, DATA, READONLY, SECTYPE={SHT_ARM_EXIDX}, ALIGN=2

                          EXPORTAS ||area_number.121||, ||.ARM.exidx||
                          DCD      0x00000000
                          RELOC 42, ||i._ZN8MPU_925020TAccGyroMagDriver_LL18gyro_filter_choiseEPhNS_17VGyroFilterChoiseE||
                          DCD      0x00000001

                          AREA ||area_number.122||, LINKORDER=||i._ZN8MPU_925020TAccGyroMagDriver_LL24enable_x_accel_self_testEPhNS_6VEnDisE||, DATA, READONLY, SECTYPE={SHT_ARM_EXIDX}, ALIGN=2

                          EXPORTAS ||area_number.122||, ||.ARM.exidx||
                          DCD      0x00000000
                          RELOC 42, ||i._ZN8MPU_925020TAccGyroMagDriver_LL24enable_x_accel_self_testEPhNS_6VEnDisE||
                          DCD      0x00000001

                          AREA ||area_number.123||, LINKORDER=||i._ZN8MPU_925020TAccGyroMagDriver_LL24enable_y_accel_self_testEPhNS_6VEnDisE||, DATA, READONLY, SECTYPE={SHT_ARM_EXIDX}, ALIGN=2

                          EXPORTAS ||area_number.123||, ||.ARM.exidx||
                          DCD      0x00000000
                          RELOC 42, ||i._ZN8MPU_925020TAccGyroMagDriver_LL24enable_y_accel_self_testEPhNS_6VEnDisE||
                          DCD      0x00000001

                          AREA ||area_number.124||, LINKORDER=||i._ZN8MPU_925020TAccGyroMagDriver_LL24enable_z_accel_self_testEPhNS_6VEnDisE||, DATA, READONLY, SECTYPE={SHT_ARM_EXIDX}, ALIGN=2

                          EXPORTAS ||area_number.124||, ||.ARM.exidx||
                          DCD      0x00000000
                          RELOC 42, ||i._ZN8MPU_925020TAccGyroMagDriver_LL24enable_z_accel_self_testEPhNS_6VEnDisE||
                          DCD      0x00000001

                          AREA ||area_number.125||, LINKORDER=||i._ZN8MPU_925020TAccGyroMagDriver_LL23accel_full_scale_selectEPhNS_21VAccelFullScaleSelectE||, DATA, READONLY, SECTYPE={SHT_ARM_EXIDX}, ALIGN=2

                          EXPORTAS ||area_number.125||, ||.ARM.exidx||
                          DCD      0x00000000
                          RELOC 42, ||i._ZN8MPU_925020TAccGyroMagDriver_LL23accel_full_scale_selectEPhNS_21VAccelFullScaleSelectE||
                          DCD      0x00000001

                          AREA ||area_number.126||, LINKORDER=||i._ZN8MPU_925020TAccGyroMagDriver_LL19accel_filter_choiseEPhNS_18VAccelFilterChoiseE||, DATA, READONLY, SECTYPE={SHT_ARM_EXIDX}, ALIGN=2

                          EXPORTAS ||area_number.126||, ||.ARM.exidx||
                          DCD      0x00000000
                          RELOC 42, ||i._ZN8MPU_925020TAccGyroMagDriver_LL19accel_filter_choiseEPhNS_18VAccelFilterChoiseE||
                          DCD      0x00000001

                          AREA ||area_number.127||, LINKORDER=||i._ZN8MPU_925020TAccGyroMagDriver_LL17accel_filter_readEhPNS_15VSetAccelFilterE||, DATA, READONLY, SECTYPE={SHT_ARM_EXIDX}, ALIGN=2

                          EXPORTAS ||area_number.127||, ||.ARM.exidx||
                          DCD      0x00000000
                          RELOC 42, ||i._ZN8MPU_925020TAccGyroMagDriver_LL17accel_filter_readEhPNS_15VSetAccelFilterE||
                          DCD      0x00000001

                          AREA ||area_number.128||, LINKORDER=||i._ZN8MPU_925020TAccGyroMagDriver_LL16set_accel_filterEPhNS_15VSetAccelFilterE||, DATA, READONLY, SECTYPE={SHT_ARM_EXIDX}, ALIGN=2

                          EXPORTAS ||area_number.128||, ||.ARM.exidx||
                          DCD      0x00000000
                          RELOC 42, ||i._ZN8MPU_925020TAccGyroMagDriver_LL16set_accel_filterEPhNS_15VSetAccelFilterE||
                          DCD      0x00000001

                          AREA ||area_number.129||, LINKORDER=||i._ZN8MPU_925020TAccGyroMagDriver_LL21set_accel_wakeup_freqEPhNS_19VSetAccelWakeupFreqE||, DATA, READONLY, SECTYPE={SHT_ARM_EXIDX}, ALIGN=2

                          EXPORTAS ||area_number.129||, ||.ARM.exidx||
                          DCD      0x00000000
                          RELOC 42, ||i._ZN8MPU_925020TAccGyroMagDriver_LL21set_accel_wakeup_freqEPhNS_19VSetAccelWakeupFreqE||
                          DCD      0x00000001

                          AREA ||area_number.130||, LINKORDER=||i._ZN8MPU_925020TAccGyroMagDriver_LL18write_temp_to_fifoEPhNS_6VEnDisE||, DATA, READONLY, SECTYPE={SHT_ARM_EXIDX}, ALIGN=2

                          EXPORTAS ||area_number.130||, ||.ARM.exidx||
                          DCD      0x00000000
                          RELOC 42, ||i._ZN8MPU_925020TAccGyroMagDriver_LL18write_temp_to_fifoEPhNS_6VEnDisE||
                          DCD      0x00000001

                          AREA ||area_number.131||, LINKORDER=||i._ZN8MPU_925020TAccGyroMagDriver_LL20write_gyro_x_to_fifoEPhNS_6VEnDisE||, DATA, READONLY, SECTYPE={SHT_ARM_EXIDX}, ALIGN=2

                          EXPORTAS ||area_number.131||, ||.ARM.exidx||
                          DCD      0x00000000
                          RELOC 42, ||i._ZN8MPU_925020TAccGyroMagDriver_LL20write_gyro_x_to_fifoEPhNS_6VEnDisE||
                          DCD      0x00000001

                          AREA ||area_number.132||, LINKORDER=||i._ZN8MPU_925020TAccGyroMagDriver_LL20write_gyro_y_to_fifoEPhNS_6VEnDisE||, DATA, READONLY, SECTYPE={SHT_ARM_EXIDX}, ALIGN=2

                          EXPORTAS ||area_number.132||, ||.ARM.exidx||
                          DCD      0x00000000
                          RELOC 42, ||i._ZN8MPU_925020TAccGyroMagDriver_LL20write_gyro_y_to_fifoEPhNS_6VEnDisE||
                          DCD      0x00000001

                          AREA ||area_number.133||, LINKORDER=||i._ZN8MPU_925020TAccGyroMagDriver_LL20write_gyro_z_to_fifoEPhNS_6VEnDisE||, DATA, READONLY, SECTYPE={SHT_ARM_EXIDX}, ALIGN=2

                          EXPORTAS ||area_number.133||, ||.ARM.exidx||
                          DCD      0x00000000
                          RELOC 42, ||i._ZN8MPU_925020TAccGyroMagDriver_LL20write_gyro_z_to_fifoEPhNS_6VEnDisE||
                          DCD      0x00000001

                          AREA ||area_number.134||, LINKORDER=||i._ZN8MPU_925020TAccGyroMagDriver_LL19write_accel_to_fifoEPhNS_6VEnDisE||, DATA, READONLY, SECTYPE={SHT_ARM_EXIDX}, ALIGN=2

                          EXPORTAS ||area_number.134||, ||.ARM.exidx||
                          DCD      0x00000000
                          RELOC 42, ||i._ZN8MPU_925020TAccGyroMagDriver_LL19write_accel_to_fifoEPhNS_6VEnDisE||
                          DCD      0x00000001

                          AREA ||area_number.135||, LINKORDER=||i._ZN8MPU_925020TAccGyroMagDriver_LL20write_slave2_to_fifoEPhNS_6VEnDisE||, DATA, READONLY, SECTYPE={SHT_ARM_EXIDX}, ALIGN=2

                          EXPORTAS ||area_number.135||, ||.ARM.exidx||
                          DCD      0x00000000
                          RELOC 42, ||i._ZN8MPU_925020TAccGyroMagDriver_LL20write_slave2_to_fifoEPhNS_6VEnDisE||
                          DCD      0x00000001

                          AREA ||area_number.136||, LINKORDER=||i._ZN8MPU_925020TAccGyroMagDriver_LL20write_slave1_to_fifoEPhNS_6VEnDisE||, DATA, READONLY, SECTYPE={SHT_ARM_EXIDX}, ALIGN=2

                          EXPORTAS ||area_number.136||, ||.ARM.exidx||
                          DCD      0x00000000
                          RELOC 42, ||i._ZN8MPU_925020TAccGyroMagDriver_LL20write_slave1_to_fifoEPhNS_6VEnDisE||
                          DCD      0x00000001

                          AREA ||area_number.137||, LINKORDER=||i._ZN8MPU_925020TAccGyroMagDriver_LL20write_slave0_to_fifoEPhNS_6VEnDisE||, DATA, READONLY, SECTYPE={SHT_ARM_EXIDX}, ALIGN=2

                          EXPORTAS ||area_number.137||, ||.ARM.exidx||
                          DCD      0x00000000
                          RELOC 42, ||i._ZN8MPU_925020TAccGyroMagDriver_LL20write_slave0_to_fifoEPhNS_6VEnDisE||
                          DCD      0x00000001

                          AREA ||area_number.138||, LINKORDER=||i._ZN8MPU_925020TAccGyroMagDriver_LL19multi_master_enableEPhNS_6VEnDisE||, DATA, READONLY, SECTYPE={SHT_ARM_EXIDX}, ALIGN=2

                          EXPORTAS ||area_number.138||, ||.ARM.exidx||
                          DCD      0x00000000
                          RELOC 42, ||i._ZN8MPU_925020TAccGyroMagDriver_LL19multi_master_enableEPhNS_6VEnDisE||
                          DCD      0x00000001

                          AREA ||area_number.139||, LINKORDER=||i._ZN8MPU_925020TAccGyroMagDriver_LL20delay_data_ready_intEPhNS_6VEnDisE||, DATA, READONLY, SECTYPE={SHT_ARM_EXIDX}, ALIGN=2

                          EXPORTAS ||area_number.139||, ||.ARM.exidx||
                          DCD      0x00000000
                          RELOC 42, ||i._ZN8MPU_925020TAccGyroMagDriver_LL20delay_data_ready_intEPhNS_6VEnDisE||
                          DCD      0x00000001

                          AREA ||area_number.140||, LINKORDER=||i._ZN8MPU_925020TAccGyroMagDriver_LL23write_data_slv3_to_fifoEPhNS_6VEnDisE||, DATA, READONLY, SECTYPE={SHT_ARM_EXIDX}, ALIGN=2

                          EXPORTAS ||area_number.140||, ||.ARM.exidx||
                          DCD      0x00000000
                          RELOC 42, ||i._ZN8MPU_925020TAccGyroMagDriver_LL23write_data_slv3_to_fifoEPhNS_6VEnDisE||
                          DCD      0x00000001

                          AREA ||area_number.141||, LINKORDER=||i._ZN8MPU_925020TAccGyroMagDriver_LL26ctrl_slave_read_transitionEPhNS_6VEnDisE||, DATA, READONLY, SECTYPE={SHT_ARM_EXIDX}, ALIGN=2

                          EXPORTAS ||area_number.141||, ||.ARM.exidx||
                          DCD      0x00000000
                          RELOC 42, ||i._ZN8MPU_925020TAccGyroMagDriver_LL26ctrl_slave_read_transitionEPhNS_6VEnDisE||
                          DCD      0x00000001

                          AREA ||area_number.142||, LINKORDER=||i._ZN8MPU_925020TAccGyroMagDriver_LL19config_internal_clkEPhNS_18VConfigInternalClkE||, DATA, READONLY, SECTYPE={SHT_ARM_EXIDX}, ALIGN=2

                          EXPORTAS ||area_number.142||, ||.ARM.exidx||
                          DCD      0x00000000
                          RELOC 42, ||i._ZN8MPU_925020TAccGyroMagDriver_LL19config_internal_clkEPhNS_18VConfigInternalClkE||
                          DCD      0x00000001

                          AREA ||area_number.143||, LINKORDER=||i._ZN8MPU_925020TAccGyroMagDriver_LL20slv0_direct_transferEPhNS_16VI2CTransferTypeE||, DATA, READONLY, SECTYPE={SHT_ARM_EXIDX}, ALIGN=2

                          EXPORTAS ||area_number.143||, ||.ARM.exidx||
                          DCD      0x00000000
                          RELOC 42, ||i._ZN8MPU_925020TAccGyroMagDriver_LL20slv0_direct_transferEPhNS_16VI2CTransferTypeE||
                          DCD      0x00000001

                          AREA ||area_number.144||, LINKORDER=||i._ZN8MPU_925020TAccGyroMagDriver_LL16slv0_phy_addressEPhh||, DATA, READONLY, SECTYPE={SHT_ARM_EXIDX}, ALIGN=2

                          EXPORTAS ||area_number.144||, ||.ARM.exidx||
                          DCD      0x00000000
                          RELOC 42, ||i._ZN8MPU_925020TAccGyroMagDriver_LL16slv0_phy_addressEPhh||
                          DCD      0x00000001

                          AREA ||area_number.145||, LINKORDER=||i._ZN8MPU_925020TAccGyroMagDriver_LL11slv0_enableEPhNS_6VEnDisE||, DATA, READONLY, SECTYPE={SHT_ARM_EXIDX}, ALIGN=2

                          EXPORTAS ||area_number.145||, ||.ARM.exidx||
                          DCD      0x00000000
                          RELOC 42, ||i._ZN8MPU_925020TAccGyroMagDriver_LL11slv0_enableEPhNS_6VEnDisE||
                          DCD      0x00000001

                          AREA ||area_number.146||, LINKORDER=||i._ZN8MPU_925020TAccGyroMagDriver_LL15slv0_swap_bytesEPhNS_6VEnDisE||, DATA, READONLY, SECTYPE={SHT_ARM_EXIDX}, ALIGN=2

                          EXPORTAS ||area_number.146||, ||.ARM.exidx||
                          DCD      0x00000000
                          RELOC 42, ||i._ZN8MPU_925020TAccGyroMagDriver_LL15slv0_swap_bytesEPhNS_6VEnDisE||
                          DCD      0x00000001

                          AREA ||area_number.147||, LINKORDER=||i._ZN8MPU_925020TAccGyroMagDriver_LL21slv0_write_reg_enableEPhNS_6VEnDisE||, DATA, READONLY, SECTYPE={SHT_ARM_EXIDX}, ALIGN=2

                          EXPORTAS ||area_number.147||, ||.ARM.exidx||
                          DCD      0x00000000
                          RELOC 42, ||i._ZN8MPU_925020TAccGyroMagDriver_LL21slv0_write_reg_enableEPhNS_6VEnDisE||
                          DCD      0x00000001

                          AREA ||area_number.148||, LINKORDER=||i._ZN8MPU_925020TAccGyroMagDriver_LL15slv0_group_dataEPhNS_6VEnDisE||, DATA, READONLY, SECTYPE={SHT_ARM_EXIDX}, ALIGN=2

                          EXPORTAS ||area_number.148||, ||.ARM.exidx||
                          DCD      0x00000000
                          RELOC 42, ||i._ZN8MPU_925020TAccGyroMagDriver_LL15slv0_group_dataEPhNS_6VEnDisE||
                          DCD      0x00000001

                          AREA ||area_number.149||, LINKORDER=||i._ZN8MPU_925020TAccGyroMagDriver_LL19slv0_num_bytes_readEPhNS_16VSlvNumBytesReadE||, DATA, READONLY, SECTYPE={SHT_ARM_EXIDX}, ALIGN=2

                          EXPORTAS ||area_number.149||, ||.ARM.exidx||
                          DCD      0x00000000
                          RELOC 42, ||i._ZN8MPU_925020TAccGyroMagDriver_LL19slv0_num_bytes_readEPhNS_16VSlvNumBytesReadE||
                          DCD      0x00000001

                          AREA ||area_number.150||, LINKORDER=||i._ZN8MPU_925020TAccGyroMagDriver_LL22status_fsync_interruptEhPNS_11VStatusFlagE||, DATA, READONLY, SECTYPE={SHT_ARM_EXIDX}, ALIGN=2

                          EXPORTAS ||area_number.150||, ||.ARM.exidx||
                          DCD      0x00000000
                          RELOC 42, ||i._ZN8MPU_925020TAccGyroMagDriver_LL22status_fsync_interruptEhPNS_11VStatusFlagE||
                          DCD      0x00000001

                          AREA ||area_number.151||, LINKORDER=||i._ZN8MPU_925020TAccGyroMagDriver_LL22slv4_transfer_completeEhPNS_11VStatusFlagE||, DATA, READONLY, SECTYPE={SHT_ARM_EXIDX}, ALIGN=2

                          EXPORTAS ||area_number.151||, ||.ARM.exidx||
                          DCD      0x00000000
                          RELOC 42, ||i._ZN8MPU_925020TAccGyroMagDriver_LL22slv4_transfer_completeEhPNS_11VStatusFlagE||
                          DCD      0x00000001

                          AREA ||area_number.152||, LINKORDER=||i._ZN8MPU_925020TAccGyroMagDriver_LL20slv_lost_arbitrationEhPNS_11VStatusFlagE||, DATA, READONLY, SECTYPE={SHT_ARM_EXIDX}, ALIGN=2

                          EXPORTAS ||area_number.152||, ||.ARM.exidx||
                          DCD      0x00000000
                          RELOC 42, ||i._ZN8MPU_925020TAccGyroMagDriver_LL20slv_lost_arbitrationEhPNS_11VStatusFlagE||
                          DCD      0x00000001

                          AREA ||area_number.153||, LINKORDER=||i._ZN8MPU_925020TAccGyroMagDriver_LL12slv4_rx_nackEhPNS_11VStatusFlagE||, DATA, READONLY, SECTYPE={SHT_ARM_EXIDX}, ALIGN=2

                          EXPORTAS ||area_number.153||, ||.ARM.exidx||
                          DCD      0x00000000
                          RELOC 42, ||i._ZN8MPU_925020TAccGyroMagDriver_LL12slv4_rx_nackEhPNS_11VStatusFlagE||
                          DCD      0x00000001

                          AREA ||area_number.154||, LINKORDER=||i._ZN8MPU_925020TAccGyroMagDriver_LL12slv3_rx_nackEhPNS_11VStatusFlagE||, DATA, READONLY, SECTYPE={SHT_ARM_EXIDX}, ALIGN=2

                          EXPORTAS ||area_number.154||, ||.ARM.exidx||
                          DCD      0x00000000
                          RELOC 42, ||i._ZN8MPU_925020TAccGyroMagDriver_LL12slv3_rx_nackEhPNS_11VStatusFlagE||
                          DCD      0x00000001

                          AREA ||area_number.155||, LINKORDER=||i._ZN8MPU_925020TAccGyroMagDriver_LL12slv2_rx_nackEhPNS_11VStatusFlagE||, DATA, READONLY, SECTYPE={SHT_ARM_EXIDX}, ALIGN=2

                          EXPORTAS ||area_number.155||, ||.ARM.exidx||
                          DCD      0x00000000
                          RELOC 42, ||i._ZN8MPU_925020TAccGyroMagDriver_LL12slv2_rx_nackEhPNS_11VStatusFlagE||
                          DCD      0x00000001

                          AREA ||area_number.156||, LINKORDER=||i._ZN8MPU_925020TAccGyroMagDriver_LL12slv1_rx_nackEhPNS_11VStatusFlagE||, DATA, READONLY, SECTYPE={SHT_ARM_EXIDX}, ALIGN=2

                          EXPORTAS ||area_number.156||, ||.ARM.exidx||
                          DCD      0x00000000
                          RELOC 42, ||i._ZN8MPU_925020TAccGyroMagDriver_LL12slv1_rx_nackEhPNS_11VStatusFlagE||
                          DCD      0x00000001

                          AREA ||area_number.157||, LINKORDER=||i._ZN8MPU_925020TAccGyroMagDriver_LL12slv0_rx_nackEhPNS_11VStatusFlagE||, DATA, READONLY, SECTYPE={SHT_ARM_EXIDX}, ALIGN=2

                          EXPORTAS ||area_number.157||, ||.ARM.exidx||
                          DCD      0x00000000
                          RELOC 42, ||i._ZN8MPU_925020TAccGyroMagDriver_LL12slv0_rx_nackEhPNS_11VStatusFlagE||
                          DCD      0x00000001

                          AREA ||area_number.158||, LINKORDER=||i._ZN8MPU_925020TAccGyroMagDriver_LL15int_logic_levelEPhNS_14VLogicLevelINTE||, DATA, READONLY, SECTYPE={SHT_ARM_EXIDX}, ALIGN=2

                          EXPORTAS ||area_number.158||, ||.ARM.exidx||
                          DCD      0x00000000
                          RELOC 42, ||i._ZN8MPU_925020TAccGyroMagDriver_LL15int_logic_levelEPhNS_14VLogicLevelINTE||
                          DCD      0x00000001

                          AREA ||area_number.159||, LINKORDER=||i._ZN8MPU_925020TAccGyroMagDriver_LL14int_pin_configEPhNS_13VPinConfigINTE||, DATA, READONLY, SECTYPE={SHT_ARM_EXIDX}, ALIGN=2

                          EXPORTAS ||area_number.159||, ||.ARM.exidx||
                          DCD      0x00000000
                          RELOC 42, ||i._ZN8MPU_925020TAccGyroMagDriver_LL14int_pin_configEPhNS_13VPinConfigINTE||
                          DCD      0x00000001

                          AREA ||area_number.160||, LINKORDER=||i._ZN8MPU_925020TAccGyroMagDriver_LL14int_latch_ctrlEPhNS_9VLatchINTE||, DATA, READONLY, SECTYPE={SHT_ARM_EXIDX}, ALIGN=2

                          EXPORTAS ||area_number.160||, ||.ARM.exidx||
                          DCD      0x00000000
                          RELOC 42, ||i._ZN8MPU_925020TAccGyroMagDriver_LL14int_latch_ctrlEPhNS_9VLatchINTE||
                          DCD      0x00000001

                          AREA ||area_number.161||, LINKORDER=||i._ZN8MPU_925020TAccGyroMagDriver_LL15int_status_ctrlEPhNS_6VEnDisE||, DATA, READONLY, SECTYPE={SHT_ARM_EXIDX}, ALIGN=2

                          EXPORTAS ||area_number.161||, ||.ARM.exidx||
                          DCD      0x00000000
                          RELOC 42, ||i._ZN8MPU_925020TAccGyroMagDriver_LL15int_status_ctrlEPhNS_6VEnDisE||
                          DCD      0x00000001

                          AREA ||area_number.162||, LINKORDER=||i._ZN8MPU_925020TAccGyroMagDriver_LL16fsync_level_ctrlEPhNS_6VEnDisE||, DATA, READONLY, SECTYPE={SHT_ARM_EXIDX}, ALIGN=2

                          EXPORTAS ||area_number.162||, ||.ARM.exidx||
                          DCD      0x00000000
                          RELOC 42, ||i._ZN8MPU_925020TAccGyroMagDriver_LL16fsync_level_ctrlEPhNS_6VEnDisE||
                          DCD      0x00000001

                          AREA ||area_number.163||, LINKORDER=||i._ZN8MPU_925020TAccGyroMagDriver_LL12fsync_enableEPhNS_6VEnDisE||, DATA, READONLY, SECTYPE={SHT_ARM_EXIDX}, ALIGN=2

                          EXPORTAS ||area_number.163||, ||.ARM.exidx||
                          DCD      0x00000000
                          RELOC 42, ||i._ZN8MPU_925020TAccGyroMagDriver_LL12fsync_enableEPhNS_6VEnDisE||
                          DCD      0x00000001

                          AREA ||area_number.164||, LINKORDER=||i._ZN8MPU_925020TAccGyroMagDriver_LL20i2c_master_pins_ctrlEPhNS_6VEnDisE||, DATA, READONLY, SECTYPE={SHT_ARM_EXIDX}, ALIGN=2

                          EXPORTAS ||area_number.164||, ||.ARM.exidx||
                          DCD      0x00000000
                          RELOC 42, ||i._ZN8MPU_925020TAccGyroMagDriver_LL20i2c_master_pins_ctrlEPhNS_6VEnDisE||
                          DCD      0x00000001

                          AREA ||area_number.165||, LINKORDER=||i._ZN8MPU_925020TAccGyroMagDriver_LL20i2c_master_pins_readEhPNS_6VEnDisE||, DATA, READONLY, SECTYPE={SHT_ARM_EXIDX}, ALIGN=2

                          EXPORTAS ||area_number.165||, ||.ARM.exidx||
                          DCD      0x00000000
                          RELOC 42, ||i._ZN8MPU_925020TAccGyroMagDriver_LL20i2c_master_pins_readEhPNS_6VEnDisE||
                          DCD      0x00000001

                          AREA ||area_number.166||, LINKORDER=||i._ZN8MPU_925020TAccGyroMagDriver_LL23wake_on_motion_int_ctrlEPhNS_6VEnDisE||, DATA, READONLY, SECTYPE={SHT_ARM_EXIDX}, ALIGN=2

                          EXPORTAS ||area_number.166||, ||.ARM.exidx||
                          DCD      0x00000000
                          RELOC 42, ||i._ZN8MPU_925020TAccGyroMagDriver_LL23wake_on_motion_int_ctrlEPhNS_6VEnDisE||
                          DCD      0x00000001

                          AREA ||area_number.167||, LINKORDER=||i._ZN8MPU_925020TAccGyroMagDriver_LL18fifo_ovrf_int_ctrlEPhNS_6VEnDisE||, DATA, READONLY, SECTYPE={SHT_ARM_EXIDX}, ALIGN=2

                          EXPORTAS ||area_number.167||, ||.ARM.exidx||
                          DCD      0x00000000
                          RELOC 42, ||i._ZN8MPU_925020TAccGyroMagDriver_LL18fifo_ovrf_int_ctrlEPhNS_6VEnDisE||
                          DCD      0x00000001

                          AREA ||area_number.168||, LINKORDER=||i._ZN8MPU_925020TAccGyroMagDriver_LL14fsync_int_ctrlEPhNS_6VEnDisE||, DATA, READONLY, SECTYPE={SHT_ARM_EXIDX}, ALIGN=2

                          EXPORTAS ||area_number.168||, ||.ARM.exidx||
                          DCD      0x00000000
                          RELOC 42, ||i._ZN8MPU_925020TAccGyroMagDriver_LL14fsync_int_ctrlEPhNS_6VEnDisE||
                          DCD      0x00000001

                          AREA ||area_number.169||, LINKORDER=||i._ZN8MPU_925020TAccGyroMagDriver_LL23raw_data_ready_int_ctrlEPhNS_6VEnDisE||, DATA, READONLY, SECTYPE={SHT_ARM_EXIDX}, ALIGN=2

                          EXPORTAS ||area_number.169||, ||.ARM.exidx||
                          DCD      0x00000000
                          RELOC 42, ||i._ZN8MPU_925020TAccGyroMagDriver_LL23raw_data_ready_int_ctrlEPhNS_6VEnDisE||
                          DCD      0x00000001

                          AREA ||area_number.170||, LINKORDER=||i._ZN8MPU_925020TAccGyroMagDriver_LL25wake_on_motion_int_statusEhPNS_11VStatusFlagE||, DATA, READONLY, SECTYPE={SHT_ARM_EXIDX}, ALIGN=2

                          EXPORTAS ||area_number.170||, ||.ARM.exidx||
                          DCD      0x00000000
                          RELOC 42, ||i._ZN8MPU_925020TAccGyroMagDriver_LL25wake_on_motion_int_statusEhPNS_11VStatusFlagE||
                          DCD      0x00000001

                          AREA ||area_number.171||, LINKORDER=||i._ZN8MPU_925020TAccGyroMagDriver_LL20fifo_ovrf_int_statusEhPNS_11VStatusFlagE||, DATA, READONLY, SECTYPE={SHT_ARM_EXIDX}, ALIGN=2

                          EXPORTAS ||area_number.171||, ||.ARM.exidx||
                          DCD      0x00000000
                          RELOC 42, ||i._ZN8MPU_925020TAccGyroMagDriver_LL20fifo_ovrf_int_statusEhPNS_11VStatusFlagE||
                          DCD      0x00000001

                          AREA ||area_number.172||, LINKORDER=||i._ZN8MPU_925020TAccGyroMagDriver_LL16fsync_int_statusEhPNS_11VStatusFlagE||, DATA, READONLY, SECTYPE={SHT_ARM_EXIDX}, ALIGN=2

                          EXPORTAS ||area_number.172||, ||.ARM.exidx||
                          DCD      0x00000000
                          RELOC 42, ||i._ZN8MPU_925020TAccGyroMagDriver_LL16fsync_int_statusEhPNS_11VStatusFlagE||
                          DCD      0x00000001

                          AREA ||area_number.173||, LINKORDER=||i._ZN8MPU_925020TAccGyroMagDriver_LL25raw_data_ready_int_statusEhPNS_11VStatusFlagE||, DATA, READONLY, SECTYPE={SHT_ARM_EXIDX}, ALIGN=2

                          EXPORTAS ||area_number.173||, ||.ARM.exidx||
                          DCD      0x00000000
                          RELOC 42, ||i._ZN8MPU_925020TAccGyroMagDriver_LL25raw_data_ready_int_statusEhPNS_11VStatusFlagE||
                          DCD      0x00000001

                          AREA ||area_number.174||, LINKORDER=||i._ZN8MPU_925020TAccGyroMagDriver_LL26delay_shadow_ext_sens_ctrlEPhNS_6VEnDisE||, DATA, READONLY, SECTYPE={SHT_ARM_EXIDX}, ALIGN=2

                          EXPORTAS ||area_number.174||, ||.ARM.exidx||
                          DCD      0x00000000
                          RELOC 42, ||i._ZN8MPU_925020TAccGyroMagDriver_LL26delay_shadow_ext_sens_ctrlEPhNS_6VEnDisE||
                          DCD      0x00000001

                          AREA ||area_number.175||, LINKORDER=||i._ZN8MPU_925020TAccGyroMagDriver_LL20slv4_dly_access_ctrlEPhNS_6VEnDisE||, DATA, READONLY, SECTYPE={SHT_ARM_EXIDX}, ALIGN=2

                          EXPORTAS ||area_number.175||, ||.ARM.exidx||
                          DCD      0x00000000
                          RELOC 42, ||i._ZN8MPU_925020TAccGyroMagDriver_LL20slv4_dly_access_ctrlEPhNS_6VEnDisE||
                          DCD      0x00000001

                          AREA ||area_number.176||, LINKORDER=||i._ZN8MPU_925020TAccGyroMagDriver_LL20slv3_dly_access_ctrlEPhNS_6VEnDisE||, DATA, READONLY, SECTYPE={SHT_ARM_EXIDX}, ALIGN=2

                          EXPORTAS ||area_number.176||, ||.ARM.exidx||
                          DCD      0x00000000
                          RELOC 42, ||i._ZN8MPU_925020TAccGyroMagDriver_LL20slv3_dly_access_ctrlEPhNS_6VEnDisE||
                          DCD      0x00000001

                          AREA ||area_number.177||, LINKORDER=||i._ZN8MPU_925020TAccGyroMagDriver_LL20slv2_dly_access_ctrlEPhNS_6VEnDisE||, DATA, READONLY, SECTYPE={SHT_ARM_EXIDX}, ALIGN=2

                          EXPORTAS ||area_number.177||, ||.ARM.exidx||
                          DCD      0x00000000
                          RELOC 42, ||i._ZN8MPU_925020TAccGyroMagDriver_LL20slv2_dly_access_ctrlEPhNS_6VEnDisE||
                          DCD      0x00000001

                          AREA ||area_number.178||, LINKORDER=||i._ZN8MPU_925020TAccGyroMagDriver_LL20slv1_dly_access_ctrlEPhNS_6VEnDisE||, DATA, READONLY, SECTYPE={SHT_ARM_EXIDX}, ALIGN=2

                          EXPORTAS ||area_number.178||, ||.ARM.exidx||
                          DCD      0x00000000
                          RELOC 42, ||i._ZN8MPU_925020TAccGyroMagDriver_LL20slv1_dly_access_ctrlEPhNS_6VEnDisE||
                          DCD      0x00000001

                          AREA ||area_number.179||, LINKORDER=||i._ZN8MPU_925020TAccGyroMagDriver_LL20slv0_dly_access_ctrlEPhNS_6VEnDisE||, DATA, READONLY, SECTYPE={SHT_ARM_EXIDX}, ALIGN=2

                          EXPORTAS ||area_number.179||, ||.ARM.exidx||
                          DCD      0x00000000
                          RELOC 42, ||i._ZN8MPU_925020TAccGyroMagDriver_LL20slv0_dly_access_ctrlEPhNS_6VEnDisE||
                          DCD      0x00000001

                          AREA ||area_number.180||, LINKORDER=||i._ZN8MPU_925020TAccGyroMagDriver_LL22reset_gyro_signal_pathEPhNS_6VEnDisE||, DATA, READONLY, SECTYPE={SHT_ARM_EXIDX}, ALIGN=2

                          EXPORTAS ||area_number.180||, ||.ARM.exidx||
                          DCD      0x00000000
                          RELOC 42, ||i._ZN8MPU_925020TAccGyroMagDriver_LL22reset_gyro_signal_pathEPhNS_6VEnDisE||
                          DCD      0x00000001

                          AREA ||area_number.181||, LINKORDER=||i._ZN8MPU_925020TAccGyroMagDriver_LL23reset_accel_signal_pathEPhNS_6VEnDisE||, DATA, READONLY, SECTYPE={SHT_ARM_EXIDX}, ALIGN=2

                          EXPORTAS ||area_number.181||, ||.ARM.exidx||
                          DCD      0x00000000
                          RELOC 42, ||i._ZN8MPU_925020TAccGyroMagDriver_LL23reset_accel_signal_pathEPhNS_6VEnDisE||
                          DCD      0x00000001

                          AREA ||area_number.182||, LINKORDER=||i._ZN8MPU_925020TAccGyroMagDriver_LL22reset_temp_signal_pathEPhNS_6VEnDisE||, DATA, READONLY, SECTYPE={SHT_ARM_EXIDX}, ALIGN=2

                          EXPORTAS ||area_number.182||, ||.ARM.exidx||
                          DCD      0x00000000
                          RELOC 42, ||i._ZN8MPU_925020TAccGyroMagDriver_LL22reset_temp_signal_pathEPhNS_6VEnDisE||
                          DCD      0x00000001

                          AREA ||area_number.183||, LINKORDER=||i._ZN8MPU_925020TAccGyroMagDriver_LL25accel_wake_on_motion_ctrlEPhNS_6VEnDisE||, DATA, READONLY, SECTYPE={SHT_ARM_EXIDX}, ALIGN=2

                          EXPORTAS ||area_number.183||, ||.ARM.exidx||
                          DCD      0x00000000
                          RELOC 42, ||i._ZN8MPU_925020TAccGyroMagDriver_LL25accel_wake_on_motion_ctrlEPhNS_6VEnDisE||
                          DCD      0x00000001

                          AREA ||area_number.184||, LINKORDER=||i._ZN8MPU_925020TAccGyroMagDriver_LL26accel_compare_samples_ctrlEPhNS_6VEnDisE||, DATA, READONLY, SECTYPE={SHT_ARM_EXIDX}, ALIGN=2

                          EXPORTAS ||area_number.184||, ||.ARM.exidx||
                          DCD      0x00000000
                          RELOC 42, ||i._ZN8MPU_925020TAccGyroMagDriver_LL26accel_compare_samples_ctrlEPhNS_6VEnDisE||
                          DCD      0x00000001

                          AREA ||area_number.185||, LINKORDER=||i._ZN8MPU_925020TAccGyroMagDriver_LL14fifo_mode_ctrlEPhNS_6VEnDisE||, DATA, READONLY, SECTYPE={SHT_ARM_EXIDX}, ALIGN=2

                          EXPORTAS ||area_number.185||, ||.ARM.exidx||
                          DCD      0x00000000
                          RELOC 42, ||i._ZN8MPU_925020TAccGyroMagDriver_LL14fifo_mode_ctrlEPhNS_6VEnDisE||
                          DCD      0x00000001

                          AREA ||area_number.186||, LINKORDER=||i._ZN8MPU_925020TAccGyroMagDriver_LL25i2c_master_if_module_ctrlEPhNS_14VI2CMasterCtrlE||, DATA, READONLY, SECTYPE={SHT_ARM_EXIDX}, ALIGN=2

                          EXPORTAS ||area_number.186||, ||.ARM.exidx||
                          DCD      0x00000000
                          RELOC 42, ||i._ZN8MPU_925020TAccGyroMagDriver_LL25i2c_master_if_module_ctrlEPhNS_14VI2CMasterCtrlE||
                          DCD      0x00000001

                          AREA ||area_number.187||, LINKORDER=||i._ZN8MPU_925020TAccGyroMagDriver_LL19interface_mode_ctrlEPhNS_6VEnDisE||, DATA, READONLY, SECTYPE={SHT_ARM_EXIDX}, ALIGN=2

                          EXPORTAS ||area_number.187||, ||.ARM.exidx||
                          DCD      0x00000000
                          RELOC 42, ||i._ZN8MPU_925020TAccGyroMagDriver_LL19interface_mode_ctrlEPhNS_6VEnDisE||
                          DCD      0x00000001

                          AREA ||area_number.188||, LINKORDER=||i._ZN8MPU_925020TAccGyroMagDriver_LL17reset_fifo_moduleEPhNS_6VEnDisE||, DATA, READONLY, SECTYPE={SHT_ARM_EXIDX}, ALIGN=2

                          EXPORTAS ||area_number.188||, ||.ARM.exidx||
                          DCD      0x00000000
                          RELOC 42, ||i._ZN8MPU_925020TAccGyroMagDriver_LL17reset_fifo_moduleEPhNS_6VEnDisE||
                          DCD      0x00000001

                          AREA ||area_number.189||, LINKORDER=||i._ZN8MPU_925020TAccGyroMagDriver_LL23reset_i2c_master_moduleEPhNS_6VEnDisE||, DATA, READONLY, SECTYPE={SHT_ARM_EXIDX}, ALIGN=2

                          EXPORTAS ||area_number.189||, ||.ARM.exidx||
                          DCD      0x00000000
                          RELOC 42, ||i._ZN8MPU_925020TAccGyroMagDriver_LL23reset_i2c_master_moduleEPhNS_6VEnDisE||
                          DCD      0x00000001

                          AREA ||area_number.190||, LINKORDER=||i._ZN8MPU_925020TAccGyroMagDriver_LL21reset_all_signal_pathEPhNS_6VEnDisE||, DATA, READONLY, SECTYPE={SHT_ARM_EXIDX}, ALIGN=2

                          EXPORTAS ||area_number.190||, ||.ARM.exidx||
                          DCD      0x00000000
                          RELOC 42, ||i._ZN8MPU_925020TAccGyroMagDriver_LL21reset_all_signal_pathEPhNS_6VEnDisE||
                          DCD      0x00000001

                          AREA ||area_number.191||, LINKORDER=||i._ZN8MPU_925020TAccGyroMagDriver_LL31reset_and_restore_internal_regsEPhNS_9VSetResetE||, DATA, READONLY, SECTYPE={SHT_ARM_EXIDX}, ALIGN=2

                          EXPORTAS ||area_number.191||, ||.ARM.exidx||
                          DCD      0x00000000
                          RELOC 42, ||i._ZN8MPU_925020TAccGyroMagDriver_LL31reset_and_restore_internal_regsEPhNS_9VSetResetE||
                          DCD      0x00000001

                          AREA ||area_number.192||, LINKORDER=||i._ZN8MPU_925020TAccGyroMagDriver_LL10sleep_ctrlEPhNS_9VSetResetE||, DATA, READONLY, SECTYPE={SHT_ARM_EXIDX}, ALIGN=2

                          EXPORTAS ||area_number.192||, ||.ARM.exidx||
                          DCD      0x00000000
                          RELOC 42, ||i._ZN8MPU_925020TAccGyroMagDriver_LL10sleep_ctrlEPhNS_9VSetResetE||
                          DCD      0x00000001

                          AREA ||area_number.193||, LINKORDER=||i._ZN8MPU_925020TAccGyroMagDriver_LL10cycle_ctrlEPhNS_9VSetResetE||, DATA, READONLY, SECTYPE={SHT_ARM_EXIDX}, ALIGN=2

                          EXPORTAS ||area_number.193||, ||.ARM.exidx||
                          DCD      0x00000000
                          RELOC 42, ||i._ZN8MPU_925020TAccGyroMagDriver_LL10cycle_ctrlEPhNS_9VSetResetE||
                          DCD      0x00000001

                          AREA ||area_number.194||, LINKORDER=||i._ZN8MPU_925020TAccGyroMagDriver_LL17gyro_standby_ctrlEPhNS_9VSetResetE||, DATA, READONLY, SECTYPE={SHT_ARM_EXIDX}, ALIGN=2

                          EXPORTAS ||area_number.194||, ||.ARM.exidx||
                          DCD      0x00000000
                          RELOC 42, ||i._ZN8MPU_925020TAccGyroMagDriver_LL17gyro_standby_ctrlEPhNS_9VSetResetE||
                          DCD      0x00000001

                          AREA ||area_number.195||, LINKORDER=||i._ZN8MPU_925020TAccGyroMagDriver_LL22voltage_generator_ctrlEPhNS_9VSetResetE||, DATA, READONLY, SECTYPE={SHT_ARM_EXIDX}, ALIGN=2

                          EXPORTAS ||area_number.195||, ||.ARM.exidx||
                          DCD      0x00000000
                          RELOC 42, ||i._ZN8MPU_925020TAccGyroMagDriver_LL22voltage_generator_ctrlEPhNS_9VSetResetE||
                          DCD      0x00000001

                          AREA ||area_number.196||, LINKORDER=||i._ZN8MPU_925020TAccGyroMagDriver_LL16clock_src_choiseEPhNS_15VClockSrcChoiseE||, DATA, READONLY, SECTYPE={SHT_ARM_EXIDX}, ALIGN=2

                          EXPORTAS ||area_number.196||, ||.ARM.exidx||
                          DCD      0x00000000
                          RELOC 42, ||i._ZN8MPU_925020TAccGyroMagDriver_LL16clock_src_choiseEPhNS_15VClockSrcChoiseE||
                          DCD      0x00000001

                          AREA ||area_number.197||, LINKORDER=||i._ZN8MPU_925020TAccGyroMagDriver_LL12accel_x_ctrlEPhNS_6VEnDisE||, DATA, READONLY, SECTYPE={SHT_ARM_EXIDX}, ALIGN=2

                          EXPORTAS ||area_number.197||, ||.ARM.exidx||
                          DCD      0x00000000
                          RELOC 42, ||i._ZN8MPU_925020TAccGyroMagDriver_LL12accel_x_ctrlEPhNS_6VEnDisE||
                          DCD      0x00000001

                          AREA ||area_number.198||, LINKORDER=||i._ZN8MPU_925020TAccGyroMagDriver_LL12accel_y_ctrlEPhNS_6VEnDisE||, DATA, READONLY, SECTYPE={SHT_ARM_EXIDX}, ALIGN=2

                          EXPORTAS ||area_number.198||, ||.ARM.exidx||
                          DCD      0x00000000
                          RELOC 42, ||i._ZN8MPU_925020TAccGyroMagDriver_LL12accel_y_ctrlEPhNS_6VEnDisE||
                          DCD      0x00000001

                          AREA ||area_number.199||, LINKORDER=||i._ZN8MPU_925020TAccGyroMagDriver_LL12accel_z_ctrlEPhNS_6VEnDisE||, DATA, READONLY, SECTYPE={SHT_ARM_EXIDX}, ALIGN=2

                          EXPORTAS ||area_number.199||, ||.ARM.exidx||
                          DCD      0x00000000
                          RELOC 42, ||i._ZN8MPU_925020TAccGyroMagDriver_LL12accel_z_ctrlEPhNS_6VEnDisE||
                          DCD      0x00000001

                          AREA ||area_number.200||, LINKORDER=||i._ZN8MPU_925020TAccGyroMagDriver_LL11gyro_x_ctrlEPhNS_6VEnDisE||, DATA, READONLY, SECTYPE={SHT_ARM_EXIDX}, ALIGN=2

                          EXPORTAS ||area_number.200||, ||.ARM.exidx||
                          DCD      0x00000000
                          RELOC 42, ||i._ZN8MPU_925020TAccGyroMagDriver_LL11gyro_x_ctrlEPhNS_6VEnDisE||
                          DCD      0x00000001

                          AREA ||area_number.201||, LINKORDER=||i._ZN8MPU_925020TAccGyroMagDriver_LL11gyro_y_ctrlEPhNS_6VEnDisE||, DATA, READONLY, SECTYPE={SHT_ARM_EXIDX}, ALIGN=2

                          EXPORTAS ||area_number.201||, ||.ARM.exidx||
                          DCD      0x00000000
                          RELOC 42, ||i._ZN8MPU_925020TAccGyroMagDriver_LL11gyro_y_ctrlEPhNS_6VEnDisE||
                          DCD      0x00000001

                          AREA ||area_number.202||, LINKORDER=||i._ZN8MPU_925020TAccGyroMagDriver_LL11gyro_z_ctrlEPhNS_6VEnDisE||, DATA, READONLY, SECTYPE={SHT_ARM_EXIDX}, ALIGN=2

                          EXPORTAS ||area_number.202||, ||.ARM.exidx||
                          DCD      0x00000000
                          RELOC 42, ||i._ZN8MPU_925020TAccGyroMagDriver_LL11gyro_z_ctrlEPhNS_6VEnDisE||
                          DCD      0x00000001

                          AREA ||area_number.203||, LINKORDER=||i._ZN8MPU_925020TAccGyroMagDriver_LL20fifo_high_bits_countEPhh||, DATA, READONLY, SECTYPE={SHT_ARM_EXIDX}, ALIGN=2

                          EXPORTAS ||area_number.203||, ||.ARM.exidx||
                          DCD      0x00000000
                          RELOC 42, ||i._ZN8MPU_925020TAccGyroMagDriver_LL20fifo_high_bits_countEPhh||
                          DCD      0x00000001

                          AREA ||area_number.204||, LINKORDER=||i._ZN8MPU_925020TAccGyroMagDriver_LL14mag_data_readyEhPNS_11VStatusFlagE||, DATA, READONLY, SECTYPE={SHT_ARM_EXIDX}, ALIGN=2

                          EXPORTAS ||area_number.204||, ||.ARM.exidx||
                          DCD      0x00000000
                          RELOC 42, ||i._ZN8MPU_925020TAccGyroMagDriver_LL14mag_data_readyEhPNS_11VStatusFlagE||
                          DCD      0x00000001

                          AREA ||area_number.205||, LINKORDER=||i._ZN8MPU_925020TAccGyroMagDriver_LL16mag_data_overrunEhPNS_11VStatusFlagE||, DATA, READONLY, SECTYPE={SHT_ARM_EXIDX}, ALIGN=2

                          EXPORTAS ||area_number.205||, ||.ARM.exidx||
                          DCD      0x00000000
                          RELOC 42, ||i._ZN8MPU_925020TAccGyroMagDriver_LL16mag_data_overrunEhPNS_11VStatusFlagE||
                          DCD      0x00000001

                          AREA ||area_number.206||, LINKORDER=||i._ZN8MPU_925020TAccGyroMagDriver_LL12mag_overflowEhPNS_11VStatusFlagE||, DATA, READONLY, SECTYPE={SHT_ARM_EXIDX}, ALIGN=2

                          EXPORTAS ||area_number.206||, ||.ARM.exidx||
                          DCD      0x00000000
                          RELOC 42, ||i._ZN8MPU_925020TAccGyroMagDriver_LL12mag_overflowEhPNS_11VStatusFlagE||
                          DCD      0x00000001

                          AREA ||area_number.207||, LINKORDER=||i._ZN8MPU_925020TAccGyroMagDriver_LL19mag_mirror_data_bitEhPNS_11VStatusFlagE||, DATA, READONLY, SECTYPE={SHT_ARM_EXIDX}, ALIGN=2

                          EXPORTAS ||area_number.207||, ||.ARM.exidx||
                          DCD      0x00000000
                          RELOC 42, ||i._ZN8MPU_925020TAccGyroMagDriver_LL19mag_mirror_data_bitEhPNS_11VStatusFlagE||
                          DCD      0x00000001

                          AREA ||area_number.208||, LINKORDER=||i._ZN8MPU_925020TAccGyroMagDriver_LL22mag_operation_mode_setEPhNS_20VMagOperationModeSetE||, DATA, READONLY, SECTYPE={SHT_ARM_EXIDX}, ALIGN=2

                          EXPORTAS ||area_number.208||, ||.ARM.exidx||
                          DCD      0x00000000
                          RELOC 42, ||i._ZN8MPU_925020TAccGyroMagDriver_LL22mag_operation_mode_setEPhNS_20VMagOperationModeSetE||
                          DCD      0x00000001

                          AREA ||area_number.209||, LINKORDER=||i._ZN8MPU_925020TAccGyroMagDriver_LL23mag_operation_mode_readEhPNS_20VMagOperationModeSetE||, DATA, READONLY, SECTYPE={SHT_ARM_EXIDX}, ALIGN=2

                          EXPORTAS ||area_number.209||, ||.ARM.exidx||
                          DCD      0x00000000
                          RELOC 42, ||i._ZN8MPU_925020TAccGyroMagDriver_LL23mag_operation_mode_readEhPNS_20VMagOperationModeSetE||
                          DCD      0x00000001

                          AREA ||area_number.210||, LINKORDER=||i._ZN8MPU_925020TAccGyroMagDriver_LL18mag_output_bit_setEPhNS_16VMagOutputBitSetE||, DATA, READONLY, SECTYPE={SHT_ARM_EXIDX}, ALIGN=2

                          EXPORTAS ||area_number.210||, ||.ARM.exidx||
                          DCD      0x00000000
                          RELOC 42, ||i._ZN8MPU_925020TAccGyroMagDriver_LL18mag_output_bit_setEPhNS_16VMagOutputBitSetE||
                          DCD      0x00000001

                          AREA ||area_number.211||, LINKORDER=||i._ZN8MPU_925020TAccGyroMagDriver_LL19mag_output_bit_readEhPNS_16VMagOutputBitSetE||, DATA, READONLY, SECTYPE={SHT_ARM_EXIDX}, ALIGN=2

                          EXPORTAS ||area_number.211||, ||.ARM.exidx||
                          DCD      0x00000000
                          RELOC 42, ||i._ZN8MPU_925020TAccGyroMagDriver_LL19mag_output_bit_readEhPNS_16VMagOutputBitSetE||
                          DCD      0x00000001

                          AREA ||area_number.212||, LINKORDER=||i._ZN8MPU_925020TAccGyroMagDriver_LL19mag_soft_reset_ctrlEPhNS_17VMagSoftResetCtrlE||, DATA, READONLY, SECTYPE={SHT_ARM_EXIDX}, ALIGN=2

                          EXPORTAS ||area_number.212||, ||.ARM.exidx||
                          DCD      0x00000000
                          RELOC 42, ||i._ZN8MPU_925020TAccGyroMagDriver_LL19mag_soft_reset_ctrlEPhNS_17VMagSoftResetCtrlE||
                          DCD      0x00000001

                          AREA ||area_number.213||, LINKORDER=||i._ZN8MPU_925020TAccGyroMagDriver_LL18mag_self_test_ctrlEPhNS_16VMagSelfTestCtrlE||, DATA, READONLY, SECTYPE={SHT_ARM_EXIDX}, ALIGN=2

                          EXPORTAS ||area_number.213||, ||.ARM.exidx||
                          DCD      0x00000000
                          RELOC 42, ||i._ZN8MPU_925020TAccGyroMagDriver_LL18mag_self_test_ctrlEPhNS_16VMagSelfTestCtrlE||
                          DCD      0x00000001

                          AREA ||area_number.214||, LINKORDER=||i._ZN8MPU_925020TAccGyroMagDriver_LL15mag_i2c_disableEPh||, DATA, READONLY, SECTYPE={SHT_ARM_EXIDX}, ALIGN=2

                          EXPORTAS ||area_number.214||, ||.ARM.exidx||
                          DCD      0x00000000
                          RELOC 42, ||i._ZN8MPU_925020TAccGyroMagDriver_LL15mag_i2c_disableEPh||
                          DCD      0x00000001
